                              1 ;--------------------------------------------------------
                              2 ; File Created by SDCC : free open source ANSI-C Compiler
                              3 ; Version 3.3.0 #8604 (Dec 30 2013) (Linux)
                              4 ; This file was generated Sun May 28 18:46:01 2017
                              5 ;--------------------------------------------------------
                              6 	.module paint
                              7 	.optsdcc -mgbz80
                              8 	
                              9 ;--------------------------------------------------------
                             10 ; Public variables in this module
                             11 ;--------------------------------------------------------
                             12 	.globl _main
                             13 	.globl _run
                             14 	.globl _menu
                             15 	.globl _splash
                             16 	.globl _reset_icon
                             17 	.globl _change_icon
                             18 	.globl _set_icon
                             19 	.globl _move_menu_cursor
                             20 	.globl _move_cursor
                             21 	.globl _set_cursor
                             22 	.globl _switch_data
                             23 	.globl _plot
                             24 	.globl _move_sprite
                             25 	.globl _set_sprite_prop
                             26 	.globl _set_sprite_tile
                             27 	.globl _set_sprite_data
                             28 	.globl _wait_vbl_done
                             29 	.globl _waitpadup
                             30 	.globl _joypad
                             31 	.globl _cursor_y
                             32 	.globl _cursor_x
                             33 	.globl _menu_cursor_pos
                             34 	.globl _current_cursor
                             35 	.globl _current_mode
                             36 	.globl _current_color
                             37 	.globl _current_tool
                             38 	.globl _data_buffer
                             39 	.globl _modes
                             40 	.globl _colors
                             41 	.globl _cursors_data
                             42 	.globl _cursors
                             43 	.globl _selected_data
                             44 	.globl _data
                             45 	.globl _icons
                             46 ;--------------------------------------------------------
                             47 ; ram data
                             48 ;--------------------------------------------------------
                             49 	.area _DATA
   0000                      50 _data_buffer::
   0000                      51 	.ds 768
   0300                      52 _current_tool::
   0300                      53 	.ds 1
   0301                      54 _current_color::
   0301                      55 	.ds 1
   0302                      56 _current_mode::
   0302                      57 	.ds 1
   0303                      58 _current_cursor::
   0303                      59 	.ds 1
   0304                      60 _menu_cursor_pos::
   0304                      61 	.ds 1
   0305                      62 _cursor_x::
   0305                      63 	.ds 1
   0306                      64 _cursor_y::
   0306                      65 	.ds 1
                             66 ;--------------------------------------------------------
                             67 ; absolute external ram data
                             68 ;--------------------------------------------------------
                             69 	.area _DABS (ABS)
                             70 ;--------------------------------------------------------
                             71 ; global & static initialisations
                             72 ;--------------------------------------------------------
                             73 	.area _HOME
                             74 	.area _GSINIT
                             75 	.area _GSFINAL
                             76 	.area _GSINIT
                             77 ;--------------------------------------------------------
                             78 ; Home
                             79 ;--------------------------------------------------------
                             80 	.area _HOME
                             81 	.area _HOME
                             82 ;--------------------------------------------------------
                             83 ; code
                             84 ;--------------------------------------------------------
                             85 	.area _CODE
                             86 ;paint.c:263: void set_cursor()
                             87 ;	---------------------------------
                             88 ; Function set_cursor
                             89 ; ---------------------------------
   0000                      90 _set_cursor_start::
   0000                      91 _set_cursor:
   0000 E8 FA                92 	add	sp, #-6
                             93 ;paint.c:267: i = 0;
   0002 F8 00                94 	ldhl	sp,#0
   0004 36 00                95 	ld	(hl),#0x00
                             96 ;paint.c:268: for(x = 0; x < cursors[current_cursor].w; x++)
   0006 23                   97 	inc	hl
   0007 23                   98 	inc	hl
   0008 36 00                99 	ld	(hl),#0x00
   000A                     100 00108$:
   000A 21r03r03            101 	ld	hl,#_current_cursor
   000D 4E                  102 	ld	c,(hl)
   000E 06 00               103 	ld	b,#0x00
   0010 69                  104 	ld	l, c
   0011 60                  105 	ld	h, b
   0012 29                  106 	add	hl, hl
   0013 29                  107 	add	hl, hl
   0014 09                  108 	add	hl, bc
   0015 4D                  109 	ld	c,l
   0016 44                  110 	ld	b,h
   0017 21r8Ar07            111 	ld	hl,#_cursors
   001A 09                  112 	add	hl,bc
   001B 4D                  113 	ld	c,l
   001C 44                  114 	ld	b,h
   001D 03                  115 	inc	bc
   001E 0A                  116 	ld	a,(bc)
   001F 47                  117 	ld	b,a
   0020 F8 02               118 	ldhl	sp,#2
   0022 7E                  119 	ld	a,(hl)
   0023 90                  120 	sub	a, b
   0024 D2rBBr00            121 	jp	NC,00120$
                            122 ;paint.c:269: for(y = 0; y < cursors[current_cursor].h; y++) {
   0027 E5                  123 	push	hl
   0028 2B                  124 	dec	hl
   0029 2B                  125 	dec	hl
   002A 7E                  126 	ld	a,(hl)
   002B F8 07               127 	ldhl	sp,#7
   002D 77                  128 	ld	(hl),a
   002E E1                  129 	pop	hl
   002F F8 01               130 	ldhl	sp,#1
   0031 36 00               131 	ld	(hl),#0x00
   0033                     132 00105$:
   0033 21r03r03            133 	ld	hl,#_current_cursor
   0036 4E                  134 	ld	c,(hl)
   0037 06 00               135 	ld	b,#0x00
   0039 69                  136 	ld	l, c
   003A 60                  137 	ld	h, b
   003B 29                  138 	add	hl, hl
   003C 29                  139 	add	hl, hl
   003D 09                  140 	add	hl, bc
   003E 4D                  141 	ld	c,l
   003F 44                  142 	ld	b,h
   0040 21r8Ar07            143 	ld	hl,#_cursors
   0043 09                  144 	add	hl,bc
   0044 4D                  145 	ld	c,l
   0045 44                  146 	ld	b,h
   0046 21 02 00            147 	ld	hl,#0x0002
   0049 09                  148 	add	hl,bc
   004A 7D                  149 	ld	a,l
   004B 54                  150 	ld	d,h
   004C F8 03               151 	ldhl	sp,#3
   004E 22                  152 	ld	(hl+),a
   004F 72                  153 	ld	(hl),d
   0050 2B                  154 	dec	hl
   0051 5E                  155 	ld	e,(hl)
   0052 23                  156 	inc	hl
   0053 56                  157 	ld	d,(hl)
   0054 1A                  158 	ld	a,(de)
   0055 2B                  159 	dec	hl
   0056 32                  160 	ld	(hl-),a
   0057 2B                  161 	dec	hl
   0058 2A                  162 	ld	a,(hl+)
   0059 23                  163 	inc	hl
   005A 96                  164 	sub	a, (hl)
   005B D2rADr00            165 	jp	NC,00121$
                            166 ;paint.c:272: cursors_data[cursors[current_cursor].data_idx+i]);
   005E 0A                  167 	ld	a,(bc)
   005F 5F                  168 	ld	e,a
   0060 23                  169 	inc	hl
   0061 23                  170 	inc	hl
   0062 86                  171 	add	a, (hl)
   0063 4F                  172 	ld	c,a
   0064 06 00               173 	ld	b,#0x00
   0066 CB 21               174 	sla	c
   0068 CB 10               175 	rl	b
   006A CB 21               176 	sla	c
   006C CB 10               177 	rl	b
   006E CB 21               178 	sla	c
   0070 CB 10               179 	rl	b
   0072 CB 21               180 	sla	c
   0074 CB 10               181 	rl	b
   0076 21rA8r07            182 	ld	hl,#_cursors_data
   0079 09                  183 	add	hl,bc
   007A 4D                  184 	ld	c,l
   007B 44                  185 	ld	b,h
                            186 ;paint.c:270: set_sprite_data(i,
   007C C5                  187 	push	bc
   007D 3E 01               188 	ld	a,#0x01
   007F F5                  189 	push	af
   0080 33                  190 	inc	sp
   0081 F8 08               191 	ldhl	sp,#8
   0083 7E                  192 	ld	a,(hl)
   0084 F5                  193 	push	af
   0085 33                  194 	inc	sp
   0086 CDr00r00            195 	call	_set_sprite_data
   0089 E8 04               196 	add	sp, #4
                            197 ;paint.c:273: set_sprite_tile(i, i);
   008B F8 05               198 	ldhl	sp,#5
   008D 7E                  199 	ld	a,(hl)
   008E F5                  200 	push	af
   008F 33                  201 	inc	sp
   0090 7E                  202 	ld	a,(hl)
   0091 F5                  203 	push	af
   0092 33                  204 	inc	sp
   0093 CDr00r00            205 	call	_set_sprite_tile
   0096 F1                  206 	pop	af
                            207 ;paint.c:274: set_sprite_prop(i, 0x10);
   0097 3E 10               208 	ld	a,#0x10
   0099 F5                  209 	push	af
   009A 33                  210 	inc	sp
   009B F8 06               211 	ldhl	sp,#6
   009D 7E                  212 	ld	a,(hl)
   009E F5                  213 	push	af
   009F 33                  214 	inc	sp
   00A0 CDr00r00            215 	call	_set_sprite_prop
   00A3 F1                  216 	pop	af
                            217 ;paint.c:275: i++;
   00A4 F8 05               218 	ldhl	sp,#5
   00A6 34                  219 	inc	(hl)
                            220 ;paint.c:269: for(y = 0; y < cursors[current_cursor].h; y++) {
   00A7 F8 01               221 	ldhl	sp,#1
   00A9 34                  222 	inc	(hl)
   00AA C3r33r00            223 	jp	00105$
   00AD                     224 00121$:
   00AD E5                  225 	push	hl
   00AE F8 07               226 	ldhl	sp,#7
   00B0 7E                  227 	ld	a,(hl)
   00B1 F8 02               228 	ldhl	sp,#2
   00B3 77                  229 	ld	(hl),a
   00B4 E1                  230 	pop	hl
                            231 ;paint.c:268: for(x = 0; x < cursors[current_cursor].w; x++)
   00B5 F8 02               232 	ldhl	sp,#2
   00B7 34                  233 	inc	(hl)
   00B8 C3r0Ar00            234 	jp	00108$
   00BB                     235 00120$:
   00BB F8 00               236 	ldhl	sp,#0
   00BD 46                  237 	ld	b,(hl)
   00BE                     238 00111$:
                            239 ;paint.c:278: for(; i < 4; i++) {
   00BE 78                  240 	ld	a,b
   00BF D6 04               241 	sub	a, #0x04
   00C1 30 10               242 	jr	NC,00113$
                            243 ;paint.c:279: move_sprite(i, 0, 0);
   00C3 C5                  244 	push	bc
   00C4 21 00 00            245 	ld	hl,#0x0000
   00C7 E5                  246 	push	hl
   00C8 C5                  247 	push	bc
   00C9 33                  248 	inc	sp
   00CA CDr00r00            249 	call	_move_sprite
   00CD E8 03               250 	add	sp, #3
   00CF C1                  251 	pop	bc
                            252 ;paint.c:278: for(; i < 4; i++) {
   00D0 04                  253 	inc	b
   00D1 18 EB               254 	jr	00111$
   00D3                     255 00113$:
   00D3 E8 06               256 	add	sp,#6
   00D5 C9                  257 	ret
   00D6                     258 _set_cursor_end::
   00D6                     259 _icons:
   00D6 00                  260 	.db #0x00	; 0
   00D7 00                  261 	.db #0x00	; 0
   00D8 00                  262 	.db #0x00	; 0
   00D9 02                  263 	.db #0x02	; 2
   00DA 02                  264 	.db #0x02	; 2
   00DB 0A                  265 	.db #0x0A	; 10
   00DC 02                  266 	.db #0x02	; 2
   00DD 01                  267 	.db #0x01	; 1
   00DE 01                  268 	.db #0x01	; 1
   00DF 01                  269 	.db #0x01	; 1
   00E0 04                  270 	.db #0x04	; 4
   00E1 02                  271 	.db #0x02	; 2
   00E2 00                  272 	.db #0x00	; 0
   00E3 02                  273 	.db #0x02	; 2
   00E4 02                  274 	.db #0x02	; 2
   00E5 0E                  275 	.db #0x0E	; 14
   00E6 03                  276 	.db #0x03	; 3
   00E7 00                  277 	.db #0x00	; 0
   00E8 00                  278 	.db #0x00	; 0
   00E9 02                  279 	.db #0x02	; 2
   00EA 08                  280 	.db #0x08	; 8
   00EB 00                  281 	.db #0x00	; 0
   00EC 02                  282 	.db #0x02	; 2
   00ED 02                  283 	.db #0x02	; 2
   00EE 02                  284 	.db #0x02	; 2
   00EF 00                  285 	.db #0x00	; 0
   00F0 04                  286 	.db #0x04	; 4
   00F1 03                  287 	.db #0x03	; 3
   00F2 03                  288 	.db #0x03	; 3
   00F3 03                  289 	.db #0x03	; 3
   00F4 0C                  290 	.db #0x0C	; 12
   00F5 02                  291 	.db #0x02	; 2
   00F6 02                  292 	.db #0x02	; 2
   00F7 02                  293 	.db #0x02	; 2
   00F8 02                  294 	.db #0x02	; 2
   00F9 01                  295 	.db #0x01	; 1
   00FA 05                  296 	.db #0x05	; 5
   00FB 02                  297 	.db #0x02	; 2
   00FC 02                  298 	.db #0x02	; 2
   00FD 04                  299 	.db #0x04	; 4
   00FE 10                  300 	.db #0x10	; 16
   00FF 00                  301 	.db #0x00	; 0
   0100 04                  302 	.db #0x04	; 4
   0101 02                  303 	.db #0x02	; 2
   0102 02                  304 	.db #0x02	; 2
   0103 02                  305 	.db #0x02	; 2
   0104 06                  306 	.db #0x06	; 6
   0105 05                  307 	.db #0x05	; 5
   0106 05                  308 	.db #0x05	; 5
   0107 05                  309 	.db #0x05	; 5
   0108 14                  310 	.db #0x14	; 20
   0109 02                  311 	.db #0x02	; 2
   010A 04                  312 	.db #0x04	; 4
   010B 02                  313 	.db #0x02	; 2
   010C 02                  314 	.db #0x02	; 2
   010D 03                  315 	.db #0x03	; 3
   010E 07                  316 	.db #0x07	; 7
   010F 04                  317 	.db #0x04	; 4
   0110 04                  318 	.db #0x04	; 4
   0111 05                  319 	.db #0x05	; 5
   0112 18                  320 	.db #0x18	; 24
   0113 00                  321 	.db #0x00	; 0
   0114 06                  322 	.db #0x06	; 6
   0115 02                  323 	.db #0x02	; 2
   0116 02                  324 	.db #0x02	; 2
   0117 04                  325 	.db #0x04	; 4
   0118 08                  326 	.db #0x08	; 8
   0119 07                  327 	.db #0x07	; 7
   011A 07                  328 	.db #0x07	; 7
   011B 05                  329 	.db #0x05	; 5
   011C 1C                  330 	.db #0x1C	; 28
   011D 02                  331 	.db #0x02	; 2
   011E 06                  332 	.db #0x06	; 6
   011F 02                  333 	.db #0x02	; 2
   0120 02                  334 	.db #0x02	; 2
   0121 05                  335 	.db #0x05	; 5
   0122 09                  336 	.db #0x09	; 9
   0123 06                  337 	.db #0x06	; 6
   0124 06                  338 	.db #0x06	; 6
   0125 05                  339 	.db #0x05	; 5
   0126 20                  340 	.db #0x20	; 32
   0127 00                  341 	.db #0x00	; 0
   0128 08                  342 	.db #0x08	; 8
   0129 02                  343 	.db #0x02	; 2
   012A 02                  344 	.db #0x02	; 2
   012B 06                  345 	.db #0x06	; 6
   012C 0A                  346 	.db #0x0A	; 10
   012D 09                  347 	.db #0x09	; 9
   012E 09                  348 	.db #0x09	; 9
   012F 05                  349 	.db #0x05	; 5
   0130 24                  350 	.db #0x24	; 36
   0131 02                  351 	.db #0x02	; 2
   0132 08                  352 	.db #0x08	; 8
   0133 02                  353 	.db #0x02	; 2
   0134 02                  354 	.db #0x02	; 2
   0135 07                  355 	.db #0x07	; 7
   0136 0E                  356 	.db #0x0E	; 14
   0137 08                  357 	.db #0x08	; 8
   0138 08                  358 	.db #0x08	; 8
   0139 05                  359 	.db #0x05	; 5
   013A 28                  360 	.db #0x28	; 40
   013B 00                  361 	.db #0x00	; 0
   013C 0A                  362 	.db #0x0A	; 10
   013D 01                  363 	.db #0x01	; 1
   013E 01                  364 	.db #0x01	; 1
   013F 08                  365 	.db #0x08	; 8
   0140 0B                  366 	.db #0x0B	; 11
   0141 10                  367 	.db #0x10	; 16
   0142 0C                  368 	.db #0x0C	; 12
   0143 00                  369 	.db #0x00	; 0
   0144 29                  370 	.db #0x29	; 41
   0145 00                  371 	.db #0x00	; 0
   0146 0B                  372 	.db #0x0B	; 11
   0147 01                  373 	.db #0x01	; 1
   0148 01                  374 	.db #0x01	; 1
   0149 0A                  375 	.db #0x0A	; 10
   014A 00                  376 	.db #0x00	; 0
   014B 11                  377 	.db #0x11	; 17
   014C 0D                  378 	.db #0x0D	; 13
   014D 00                  379 	.db #0x00	; 0
   014E 2A                  380 	.db #0x2A	; 42
   014F 01                  381 	.db #0x01	; 1
   0150 0A                  382 	.db #0x0A	; 10
   0151 01                  383 	.db #0x01	; 1
   0152 01                  384 	.db #0x01	; 1
   0153 08                  385 	.db #0x08	; 8
   0154 0D                  386 	.db #0x0D	; 13
   0155 0A                  387 	.db #0x0A	; 10
   0156 0E                  388 	.db #0x0E	; 14
   0157 00                  389 	.db #0x00	; 0
   0158 2B                  390 	.db #0x2B	; 43
   0159 01                  391 	.db #0x01	; 1
   015A 0B                  392 	.db #0x0B	; 11
   015B 01                  393 	.db #0x01	; 1
   015C 01                  394 	.db #0x01	; 1
   015D 0C                  395 	.db #0x0C	; 12
   015E 00                  396 	.db #0x00	; 0
   015F 0B                  397 	.db #0x0B	; 11
   0160 0F                  398 	.db #0x0F	; 15
   0161 00                  399 	.db #0x00	; 0
   0162 2C                  400 	.db #0x2C	; 44
   0163 02                  401 	.db #0x02	; 2
   0164 0A                  402 	.db #0x0A	; 10
   0165 01                  403 	.db #0x01	; 1
   0166 01                  404 	.db #0x01	; 1
   0167 09                  405 	.db #0x09	; 9
   0168 0F                  406 	.db #0x0F	; 15
   0169 0C                  407 	.db #0x0C	; 12
   016A 10                  408 	.db #0x10	; 16
   016B 00                  409 	.db #0x00	; 0
   016C 2D                  410 	.db #0x2D	; 45
   016D 02                  411 	.db #0x02	; 2
   016E 0B                  412 	.db #0x0B	; 11
   016F 01                  413 	.db #0x01	; 1
   0170 01                  414 	.db #0x01	; 1
   0171 0E                  415 	.db #0x0E	; 14
   0172 01                  416 	.db #0x01	; 1
   0173 0D                  417 	.db #0x0D	; 13
   0174 11                  418 	.db #0x11	; 17
   0175 00                  419 	.db #0x00	; 0
   0176 2E                  420 	.db #0x2E	; 46
   0177 03                  421 	.db #0x03	; 3
   0178 0A                  422 	.db #0x0A	; 10
   0179 01                  423 	.db #0x01	; 1
   017A 01                  424 	.db #0x01	; 1
   017B 09                  425 	.db #0x09	; 9
   017C 11                  426 	.db #0x11	; 17
   017D 0E                  427 	.db #0x0E	; 14
   017E 0A                  428 	.db #0x0A	; 10
   017F 00                  429 	.db #0x00	; 0
   0180 2F                  430 	.db #0x2F	; 47
   0181 03                  431 	.db #0x03	; 3
   0182 0B                  432 	.db #0x0B	; 11
   0183 01                  433 	.db #0x01	; 1
   0184 01                  434 	.db #0x01	; 1
   0185 10                  435 	.db #0x10	; 16
   0186 01                  436 	.db #0x01	; 1
   0187 0F                  437 	.db #0x0F	; 15
   0188 0B                  438 	.db #0x0B	; 11
   0189 00                  439 	.db #0x00	; 0
   018A                     440 _data:
   018A 00                  441 	.db #0x00	; 0
   018B 00                  442 	.db #0x00	; 0
   018C 7F                  443 	.db #0x7F	; 127
   018D 00                  444 	.db #0x00	; 0
   018E 7F                  445 	.db #0x7F	; 127
   018F 00                  446 	.db #0x00	; 0
   0190 7F                  447 	.db #0x7F	; 127
   0191 00                  448 	.db #0x00	; 0
   0192 7F                  449 	.db #0x7F	; 127
   0193 00                  450 	.db #0x00	; 0
   0194 7F                  451 	.db #0x7F	; 127
   0195 00                  452 	.db #0x00	; 0
   0196 7F                  453 	.db #0x7F	; 127
   0197 00                  454 	.db #0x00	; 0
   0198 7F                  455 	.db #0x7F	; 127
   0199 01                  456 	.db #0x01	; 1
   019A 7E                  457 	.db #0x7E	; 126
   019B 02                  458 	.db #0x02	; 2
   019C 7D                  459 	.db #0x7D	; 125
   019D 05                  460 	.db #0x05	; 5
   019E 7B                  461 	.db #0x7B	; 123
   019F 0A                  462 	.db #0x0A	; 10
   01A0 77                  463 	.db #0x77	; 119	'w'
   01A1 14                  464 	.db #0x14	; 20
   01A2 7F                  465 	.db #0x7F	; 127
   01A3 18                  466 	.db #0x18	; 24
   01A4 7F                  467 	.db #0x7F	; 127
   01A5 27                  468 	.db #0x27	; 39
   01A6 7F                  469 	.db #0x7F	; 127
   01A7 00                  470 	.db #0x00	; 0
   01A8 00                  471 	.db #0x00	; 0
   01A9 7F                  472 	.db #0x7F	; 127
   01AA 00                  473 	.db #0x00	; 0
   01AB 00                  474 	.db #0x00	; 0
   01AC FE                  475 	.db #0xFE	; 254
   01AD 01                  476 	.db #0x01	; 1
   01AE FE                  477 	.db #0xFE	; 254
   01AF 0D                  478 	.db #0x0D	; 13
   01B0 F6                  479 	.db #0xF6	; 246
   01B1 15                  480 	.db #0x15	; 21
   01B2 EE                  481 	.db #0xEE	; 238
   01B3 29                  482 	.db #0x29	; 41
   01B4 DE                  483 	.db #0xDE	; 222
   01B5 51                  484 	.db #0x51	; 81	'Q'
   01B6 BE                  485 	.db #0xBE	; 190
   01B7 A1                  486 	.db #0xA1	; 161
   01B8 7E                  487 	.db #0x7E	; 126
   01B9 41                  488 	.db #0x41	; 65	'A'
   01BA FE                  489 	.db #0xFE	; 254
   01BB 81                  490 	.db #0x81	; 129
   01BC FE                  491 	.db #0xFE	; 254
   01BD 01                  492 	.db #0x01	; 1
   01BE FE                  493 	.db #0xFE	; 254
   01BF 01                  494 	.db #0x01	; 1
   01C0 FE                  495 	.db #0xFE	; 254
   01C1 01                  496 	.db #0x01	; 1
   01C2 FE                  497 	.db #0xFE	; 254
   01C3 01                  498 	.db #0x01	; 1
   01C4 FE                  499 	.db #0xFE	; 254
   01C5 FD                  500 	.db #0xFD	; 253
   01C6 FE                  501 	.db #0xFE	; 254
   01C7 01                  502 	.db #0x01	; 1
   01C8 00                  503 	.db #0x00	; 0
   01C9 FF                  504 	.db #0xFF	; 255
   01CA 00                  505 	.db #0x00	; 0
   01CB 00                  506 	.db #0x00	; 0
   01CC 7F                  507 	.db #0x7F	; 127
   01CD 00                  508 	.db #0x00	; 0
   01CE 7F                  509 	.db #0x7F	; 127
   01CF 00                  510 	.db #0x00	; 0
   01D0 7F                  511 	.db #0x7F	; 127
   01D1 00                  512 	.db #0x00	; 0
   01D2 7F                  513 	.db #0x7F	; 127
   01D3 00                  514 	.db #0x00	; 0
   01D4 7F                  515 	.db #0x7F	; 127
   01D5 00                  516 	.db #0x00	; 0
   01D6 7F                  517 	.db #0x7F	; 127
   01D7 00                  518 	.db #0x00	; 0
   01D8 7F                  519 	.db #0x7F	; 127
   01D9 01                  520 	.db #0x01	; 1
   01DA 7E                  521 	.db #0x7E	; 126
   01DB 02                  522 	.db #0x02	; 2
   01DC 7D                  523 	.db #0x7D	; 125
   01DD 0D                  524 	.db #0x0D	; 13
   01DE 7F                  525 	.db #0x7F	; 127
   01DF 1E                  526 	.db #0x1E	; 30
   01E0 7F                  527 	.db #0x7F	; 127
   01E1 1E                  528 	.db #0x1E	; 30
   01E2 7F                  529 	.db #0x7F	; 127
   01E3 1D                  530 	.db #0x1D	; 29
   01E4 7F                  531 	.db #0x7F	; 127
   01E5 11                  532 	.db #0x11	; 17
   01E6 7F                  533 	.db #0x7F	; 127
   01E7 00                  534 	.db #0x00	; 0
   01E8 00                  535 	.db #0x00	; 0
   01E9 7F                  536 	.db #0x7F	; 127
   01EA 00                  537 	.db #0x00	; 0
   01EB 00                  538 	.db #0x00	; 0
   01EC FE                  539 	.db #0xFE	; 254
   01ED 01                  540 	.db #0x01	; 1
   01EE FE                  541 	.db #0xFE	; 254
   01EF 0D                  542 	.db #0x0D	; 13
   01F0 F6                  543 	.db #0xF6	; 246
   01F1 15                  544 	.db #0x15	; 21
   01F2 EE                  545 	.db #0xEE	; 238
   01F3 29                  546 	.db #0x29	; 41
   01F4 DE                  547 	.db #0xDE	; 222
   01F5 51                  548 	.db #0x51	; 81	'Q'
   01F6 BE                  549 	.db #0xBE	; 190
   01F7 A1                  550 	.db #0xA1	; 161
   01F8 7E                  551 	.db #0x7E	; 126
   01F9 41                  552 	.db #0x41	; 65	'A'
   01FA FE                  553 	.db #0xFE	; 254
   01FB 81                  554 	.db #0x81	; 129
   01FC FE                  555 	.db #0xFE	; 254
   01FD 01                  556 	.db #0x01	; 1
   01FE FE                  557 	.db #0xFE	; 254
   01FF 01                  558 	.db #0x01	; 1
   0200 FE                  559 	.db #0xFE	; 254
   0201 01                  560 	.db #0x01	; 1
   0202 FE                  561 	.db #0xFE	; 254
   0203 FD                  562 	.db #0xFD	; 253
   0204 FE                  563 	.db #0xFE	; 254
   0205 FD                  564 	.db #0xFD	; 253
   0206 FE                  565 	.db #0xFE	; 254
   0207 01                  566 	.db #0x01	; 1
   0208 00                  567 	.db #0x00	; 0
   0209 FF                  568 	.db #0xFF	; 255
   020A 00                  569 	.db #0x00	; 0
   020B 00                  570 	.db #0x00	; 0
   020C 7F                  571 	.db #0x7F	; 127
   020D 00                  572 	.db #0x00	; 0
   020E 7F                  573 	.db #0x7F	; 127
   020F 00                  574 	.db #0x00	; 0
   0210 7F                  575 	.db #0x7F	; 127
   0211 01                  576 	.db #0x01	; 1
   0212 7F                  577 	.db #0x7F	; 127
   0213 02                  578 	.db #0x02	; 2
   0214 7E                  579 	.db #0x7E	; 126
   0215 0C                  580 	.db #0x0C	; 12
   0216 7D                  581 	.db #0x7D	; 125
   0217 18                  582 	.db #0x18	; 24
   0218 7E                  583 	.db #0x7E	; 126
   0219 1D                  584 	.db #0x1D	; 29
   021A 7F                  585 	.db #0x7F	; 127
   021B 1B                  586 	.db #0x1B	; 27
   021C 7F                  587 	.db #0x7F	; 127
   021D 19                  588 	.db #0x19	; 25
   021E 7F                  589 	.db #0x7F	; 127
   021F 18                  590 	.db #0x18	; 24
   0220 7F                  591 	.db #0x7F	; 127
   0221 08                  592 	.db #0x08	; 8
   0222 7F                  593 	.db #0x7F	; 127
   0223 08                  594 	.db #0x08	; 8
   0224 7F                  595 	.db #0x7F	; 127
   0225 08                  596 	.db #0x08	; 8
   0226 7F                  597 	.db #0x7F	; 127
   0227 00                  598 	.db #0x00	; 0
   0228 00                  599 	.db #0x00	; 0
   0229 7F                  600 	.db #0x7F	; 127
   022A 00                  601 	.db #0x00	; 0
   022B 00                  602 	.db #0x00	; 0
   022C FE                  603 	.db #0xFE	; 254
   022D 01                  604 	.db #0x01	; 1
   022E FE                  605 	.db #0xFE	; 254
   022F 81                  606 	.db #0x81	; 129
   0230 FE                  607 	.db #0xFE	; 254
   0231 41                  608 	.db #0x41	; 65	'A'
   0232 7E                  609 	.db #0x7E	; 126
   0233 21                  610 	.db #0x21	; 33
   0234 BE                  611 	.db #0xBE	; 190
   0235 71                  612 	.db #0x71	; 113	'q'
   0236 5E                  613 	.db #0x5E	; 94
   0237 E9                  614 	.db #0xE9	; 233
   0238 AE                  615 	.db #0xAE	; 174
   0239 C5                  616 	.db #0xC5	; 197
   023A 5E                  617 	.db #0x5E	; 94
   023B 89                  618 	.db #0x89	; 137
   023C BE                  619 	.db #0xBE	; 190
   023D 11                  620 	.db #0x11	; 17
   023E FE                  621 	.db #0xFE	; 254
   023F A1                  622 	.db #0xA1	; 161
   0240 FE                  623 	.db #0xFE	; 254
   0241 41                  624 	.db #0x41	; 65	'A'
   0242 FE                  625 	.db #0xFE	; 254
   0243 01                  626 	.db #0x01	; 1
   0244 FE                  627 	.db #0xFE	; 254
   0245 01                  628 	.db #0x01	; 1
   0246 FE                  629 	.db #0xFE	; 254
   0247 01                  630 	.db #0x01	; 1
   0248 00                  631 	.db #0x00	; 0
   0249 FF                  632 	.db #0xFF	; 255
   024A 00                  633 	.db #0x00	; 0
   024B 00                  634 	.db #0x00	; 0
   024C 7F                  635 	.db #0x7F	; 127
   024D 00                  636 	.db #0x00	; 0
   024E 7F                  637 	.db #0x7F	; 127
   024F 00                  638 	.db #0x00	; 0
   0250 7F                  639 	.db #0x7F	; 127
   0251 00                  640 	.db #0x00	; 0
   0252 7F                  641 	.db #0x7F	; 127
   0253 00                  642 	.db #0x00	; 0
   0254 7F                  643 	.db #0x7F	; 127
   0255 01                  644 	.db #0x01	; 1
   0256 7E                  645 	.db #0x7E	; 126
   0257 02                  646 	.db #0x02	; 2
   0258 7C                  647 	.db #0x7C	; 124
   0259 04                  648 	.db #0x04	; 4
   025A 78                  649 	.db #0x78	; 120	'x'
   025B 08                  650 	.db #0x08	; 8
   025C 7F                  651 	.db #0x7F	; 127
   025D 1F                  652 	.db #0x1F	; 31
   025E 71                  653 	.db #0x71	; 113	'q'
   025F 11                  654 	.db #0x11	; 17
   0260 7F                  655 	.db #0x7F	; 127
   0261 1F                  656 	.db #0x1F	; 31
   0262 7F                  657 	.db #0x7F	; 127
   0263 00                  658 	.db #0x00	; 0
   0264 7F                  659 	.db #0x7F	; 127
   0265 00                  660 	.db #0x00	; 0
   0266 7F                  661 	.db #0x7F	; 127
   0267 00                  662 	.db #0x00	; 0
   0268 00                  663 	.db #0x00	; 0
   0269 7F                  664 	.db #0x7F	; 127
   026A 00                  665 	.db #0x00	; 0
   026B 00                  666 	.db #0x00	; 0
   026C FE                  667 	.db #0xFE	; 254
   026D 01                  668 	.db #0x01	; 1
   026E FE                  669 	.db #0xFE	; 254
   026F 01                  670 	.db #0x01	; 1
   0270 FE                  671 	.db #0xFE	; 254
   0271 01                  672 	.db #0x01	; 1
   0272 FE                  673 	.db #0xFE	; 254
   0273 F9                  674 	.db #0xF9	; 249
   0274 1E                  675 	.db #0x1E	; 30
   0275 19                  676 	.db #0x19	; 25
   0276 2E                  677 	.db #0x2E	; 46
   0277 29                  678 	.db #0x29	; 41
   0278 5E                  679 	.db #0x5E	; 94
   0279 51                  680 	.db #0x51	; 81	'Q'
   027A BE                  681 	.db #0xBE	; 190
   027B A1                  682 	.db #0xA1	; 161
   027C 7E                  683 	.db #0x7E	; 126
   027D 41                  684 	.db #0x41	; 65	'A'
   027E FE                  685 	.db #0xFE	; 254
   027F 81                  686 	.db #0x81	; 129
   0280 FE                  687 	.db #0xFE	; 254
   0281 01                  688 	.db #0x01	; 1
   0282 FE                  689 	.db #0xFE	; 254
   0283 01                  690 	.db #0x01	; 1
   0284 FE                  691 	.db #0xFE	; 254
   0285 01                  692 	.db #0x01	; 1
   0286 FE                  693 	.db #0xFE	; 254
   0287 01                  694 	.db #0x01	; 1
   0288 00                  695 	.db #0x00	; 0
   0289 FF                  696 	.db #0xFF	; 255
   028A 00                  697 	.db #0x00	; 0
   028B 00                  698 	.db #0x00	; 0
   028C 7F                  699 	.db #0x7F	; 127
   028D 00                  700 	.db #0x00	; 0
   028E 7F                  701 	.db #0x7F	; 127
   028F 20                  702 	.db #0x20	; 32
   0290 7F                  703 	.db #0x7F	; 127
   0291 10                  704 	.db #0x10	; 16
   0292 7F                  705 	.db #0x7F	; 127
   0293 08                  706 	.db #0x08	; 8
   0294 7F                  707 	.db #0x7F	; 127
   0295 04                  708 	.db #0x04	; 4
   0296 7F                  709 	.db #0x7F	; 127
   0297 02                  710 	.db #0x02	; 2
   0298 7F                  711 	.db #0x7F	; 127
   0299 01                  712 	.db #0x01	; 1
   029A 7F                  713 	.db #0x7F	; 127
   029B 00                  714 	.db #0x00	; 0
   029C 7F                  715 	.db #0x7F	; 127
   029D 00                  716 	.db #0x00	; 0
   029E 7F                  717 	.db #0x7F	; 127
   029F 00                  718 	.db #0x00	; 0
   02A0 7F                  719 	.db #0x7F	; 127
   02A1 00                  720 	.db #0x00	; 0
   02A2 7F                  721 	.db #0x7F	; 127
   02A3 00                  722 	.db #0x00	; 0
   02A4 7F                  723 	.db #0x7F	; 127
   02A5 00                  724 	.db #0x00	; 0
   02A6 7F                  725 	.db #0x7F	; 127
   02A7 00                  726 	.db #0x00	; 0
   02A8 00                  727 	.db #0x00	; 0
   02A9 7F                  728 	.db #0x7F	; 127
   02AA 00                  729 	.db #0x00	; 0
   02AB 00                  730 	.db #0x00	; 0
   02AC FE                  731 	.db #0xFE	; 254
   02AD 01                  732 	.db #0x01	; 1
   02AE FE                  733 	.db #0xFE	; 254
   02AF 01                  734 	.db #0x01	; 1
   02B0 FE                  735 	.db #0xFE	; 254
   02B1 01                  736 	.db #0x01	; 1
   02B2 FE                  737 	.db #0xFE	; 254
   02B3 01                  738 	.db #0x01	; 1
   02B4 FE                  739 	.db #0xFE	; 254
   02B5 01                  740 	.db #0x01	; 1
   02B6 FE                  741 	.db #0xFE	; 254
   02B7 01                  742 	.db #0x01	; 1
   02B8 FE                  743 	.db #0xFE	; 254
   02B9 01                  744 	.db #0x01	; 1
   02BA FE                  745 	.db #0xFE	; 254
   02BB 81                  746 	.db #0x81	; 129
   02BC FE                  747 	.db #0xFE	; 254
   02BD 41                  748 	.db #0x41	; 65	'A'
   02BE FE                  749 	.db #0xFE	; 254
   02BF 21                  750 	.db #0x21	; 33
   02C0 FE                  751 	.db #0xFE	; 254
   02C1 11                  752 	.db #0x11	; 17
   02C2 FE                  753 	.db #0xFE	; 254
   02C3 09                  754 	.db #0x09	; 9
   02C4 FE                  755 	.db #0xFE	; 254
   02C5 05                  756 	.db #0x05	; 5
   02C6 FE                  757 	.db #0xFE	; 254
   02C7 01                  758 	.db #0x01	; 1
   02C8 00                  759 	.db #0x00	; 0
   02C9 FF                  760 	.db #0xFF	; 255
   02CA 00                  761 	.db #0x00	; 0
   02CB 00                  762 	.db #0x00	; 0
   02CC 7F                  763 	.db #0x7F	; 127
   02CD 00                  764 	.db #0x00	; 0
   02CE 7F                  765 	.db #0x7F	; 127
   02CF 00                  766 	.db #0x00	; 0
   02D0 7F                  767 	.db #0x7F	; 127
   02D1 1E                  768 	.db #0x1E	; 30
   02D2 7F                  769 	.db #0x7F	; 127
   02D3 01                  770 	.db #0x01	; 1
   02D4 7F                  771 	.db #0x7F	; 127
   02D5 00                  772 	.db #0x00	; 0
   02D6 7F                  773 	.db #0x7F	; 127
   02D7 00                  774 	.db #0x00	; 0
   02D8 7F                  775 	.db #0x7F	; 127
   02D9 00                  776 	.db #0x00	; 0
   02DA 7F                  777 	.db #0x7F	; 127
   02DB 00                  778 	.db #0x00	; 0
   02DC 7F                  779 	.db #0x7F	; 127
   02DD 00                  780 	.db #0x00	; 0
   02DE 7F                  781 	.db #0x7F	; 127
   02DF 00                  782 	.db #0x00	; 0
   02E0 7F                  783 	.db #0x7F	; 127
   02E1 00                  784 	.db #0x00	; 0
   02E2 7F                  785 	.db #0x7F	; 127
   02E3 00                  786 	.db #0x00	; 0
   02E4 7F                  787 	.db #0x7F	; 127
   02E5 00                  788 	.db #0x00	; 0
   02E6 7F                  789 	.db #0x7F	; 127
   02E7 00                  790 	.db #0x00	; 0
   02E8 00                  791 	.db #0x00	; 0
   02E9 7F                  792 	.db #0x7F	; 127
   02EA 00                  793 	.db #0x00	; 0
   02EB 00                  794 	.db #0x00	; 0
   02EC FE                  795 	.db #0xFE	; 254
   02ED 01                  796 	.db #0x01	; 1
   02EE FE                  797 	.db #0xFE	; 254
   02EF 01                  798 	.db #0x01	; 1
   02F0 FE                  799 	.db #0xFE	; 254
   02F1 01                  800 	.db #0x01	; 1
   02F2 FE                  801 	.db #0xFE	; 254
   02F3 81                  802 	.db #0x81	; 129
   02F4 FE                  803 	.db #0xFE	; 254
   02F5 41                  804 	.db #0x41	; 65	'A'
   02F6 FE                  805 	.db #0xFE	; 254
   02F7 21                  806 	.db #0x21	; 33
   02F8 FE                  807 	.db #0xFE	; 254
   02F9 11                  808 	.db #0x11	; 17
   02FA FE                  809 	.db #0xFE	; 254
   02FB 11                  810 	.db #0x11	; 17
   02FC FE                  811 	.db #0xFE	; 254
   02FD 09                  812 	.db #0x09	; 9
   02FE FE                  813 	.db #0xFE	; 254
   02FF 09                  814 	.db #0x09	; 9
   0300 FE                  815 	.db #0xFE	; 254
   0301 09                  816 	.db #0x09	; 9
   0302 FE                  817 	.db #0xFE	; 254
   0303 09                  818 	.db #0x09	; 9
   0304 FE                  819 	.db #0xFE	; 254
   0305 01                  820 	.db #0x01	; 1
   0306 FE                  821 	.db #0xFE	; 254
   0307 01                  822 	.db #0x01	; 1
   0308 00                  823 	.db #0x00	; 0
   0309 FF                  824 	.db #0xFF	; 255
   030A 00                  825 	.db #0x00	; 0
   030B 00                  826 	.db #0x00	; 0
   030C 7F                  827 	.db #0x7F	; 127
   030D 00                  828 	.db #0x00	; 0
   030E 7F                  829 	.db #0x7F	; 127
   030F 00                  830 	.db #0x00	; 0
   0310 7F                  831 	.db #0x7F	; 127
   0311 3F                  832 	.db #0x3F	; 63
   0312 7F                  833 	.db #0x7F	; 127
   0313 20                  834 	.db #0x20	; 32
   0314 7F                  835 	.db #0x7F	; 127
   0315 20                  836 	.db #0x20	; 32
   0316 7F                  837 	.db #0x7F	; 127
   0317 20                  838 	.db #0x20	; 32
   0318 7F                  839 	.db #0x7F	; 127
   0319 20                  840 	.db #0x20	; 32
   031A 7F                  841 	.db #0x7F	; 127
   031B 20                  842 	.db #0x20	; 32
   031C 7F                  843 	.db #0x7F	; 127
   031D 20                  844 	.db #0x20	; 32
   031E 7F                  845 	.db #0x7F	; 127
   031F 20                  846 	.db #0x20	; 32
   0320 7F                  847 	.db #0x7F	; 127
   0321 20                  848 	.db #0x20	; 32
   0322 7F                  849 	.db #0x7F	; 127
   0323 3F                  850 	.db #0x3F	; 63
   0324 7F                  851 	.db #0x7F	; 127
   0325 00                  852 	.db #0x00	; 0
   0326 7F                  853 	.db #0x7F	; 127
   0327 00                  854 	.db #0x00	; 0
   0328 00                  855 	.db #0x00	; 0
   0329 7F                  856 	.db #0x7F	; 127
   032A 00                  857 	.db #0x00	; 0
   032B 00                  858 	.db #0x00	; 0
   032C FE                  859 	.db #0xFE	; 254
   032D 01                  860 	.db #0x01	; 1
   032E FE                  861 	.db #0xFE	; 254
   032F 01                  862 	.db #0x01	; 1
   0330 FE                  863 	.db #0xFE	; 254
   0331 FD                  864 	.db #0xFD	; 253
   0332 FE                  865 	.db #0xFE	; 254
   0333 05                  866 	.db #0x05	; 5
   0334 FE                  867 	.db #0xFE	; 254
   0335 05                  868 	.db #0x05	; 5
   0336 FE                  869 	.db #0xFE	; 254
   0337 05                  870 	.db #0x05	; 5
   0338 FE                  871 	.db #0xFE	; 254
   0339 05                  872 	.db #0x05	; 5
   033A FE                  873 	.db #0xFE	; 254
   033B 05                  874 	.db #0x05	; 5
   033C FE                  875 	.db #0xFE	; 254
   033D 05                  876 	.db #0x05	; 5
   033E FE                  877 	.db #0xFE	; 254
   033F 05                  878 	.db #0x05	; 5
   0340 FE                  879 	.db #0xFE	; 254
   0341 05                  880 	.db #0x05	; 5
   0342 FE                  881 	.db #0xFE	; 254
   0343 FD                  882 	.db #0xFD	; 253
   0344 FE                  883 	.db #0xFE	; 254
   0345 01                  884 	.db #0x01	; 1
   0346 FE                  885 	.db #0xFE	; 254
   0347 01                  886 	.db #0x01	; 1
   0348 00                  887 	.db #0x00	; 0
   0349 FF                  888 	.db #0xFF	; 255
   034A 00                  889 	.db #0x00	; 0
   034B 00                  890 	.db #0x00	; 0
   034C 7F                  891 	.db #0x7F	; 127
   034D 00                  892 	.db #0x00	; 0
   034E 7F                  893 	.db #0x7F	; 127
   034F 00                  894 	.db #0x00	; 0
   0350 7F                  895 	.db #0x7F	; 127
   0351 03                  896 	.db #0x03	; 3
   0352 7F                  897 	.db #0x7F	; 127
   0353 0C                  898 	.db #0x0C	; 12
   0354 7F                  899 	.db #0x7F	; 127
   0355 10                  900 	.db #0x10	; 16
   0356 7F                  901 	.db #0x7F	; 127
   0357 20                  902 	.db #0x20	; 32
   0358 7F                  903 	.db #0x7F	; 127
   0359 20                  904 	.db #0x20	; 32
   035A 7F                  905 	.db #0x7F	; 127
   035B 20                  906 	.db #0x20	; 32
   035C 7F                  907 	.db #0x7F	; 127
   035D 20                  908 	.db #0x20	; 32
   035E 7F                  909 	.db #0x7F	; 127
   035F 10                  910 	.db #0x10	; 16
   0360 7F                  911 	.db #0x7F	; 127
   0361 0C                  912 	.db #0x0C	; 12
   0362 7F                  913 	.db #0x7F	; 127
   0363 03                  914 	.db #0x03	; 3
   0364 7F                  915 	.db #0x7F	; 127
   0365 00                  916 	.db #0x00	; 0
   0366 7F                  917 	.db #0x7F	; 127
   0367 00                  918 	.db #0x00	; 0
   0368 00                  919 	.db #0x00	; 0
   0369 7F                  920 	.db #0x7F	; 127
   036A 00                  921 	.db #0x00	; 0
   036B 00                  922 	.db #0x00	; 0
   036C FE                  923 	.db #0xFE	; 254
   036D 01                  924 	.db #0x01	; 1
   036E FE                  925 	.db #0xFE	; 254
   036F 01                  926 	.db #0x01	; 1
   0370 FE                  927 	.db #0xFE	; 254
   0371 C1                  928 	.db #0xC1	; 193
   0372 FE                  929 	.db #0xFE	; 254
   0373 31                  930 	.db #0x31	; 49	'1'
   0374 FE                  931 	.db #0xFE	; 254
   0375 09                  932 	.db #0x09	; 9
   0376 FE                  933 	.db #0xFE	; 254
   0377 05                  934 	.db #0x05	; 5
   0378 FE                  935 	.db #0xFE	; 254
   0379 05                  936 	.db #0x05	; 5
   037A FE                  937 	.db #0xFE	; 254
   037B 05                  938 	.db #0x05	; 5
   037C FE                  939 	.db #0xFE	; 254
   037D 05                  940 	.db #0x05	; 5
   037E FE                  941 	.db #0xFE	; 254
   037F 09                  942 	.db #0x09	; 9
   0380 FE                  943 	.db #0xFE	; 254
   0381 31                  944 	.db #0x31	; 49	'1'
   0382 FE                  945 	.db #0xFE	; 254
   0383 C1                  946 	.db #0xC1	; 193
   0384 FE                  947 	.db #0xFE	; 254
   0385 01                  948 	.db #0x01	; 1
   0386 FE                  949 	.db #0xFE	; 254
   0387 01                  950 	.db #0x01	; 1
   0388 00                  951 	.db #0x00	; 0
   0389 FF                  952 	.db #0xFF	; 255
   038A 00                  953 	.db #0x00	; 0
   038B 00                  954 	.db #0x00	; 0
   038C 7F                  955 	.db #0x7F	; 127
   038D 00                  956 	.db #0x00	; 0
   038E 7F                  957 	.db #0x7F	; 127
   038F 00                  958 	.db #0x00	; 0
   0390 7F                  959 	.db #0x7F	; 127
   0391 3F                  960 	.db #0x3F	; 63
   0392 6A                  961 	.db #0x6A	; 106	'j'
   0393 3F                  962 	.db #0x3F	; 63
   0394 75                  963 	.db #0x75	; 117	'u'
   0395 3F                  964 	.db #0x3F	; 63
   0396 6A                  965 	.db #0x6A	; 106	'j'
   0397 3F                  966 	.db #0x3F	; 63
   0398 75                  967 	.db #0x75	; 117	'u'
   0399 3F                  968 	.db #0x3F	; 63
   039A 6A                  969 	.db #0x6A	; 106	'j'
   039B 3F                  970 	.db #0x3F	; 63
   039C 75                  971 	.db #0x75	; 117	'u'
   039D 3F                  972 	.db #0x3F	; 63
   039E 6A                  973 	.db #0x6A	; 106	'j'
   039F 3F                  974 	.db #0x3F	; 63
   03A0 75                  975 	.db #0x75	; 117	'u'
   03A1 3F                  976 	.db #0x3F	; 63
   03A2 7F                  977 	.db #0x7F	; 127
   03A3 3F                  978 	.db #0x3F	; 63
   03A4 7F                  979 	.db #0x7F	; 127
   03A5 00                  980 	.db #0x00	; 0
   03A6 7F                  981 	.db #0x7F	; 127
   03A7 00                  982 	.db #0x00	; 0
   03A8 00                  983 	.db #0x00	; 0
   03A9 7F                  984 	.db #0x7F	; 127
   03AA 00                  985 	.db #0x00	; 0
   03AB 00                  986 	.db #0x00	; 0
   03AC FE                  987 	.db #0xFE	; 254
   03AD 01                  988 	.db #0x01	; 1
   03AE FE                  989 	.db #0xFE	; 254
   03AF 01                  990 	.db #0x01	; 1
   03B0 FE                  991 	.db #0xFE	; 254
   03B1 FD                  992 	.db #0xFD	; 253
   03B2 AE                  993 	.db #0xAE	; 174
   03B3 FD                  994 	.db #0xFD	; 253
   03B4 56                  995 	.db #0x56	; 86	'V'
   03B5 FD                  996 	.db #0xFD	; 253
   03B6 AE                  997 	.db #0xAE	; 174
   03B7 FD                  998 	.db #0xFD	; 253
   03B8 56                  999 	.db #0x56	; 86	'V'
   03B9 FD                 1000 	.db #0xFD	; 253
   03BA AE                 1001 	.db #0xAE	; 174
   03BB FD                 1002 	.db #0xFD	; 253
   03BC 56                 1003 	.db #0x56	; 86	'V'
   03BD FD                 1004 	.db #0xFD	; 253
   03BE AE                 1005 	.db #0xAE	; 174
   03BF FD                 1006 	.db #0xFD	; 253
   03C0 56                 1007 	.db #0x56	; 86	'V'
   03C1 FD                 1008 	.db #0xFD	; 253
   03C2 FE                 1009 	.db #0xFE	; 254
   03C3 FD                 1010 	.db #0xFD	; 253
   03C4 FE                 1011 	.db #0xFE	; 254
   03C5 01                 1012 	.db #0x01	; 1
   03C6 FE                 1013 	.db #0xFE	; 254
   03C7 01                 1014 	.db #0x01	; 1
   03C8 00                 1015 	.db #0x00	; 0
   03C9 FF                 1016 	.db #0xFF	; 255
   03CA 00                 1017 	.db #0x00	; 0
   03CB 00                 1018 	.db #0x00	; 0
   03CC 7F                 1019 	.db #0x7F	; 127
   03CD 00                 1020 	.db #0x00	; 0
   03CE 7F                 1021 	.db #0x7F	; 127
   03CF 00                 1022 	.db #0x00	; 0
   03D0 7F                 1023 	.db #0x7F	; 127
   03D1 03                 1024 	.db #0x03	; 3
   03D2 7E                 1025 	.db #0x7E	; 126
   03D3 0F                 1026 	.db #0x0F	; 15
   03D4 75                 1027 	.db #0x75	; 117	'u'
   03D5 1F                 1028 	.db #0x1F	; 31
   03D6 6A                 1029 	.db #0x6A	; 106	'j'
   03D7 3F                 1030 	.db #0x3F	; 63
   03D8 75                 1031 	.db #0x75	; 117	'u'
   03D9 3F                 1032 	.db #0x3F	; 63
   03DA 6A                 1033 	.db #0x6A	; 106	'j'
   03DB 3F                 1034 	.db #0x3F	; 63
   03DC 75                 1035 	.db #0x75	; 117	'u'
   03DD 3F                 1036 	.db #0x3F	; 63
   03DE 7A                 1037 	.db #0x7A	; 122	'z'
   03DF 1F                 1038 	.db #0x1F	; 31
   03E0 7D                 1039 	.db #0x7D	; 125
   03E1 0F                 1040 	.db #0x0F	; 15
   03E2 7F                 1041 	.db #0x7F	; 127
   03E3 03                 1042 	.db #0x03	; 3
   03E4 7F                 1043 	.db #0x7F	; 127
   03E5 00                 1044 	.db #0x00	; 0
   03E6 7F                 1045 	.db #0x7F	; 127
   03E7 00                 1046 	.db #0x00	; 0
   03E8 00                 1047 	.db #0x00	; 0
   03E9 7F                 1048 	.db #0x7F	; 127
   03EA 00                 1049 	.db #0x00	; 0
   03EB 00                 1050 	.db #0x00	; 0
   03EC FE                 1051 	.db #0xFE	; 254
   03ED 01                 1052 	.db #0x01	; 1
   03EE FE                 1053 	.db #0xFE	; 254
   03EF 01                 1054 	.db #0x01	; 1
   03F0 FE                 1055 	.db #0xFE	; 254
   03F1 C1                 1056 	.db #0xC1	; 193
   03F2 BE                 1057 	.db #0xBE	; 190
   03F3 F1                 1058 	.db #0xF1	; 241
   03F4 5E                 1059 	.db #0x5E	; 94
   03F5 F9                 1060 	.db #0xF9	; 249
   03F6 AE                 1061 	.db #0xAE	; 174
   03F7 FD                 1062 	.db #0xFD	; 253
   03F8 56                 1063 	.db #0x56	; 86	'V'
   03F9 FD                 1064 	.db #0xFD	; 253
   03FA AE                 1065 	.db #0xAE	; 174
   03FB FD                 1066 	.db #0xFD	; 253
   03FC 56                 1067 	.db #0x56	; 86	'V'
   03FD FD                 1068 	.db #0xFD	; 253
   03FE AE                 1069 	.db #0xAE	; 174
   03FF F9                 1070 	.db #0xF9	; 249
   0400 7E                 1071 	.db #0x7E	; 126
   0401 F1                 1072 	.db #0xF1	; 241
   0402 FE                 1073 	.db #0xFE	; 254
   0403 C1                 1074 	.db #0xC1	; 193
   0404 FE                 1075 	.db #0xFE	; 254
   0405 01                 1076 	.db #0x01	; 1
   0406 FE                 1077 	.db #0xFE	; 254
   0407 01                 1078 	.db #0x01	; 1
   0408 00                 1079 	.db #0x00	; 0
   0409 FF                 1080 	.db #0xFF	; 255
   040A 00                 1081 	.db #0x00	; 0
   040B 00                 1082 	.db #0x00	; 0
   040C 7F                 1083 	.db #0x7F	; 127
   040D 7F                 1084 	.db #0x7F	; 127
   040E 40                 1085 	.db #0x40	; 64
   040F 40                 1086 	.db #0x40	; 64
   0410 40                 1087 	.db #0x40	; 64
   0411 40                 1088 	.db #0x40	; 64
   0412 40                 1089 	.db #0x40	; 64
   0413 40                 1090 	.db #0x40	; 64
   0414 40                 1091 	.db #0x40	; 64
   0415 40                 1092 	.db #0x40	; 64
   0416 40                 1093 	.db #0x40	; 64
   0417 40                 1094 	.db #0x40	; 64
   0418 40                 1095 	.db #0x40	; 64
   0419 40                 1096 	.db #0x40	; 64
   041A 40                 1097 	.db #0x40	; 64
   041B 7F                 1098 	.db #0x7F	; 127
   041C 40                 1099 	.db #0x40	; 64
   041D 7F                 1100 	.db #0x7F	; 127
   041E 40                 1101 	.db #0x40	; 64
   041F 7F                 1102 	.db #0x7F	; 127
   0420 40                 1103 	.db #0x40	; 64
   0421 7F                 1104 	.db #0x7F	; 127
   0422 40                 1105 	.db #0x40	; 64
   0423 7F                 1106 	.db #0x7F	; 127
   0424 40                 1107 	.db #0x40	; 64
   0425 7F                 1108 	.db #0x7F	; 127
   0426 7F                 1109 	.db #0x7F	; 127
   0427 7F                 1110 	.db #0x7F	; 127
   0428 00                 1111 	.db #0x00	; 0
   0429 7F                 1112 	.db #0x7F	; 127
   042A 00                 1113 	.db #0x00	; 0
   042B 00                 1114 	.db #0x00	; 0
   042C FE                 1115 	.db #0xFE	; 254
   042D FF                 1116 	.db #0xFF	; 255
   042E FE                 1117 	.db #0xFE	; 254
   042F 03                 1118 	.db #0x03	; 3
   0430 FE                 1119 	.db #0xFE	; 254
   0431 03                 1120 	.db #0x03	; 3
   0432 FE                 1121 	.db #0xFE	; 254
   0433 03                 1122 	.db #0x03	; 3
   0434 FE                 1123 	.db #0xFE	; 254
   0435 03                 1124 	.db #0x03	; 3
   0436 FE                 1125 	.db #0xFE	; 254
   0437 03                 1126 	.db #0x03	; 3
   0438 FE                 1127 	.db #0xFE	; 254
   0439 03                 1128 	.db #0x03	; 3
   043A FE                 1129 	.db #0xFE	; 254
   043B FF                 1130 	.db #0xFF	; 255
   043C FE                 1131 	.db #0xFE	; 254
   043D FF                 1132 	.db #0xFF	; 255
   043E FE                 1133 	.db #0xFE	; 254
   043F FF                 1134 	.db #0xFF	; 255
   0440 FE                 1135 	.db #0xFE	; 254
   0441 FF                 1136 	.db #0xFF	; 255
   0442 FE                 1137 	.db #0xFE	; 254
   0443 FF                 1138 	.db #0xFF	; 255
   0444 FE                 1139 	.db #0xFE	; 254
   0445 FF                 1140 	.db #0xFF	; 255
   0446 FE                 1141 	.db #0xFE	; 254
   0447 FF                 1142 	.db #0xFF	; 255
   0448 00                 1143 	.db #0x00	; 0
   0449 FF                 1144 	.db #0xFF	; 255
   044A 00                 1145 	.db #0x00	; 0
   044B 00                 1146 	.db #0x00	; 0
   044C 7F                 1147 	.db #0x7F	; 127
   044D 00                 1148 	.db #0x00	; 0
   044E 7F                 1149 	.db #0x7F	; 127
   044F 0C                 1150 	.db #0x0C	; 12
   0450 7F                 1151 	.db #0x7F	; 127
   0451 10                 1152 	.db #0x10	; 16
   0452 7F                 1153 	.db #0x7F	; 127
   0453 08                 1154 	.db #0x08	; 8
   0454 7F                 1155 	.db #0x7F	; 127
   0455 04                 1156 	.db #0x04	; 4
   0456 7F                 1157 	.db #0x7F	; 127
   0457 18                 1158 	.db #0x18	; 24
   0458 7F                 1159 	.db #0x7F	; 127
   0459 00                 1160 	.db #0x00	; 0
   045A 7F                 1161 	.db #0x7F	; 127
   045B 00                 1162 	.db #0x00	; 0
   045C 7F                 1163 	.db #0x7F	; 127
   045D 08                 1164 	.db #0x08	; 8
   045E 7F                 1165 	.db #0x7F	; 127
   045F 14                 1166 	.db #0x14	; 20
   0460 7F                 1167 	.db #0x7F	; 127
   0461 14                 1168 	.db #0x14	; 20
   0462 7F                 1169 	.db #0x7F	; 127
   0463 14                 1170 	.db #0x14	; 20
   0464 7F                 1171 	.db #0x7F	; 127
   0465 08                 1172 	.db #0x08	; 8
   0466 7F                 1173 	.db #0x7F	; 127
   0467 00                 1174 	.db #0x00	; 0
   0468 00                 1175 	.db #0x00	; 0
   0469 7F                 1176 	.db #0x7F	; 127
   046A 00                 1177 	.db #0x00	; 0
   046B 01                 1178 	.db #0x01	; 1
   046C FE                 1179 	.db #0xFE	; 254
   046D 01                 1180 	.db #0x01	; 1
   046E FE                 1181 	.db #0xFE	; 254
   046F 29                 1182 	.db #0x29	; 41
   0470 FE                 1183 	.db #0xFE	; 254
   0471 29                 1184 	.db #0x29	; 41
   0472 FE                 1185 	.db #0xFE	; 254
   0473 11                 1186 	.db #0x11	; 17
   0474 FE                 1187 	.db #0xFE	; 254
   0475 29                 1188 	.db #0x29	; 41
   0476 FE                 1189 	.db #0xFE	; 254
   0477 29                 1190 	.db #0x29	; 41
   0478 FE                 1191 	.db #0xFE	; 254
   0479 01                 1192 	.db #0x01	; 1
   047A FE                 1193 	.db #0xFE	; 254
   047B 01                 1194 	.db #0x01	; 1
   047C FE                 1195 	.db #0xFE	; 254
   047D 11                 1196 	.db #0x11	; 17
   047E FE                 1197 	.db #0xFE	; 254
   047F 29                 1198 	.db #0x29	; 41
   0480 FE                 1199 	.db #0xFE	; 254
   0481 39                 1200 	.db #0x39	; 57	'9'
   0482 FE                 1201 	.db #0xFE	; 254
   0483 29                 1202 	.db #0x29	; 41
   0484 FE                 1203 	.db #0xFE	; 254
   0485 29                 1204 	.db #0x29	; 41
   0486 FE                 1205 	.db #0xFE	; 254
   0487 01                 1206 	.db #0x01	; 1
   0488 00                 1207 	.db #0x00	; 0
   0489 FF                 1208 	.db #0xFF	; 255
   048A                    1209 _selected_data:
   048A FF                 1210 	.db #0xFF	; 255
   048B FF                 1211 	.db #0xFF	; 255
   048C 80                 1212 	.db #0x80	; 128
   048D FF                 1213 	.db #0xFF	; 255
   048E 80                 1214 	.db #0x80	; 128
   048F FF                 1215 	.db #0xFF	; 255
   0490 80                 1216 	.db #0x80	; 128
   0491 FF                 1217 	.db #0xFF	; 255
   0492 80                 1218 	.db #0x80	; 128
   0493 FF                 1219 	.db #0xFF	; 255
   0494 80                 1220 	.db #0x80	; 128
   0495 FF                 1221 	.db #0xFF	; 255
   0496 80                 1222 	.db #0x80	; 128
   0497 FF                 1223 	.db #0xFF	; 255
   0498 80                 1224 	.db #0x80	; 128
   0499 FE                 1225 	.db #0xFE	; 254
   049A 81                 1226 	.db #0x81	; 129
   049B FD                 1227 	.db #0xFD	; 253
   049C 82                 1228 	.db #0x82	; 130
   049D FA                 1229 	.db #0xFA	; 250
   049E 84                 1230 	.db #0x84	; 132
   049F F5                 1231 	.db #0xF5	; 245
   04A0 88                 1232 	.db #0x88	; 136
   04A1 EB                 1233 	.db #0xEB	; 235
   04A2 80                 1234 	.db #0x80	; 128
   04A3 E7                 1235 	.db #0xE7	; 231
   04A4 80                 1236 	.db #0x80	; 128
   04A5 D8                 1237 	.db #0xD8	; 216
   04A6 80                 1238 	.db #0x80	; 128
   04A7 FF                 1239 	.db #0xFF	; 255
   04A8 FF                 1240 	.db #0xFF	; 255
   04A9 80                 1241 	.db #0x80	; 128
   04AA FF                 1242 	.db #0xFF	; 255
   04AB FF                 1243 	.db #0xFF	; 255
   04AC 01                 1244 	.db #0x01	; 1
   04AD FE                 1245 	.db #0xFE	; 254
   04AE 01                 1246 	.db #0x01	; 1
   04AF F2                 1247 	.db #0xF2	; 242
   04B0 09                 1248 	.db #0x09	; 9
   04B1 EA                 1249 	.db #0xEA	; 234
   04B2 11                 1250 	.db #0x11	; 17
   04B3 D6                 1251 	.db #0xD6	; 214
   04B4 21                 1252 	.db #0x21	; 33
   04B5 AE                 1253 	.db #0xAE	; 174
   04B6 41                 1254 	.db #0x41	; 65	'A'
   04B7 5E                 1255 	.db #0x5E	; 94
   04B8 81                 1256 	.db #0x81	; 129
   04B9 BE                 1257 	.db #0xBE	; 190
   04BA 01                 1258 	.db #0x01	; 1
   04BB 7E                 1259 	.db #0x7E	; 126
   04BC 01                 1260 	.db #0x01	; 1
   04BD FE                 1261 	.db #0xFE	; 254
   04BE 01                 1262 	.db #0x01	; 1
   04BF FE                 1263 	.db #0xFE	; 254
   04C0 01                 1264 	.db #0x01	; 1
   04C1 FE                 1265 	.db #0xFE	; 254
   04C2 01                 1266 	.db #0x01	; 1
   04C3 FE                 1267 	.db #0xFE	; 254
   04C4 01                 1268 	.db #0x01	; 1
   04C5 02                 1269 	.db #0x02	; 2
   04C6 01                 1270 	.db #0x01	; 1
   04C7 FE                 1271 	.db #0xFE	; 254
   04C8 FF                 1272 	.db #0xFF	; 255
   04C9 00                 1273 	.db #0x00	; 0
   04CA FF                 1274 	.db #0xFF	; 255
   04CB FF                 1275 	.db #0xFF	; 255
   04CC 80                 1276 	.db #0x80	; 128
   04CD FF                 1277 	.db #0xFF	; 255
   04CE 80                 1278 	.db #0x80	; 128
   04CF FF                 1279 	.db #0xFF	; 255
   04D0 80                 1280 	.db #0x80	; 128
   04D1 FF                 1281 	.db #0xFF	; 255
   04D2 80                 1282 	.db #0x80	; 128
   04D3 FF                 1283 	.db #0xFF	; 255
   04D4 80                 1284 	.db #0x80	; 128
   04D5 FF                 1285 	.db #0xFF	; 255
   04D6 80                 1286 	.db #0x80	; 128
   04D7 FF                 1287 	.db #0xFF	; 255
   04D8 80                 1288 	.db #0x80	; 128
   04D9 FE                 1289 	.db #0xFE	; 254
   04DA 81                 1290 	.db #0x81	; 129
   04DB FD                 1291 	.db #0xFD	; 253
   04DC 82                 1292 	.db #0x82	; 130
   04DD F2                 1293 	.db #0xF2	; 242
   04DE 80                 1294 	.db #0x80	; 128
   04DF E1                 1295 	.db #0xE1	; 225
   04E0 80                 1296 	.db #0x80	; 128
   04E1 E1                 1297 	.db #0xE1	; 225
   04E2 80                 1298 	.db #0x80	; 128
   04E3 E2                 1299 	.db #0xE2	; 226
   04E4 80                 1300 	.db #0x80	; 128
   04E5 EE                 1301 	.db #0xEE	; 238
   04E6 80                 1302 	.db #0x80	; 128
   04E7 FF                 1303 	.db #0xFF	; 255
   04E8 FF                 1304 	.db #0xFF	; 255
   04E9 80                 1305 	.db #0x80	; 128
   04EA FF                 1306 	.db #0xFF	; 255
   04EB FF                 1307 	.db #0xFF	; 255
   04EC 01                 1308 	.db #0x01	; 1
   04ED FE                 1309 	.db #0xFE	; 254
   04EE 01                 1310 	.db #0x01	; 1
   04EF F2                 1311 	.db #0xF2	; 242
   04F0 09                 1312 	.db #0x09	; 9
   04F1 EA                 1313 	.db #0xEA	; 234
   04F2 11                 1314 	.db #0x11	; 17
   04F3 D6                 1315 	.db #0xD6	; 214
   04F4 21                 1316 	.db #0x21	; 33
   04F5 AE                 1317 	.db #0xAE	; 174
   04F6 41                 1318 	.db #0x41	; 65	'A'
   04F7 5E                 1319 	.db #0x5E	; 94
   04F8 81                 1320 	.db #0x81	; 129
   04F9 BE                 1321 	.db #0xBE	; 190
   04FA 01                 1322 	.db #0x01	; 1
   04FB 7E                 1323 	.db #0x7E	; 126
   04FC 01                 1324 	.db #0x01	; 1
   04FD FE                 1325 	.db #0xFE	; 254
   04FE 01                 1326 	.db #0x01	; 1
   04FF FE                 1327 	.db #0xFE	; 254
   0500 01                 1328 	.db #0x01	; 1
   0501 FE                 1329 	.db #0xFE	; 254
   0502 01                 1330 	.db #0x01	; 1
   0503 02                 1331 	.db #0x02	; 2
   0504 01                 1332 	.db #0x01	; 1
   0505 02                 1333 	.db #0x02	; 2
   0506 01                 1334 	.db #0x01	; 1
   0507 FE                 1335 	.db #0xFE	; 254
   0508 FF                 1336 	.db #0xFF	; 255
   0509 00                 1337 	.db #0x00	; 0
   050A FF                 1338 	.db #0xFF	; 255
   050B FF                 1339 	.db #0xFF	; 255
   050C 80                 1340 	.db #0x80	; 128
   050D FF                 1341 	.db #0xFF	; 255
   050E 80                 1342 	.db #0x80	; 128
   050F FF                 1343 	.db #0xFF	; 255
   0510 80                 1344 	.db #0x80	; 128
   0511 FE                 1345 	.db #0xFE	; 254
   0512 80                 1346 	.db #0x80	; 128
   0513 FD                 1347 	.db #0xFD	; 253
   0514 81                 1348 	.db #0x81	; 129
   0515 F3                 1349 	.db #0xF3	; 243
   0516 82                 1350 	.db #0x82	; 130
   0517 E7                 1351 	.db #0xE7	; 231
   0518 81                 1352 	.db #0x81	; 129
   0519 E2                 1353 	.db #0xE2	; 226
   051A 80                 1354 	.db #0x80	; 128
   051B E4                 1355 	.db #0xE4	; 228
   051C 80                 1356 	.db #0x80	; 128
   051D E7                 1357 	.db #0xE7	; 231
   051E 80                 1358 	.db #0x80	; 128
   051F E7                 1359 	.db #0xE7	; 231
   0520 80                 1360 	.db #0x80	; 128
   0521 F7                 1361 	.db #0xF7	; 247
   0522 80                 1362 	.db #0x80	; 128
   0523 F7                 1363 	.db #0xF7	; 247
   0524 80                 1364 	.db #0x80	; 128
   0525 F7                 1365 	.db #0xF7	; 247
   0526 80                 1366 	.db #0x80	; 128
   0527 FF                 1367 	.db #0xFF	; 255
   0528 FF                 1368 	.db #0xFF	; 255
   0529 80                 1369 	.db #0x80	; 128
   052A FF                 1370 	.db #0xFF	; 255
   052B FF                 1371 	.db #0xFF	; 255
   052C 01                 1372 	.db #0x01	; 1
   052D FE                 1373 	.db #0xFE	; 254
   052E 01                 1374 	.db #0x01	; 1
   052F 7E                 1375 	.db #0x7E	; 126
   0530 01                 1376 	.db #0x01	; 1
   0531 BE                 1377 	.db #0xBE	; 190
   0532 81                 1378 	.db #0x81	; 129
   0533 DE                 1379 	.db #0xDE	; 222
   0534 41                 1380 	.db #0x41	; 65	'A'
   0535 8E                 1381 	.db #0x8E	; 142
   0536 A1                 1382 	.db #0xA1	; 161
   0537 16                 1383 	.db #0x16	; 22
   0538 51                 1384 	.db #0x51	; 81	'Q'
   0539 3A                 1385 	.db #0x3A	; 58
   053A A1                 1386 	.db #0xA1	; 161
   053B 76                 1387 	.db #0x76	; 118	'v'
   053C 41                 1388 	.db #0x41	; 65	'A'
   053D EE                 1389 	.db #0xEE	; 238
   053E 01                 1390 	.db #0x01	; 1
   053F 5E                 1391 	.db #0x5E	; 94
   0540 01                 1392 	.db #0x01	; 1
   0541 BE                 1393 	.db #0xBE	; 190
   0542 01                 1394 	.db #0x01	; 1
   0543 FE                 1395 	.db #0xFE	; 254
   0544 01                 1396 	.db #0x01	; 1
   0545 FE                 1397 	.db #0xFE	; 254
   0546 01                 1398 	.db #0x01	; 1
   0547 FE                 1399 	.db #0xFE	; 254
   0548 FF                 1400 	.db #0xFF	; 255
   0549 00                 1401 	.db #0x00	; 0
   054A FF                 1402 	.db #0xFF	; 255
   054B FF                 1403 	.db #0xFF	; 255
   054C 80                 1404 	.db #0x80	; 128
   054D FF                 1405 	.db #0xFF	; 255
   054E 80                 1406 	.db #0x80	; 128
   054F FF                 1407 	.db #0xFF	; 255
   0550 80                 1408 	.db #0x80	; 128
   0551 FF                 1409 	.db #0xFF	; 255
   0552 80                 1410 	.db #0x80	; 128
   0553 FF                 1411 	.db #0xFF	; 255
   0554 80                 1412 	.db #0x80	; 128
   0555 FE                 1413 	.db #0xFE	; 254
   0556 81                 1414 	.db #0x81	; 129
   0557 FD                 1415 	.db #0xFD	; 253
   0558 83                 1416 	.db #0x83	; 131
   0559 FB                 1417 	.db #0xFB	; 251
   055A 87                 1418 	.db #0x87	; 135
   055B F7                 1419 	.db #0xF7	; 247
   055C 80                 1420 	.db #0x80	; 128
   055D E0                 1421 	.db #0xE0	; 224
   055E 8E                 1422 	.db #0x8E	; 142
   055F EE                 1423 	.db #0xEE	; 238
   0560 80                 1424 	.db #0x80	; 128
   0561 E0                 1425 	.db #0xE0	; 224
   0562 80                 1426 	.db #0x80	; 128
   0563 FF                 1427 	.db #0xFF	; 255
   0564 80                 1428 	.db #0x80	; 128
   0565 FF                 1429 	.db #0xFF	; 255
   0566 80                 1430 	.db #0x80	; 128
   0567 FF                 1431 	.db #0xFF	; 255
   0568 FF                 1432 	.db #0xFF	; 255
   0569 80                 1433 	.db #0x80	; 128
   056A FF                 1434 	.db #0xFF	; 255
   056B FF                 1435 	.db #0xFF	; 255
   056C 01                 1436 	.db #0x01	; 1
   056D FE                 1437 	.db #0xFE	; 254
   056E 01                 1438 	.db #0x01	; 1
   056F FE                 1439 	.db #0xFE	; 254
   0570 01                 1440 	.db #0x01	; 1
   0571 FE                 1441 	.db #0xFE	; 254
   0572 01                 1442 	.db #0x01	; 1
   0573 06                 1443 	.db #0x06	; 6
   0574 E1                 1444 	.db #0xE1	; 225
   0575 E6                 1445 	.db #0xE6	; 230
   0576 D1                 1446 	.db #0xD1	; 209
   0577 D6                 1447 	.db #0xD6	; 214
   0578 A1                 1448 	.db #0xA1	; 161
   0579 AE                 1449 	.db #0xAE	; 174
   057A 41                 1450 	.db #0x41	; 65	'A'
   057B 5E                 1451 	.db #0x5E	; 94
   057C 81                 1452 	.db #0x81	; 129
   057D BE                 1453 	.db #0xBE	; 190
   057E 01                 1454 	.db #0x01	; 1
   057F 7E                 1455 	.db #0x7E	; 126
   0580 01                 1456 	.db #0x01	; 1
   0581 FE                 1457 	.db #0xFE	; 254
   0582 01                 1458 	.db #0x01	; 1
   0583 FE                 1459 	.db #0xFE	; 254
   0584 01                 1460 	.db #0x01	; 1
   0585 FE                 1461 	.db #0xFE	; 254
   0586 01                 1462 	.db #0x01	; 1
   0587 FE                 1463 	.db #0xFE	; 254
   0588 FF                 1464 	.db #0xFF	; 255
   0589 00                 1465 	.db #0x00	; 0
   058A FF                 1466 	.db #0xFF	; 255
   058B FF                 1467 	.db #0xFF	; 255
   058C 80                 1468 	.db #0x80	; 128
   058D FF                 1469 	.db #0xFF	; 255
   058E 80                 1470 	.db #0x80	; 128
   058F DF                 1471 	.db #0xDF	; 223
   0590 80                 1472 	.db #0x80	; 128
   0591 EF                 1473 	.db #0xEF	; 239
   0592 80                 1474 	.db #0x80	; 128
   0593 F7                 1475 	.db #0xF7	; 247
   0594 80                 1476 	.db #0x80	; 128
   0595 FB                 1477 	.db #0xFB	; 251
   0596 80                 1478 	.db #0x80	; 128
   0597 FD                 1479 	.db #0xFD	; 253
   0598 80                 1480 	.db #0x80	; 128
   0599 FE                 1481 	.db #0xFE	; 254
   059A 80                 1482 	.db #0x80	; 128
   059B FF                 1483 	.db #0xFF	; 255
   059C 80                 1484 	.db #0x80	; 128
   059D FF                 1485 	.db #0xFF	; 255
   059E 80                 1486 	.db #0x80	; 128
   059F FF                 1487 	.db #0xFF	; 255
   05A0 80                 1488 	.db #0x80	; 128
   05A1 FF                 1489 	.db #0xFF	; 255
   05A2 80                 1490 	.db #0x80	; 128
   05A3 FF                 1491 	.db #0xFF	; 255
   05A4 80                 1492 	.db #0x80	; 128
   05A5 FF                 1493 	.db #0xFF	; 255
   05A6 80                 1494 	.db #0x80	; 128
   05A7 FF                 1495 	.db #0xFF	; 255
   05A8 FF                 1496 	.db #0xFF	; 255
   05A9 80                 1497 	.db #0x80	; 128
   05AA FF                 1498 	.db #0xFF	; 255
   05AB FF                 1499 	.db #0xFF	; 255
   05AC 01                 1500 	.db #0x01	; 1
   05AD FE                 1501 	.db #0xFE	; 254
   05AE 01                 1502 	.db #0x01	; 1
   05AF FE                 1503 	.db #0xFE	; 254
   05B0 01                 1504 	.db #0x01	; 1
   05B1 FE                 1505 	.db #0xFE	; 254
   05B2 01                 1506 	.db #0x01	; 1
   05B3 FE                 1507 	.db #0xFE	; 254
   05B4 01                 1508 	.db #0x01	; 1
   05B5 FE                 1509 	.db #0xFE	; 254
   05B6 01                 1510 	.db #0x01	; 1
   05B7 FE                 1511 	.db #0xFE	; 254
   05B8 01                 1512 	.db #0x01	; 1
   05B9 FE                 1513 	.db #0xFE	; 254
   05BA 01                 1514 	.db #0x01	; 1
   05BB 7E                 1515 	.db #0x7E	; 126
   05BC 01                 1516 	.db #0x01	; 1
   05BD BE                 1517 	.db #0xBE	; 190
   05BE 01                 1518 	.db #0x01	; 1
   05BF DE                 1519 	.db #0xDE	; 222
   05C0 01                 1520 	.db #0x01	; 1
   05C1 EE                 1521 	.db #0xEE	; 238
   05C2 01                 1522 	.db #0x01	; 1
   05C3 F6                 1523 	.db #0xF6	; 246
   05C4 01                 1524 	.db #0x01	; 1
   05C5 FA                 1525 	.db #0xFA	; 250
   05C6 01                 1526 	.db #0x01	; 1
   05C7 FE                 1527 	.db #0xFE	; 254
   05C8 FF                 1528 	.db #0xFF	; 255
   05C9 00                 1529 	.db #0x00	; 0
   05CA FF                 1530 	.db #0xFF	; 255
   05CB FF                 1531 	.db #0xFF	; 255
   05CC 80                 1532 	.db #0x80	; 128
   05CD FF                 1533 	.db #0xFF	; 255
   05CE 80                 1534 	.db #0x80	; 128
   05CF FF                 1535 	.db #0xFF	; 255
   05D0 80                 1536 	.db #0x80	; 128
   05D1 E1                 1537 	.db #0xE1	; 225
   05D2 80                 1538 	.db #0x80	; 128
   05D3 FE                 1539 	.db #0xFE	; 254
   05D4 80                 1540 	.db #0x80	; 128
   05D5 FF                 1541 	.db #0xFF	; 255
   05D6 80                 1542 	.db #0x80	; 128
   05D7 FF                 1543 	.db #0xFF	; 255
   05D8 80                 1544 	.db #0x80	; 128
   05D9 FF                 1545 	.db #0xFF	; 255
   05DA 80                 1546 	.db #0x80	; 128
   05DB FF                 1547 	.db #0xFF	; 255
   05DC 80                 1548 	.db #0x80	; 128
   05DD FF                 1549 	.db #0xFF	; 255
   05DE 80                 1550 	.db #0x80	; 128
   05DF FF                 1551 	.db #0xFF	; 255
   05E0 80                 1552 	.db #0x80	; 128
   05E1 FF                 1553 	.db #0xFF	; 255
   05E2 80                 1554 	.db #0x80	; 128
   05E3 FF                 1555 	.db #0xFF	; 255
   05E4 80                 1556 	.db #0x80	; 128
   05E5 FF                 1557 	.db #0xFF	; 255
   05E6 80                 1558 	.db #0x80	; 128
   05E7 FF                 1559 	.db #0xFF	; 255
   05E8 FF                 1560 	.db #0xFF	; 255
   05E9 80                 1561 	.db #0x80	; 128
   05EA FF                 1562 	.db #0xFF	; 255
   05EB FF                 1563 	.db #0xFF	; 255
   05EC 01                 1564 	.db #0x01	; 1
   05ED FE                 1565 	.db #0xFE	; 254
   05EE 01                 1566 	.db #0x01	; 1
   05EF FE                 1567 	.db #0xFE	; 254
   05F0 01                 1568 	.db #0x01	; 1
   05F1 FE                 1569 	.db #0xFE	; 254
   05F2 01                 1570 	.db #0x01	; 1
   05F3 7E                 1571 	.db #0x7E	; 126
   05F4 01                 1572 	.db #0x01	; 1
   05F5 BE                 1573 	.db #0xBE	; 190
   05F6 01                 1574 	.db #0x01	; 1
   05F7 DE                 1575 	.db #0xDE	; 222
   05F8 01                 1576 	.db #0x01	; 1
   05F9 EE                 1577 	.db #0xEE	; 238
   05FA 01                 1578 	.db #0x01	; 1
   05FB EE                 1579 	.db #0xEE	; 238
   05FC 01                 1580 	.db #0x01	; 1
   05FD F6                 1581 	.db #0xF6	; 246
   05FE 01                 1582 	.db #0x01	; 1
   05FF F6                 1583 	.db #0xF6	; 246
   0600 01                 1584 	.db #0x01	; 1
   0601 F6                 1585 	.db #0xF6	; 246
   0602 01                 1586 	.db #0x01	; 1
   0603 F6                 1587 	.db #0xF6	; 246
   0604 01                 1588 	.db #0x01	; 1
   0605 FE                 1589 	.db #0xFE	; 254
   0606 01                 1590 	.db #0x01	; 1
   0607 FE                 1591 	.db #0xFE	; 254
   0608 FF                 1592 	.db #0xFF	; 255
   0609 00                 1593 	.db #0x00	; 0
   060A FF                 1594 	.db #0xFF	; 255
   060B FF                 1595 	.db #0xFF	; 255
   060C 80                 1596 	.db #0x80	; 128
   060D FF                 1597 	.db #0xFF	; 255
   060E 80                 1598 	.db #0x80	; 128
   060F FF                 1599 	.db #0xFF	; 255
   0610 80                 1600 	.db #0x80	; 128
   0611 C0                 1601 	.db #0xC0	; 192
   0612 80                 1602 	.db #0x80	; 128
   0613 DF                 1603 	.db #0xDF	; 223
   0614 80                 1604 	.db #0x80	; 128
   0615 DF                 1605 	.db #0xDF	; 223
   0616 80                 1606 	.db #0x80	; 128
   0617 DF                 1607 	.db #0xDF	; 223
   0618 80                 1608 	.db #0x80	; 128
   0619 DF                 1609 	.db #0xDF	; 223
   061A 80                 1610 	.db #0x80	; 128
   061B DF                 1611 	.db #0xDF	; 223
   061C 80                 1612 	.db #0x80	; 128
   061D DF                 1613 	.db #0xDF	; 223
   061E 80                 1614 	.db #0x80	; 128
   061F DF                 1615 	.db #0xDF	; 223
   0620 80                 1616 	.db #0x80	; 128
   0621 DF                 1617 	.db #0xDF	; 223
   0622 80                 1618 	.db #0x80	; 128
   0623 C0                 1619 	.db #0xC0	; 192
   0624 80                 1620 	.db #0x80	; 128
   0625 FF                 1621 	.db #0xFF	; 255
   0626 80                 1622 	.db #0x80	; 128
   0627 FF                 1623 	.db #0xFF	; 255
   0628 FF                 1624 	.db #0xFF	; 255
   0629 80                 1625 	.db #0x80	; 128
   062A FF                 1626 	.db #0xFF	; 255
   062B FF                 1627 	.db #0xFF	; 255
   062C 01                 1628 	.db #0x01	; 1
   062D FE                 1629 	.db #0xFE	; 254
   062E 01                 1630 	.db #0x01	; 1
   062F FE                 1631 	.db #0xFE	; 254
   0630 01                 1632 	.db #0x01	; 1
   0631 02                 1633 	.db #0x02	; 2
   0632 01                 1634 	.db #0x01	; 1
   0633 FA                 1635 	.db #0xFA	; 250
   0634 01                 1636 	.db #0x01	; 1
   0635 FA                 1637 	.db #0xFA	; 250
   0636 01                 1638 	.db #0x01	; 1
   0637 FA                 1639 	.db #0xFA	; 250
   0638 01                 1640 	.db #0x01	; 1
   0639 FA                 1641 	.db #0xFA	; 250
   063A 01                 1642 	.db #0x01	; 1
   063B FA                 1643 	.db #0xFA	; 250
   063C 01                 1644 	.db #0x01	; 1
   063D FA                 1645 	.db #0xFA	; 250
   063E 01                 1646 	.db #0x01	; 1
   063F FA                 1647 	.db #0xFA	; 250
   0640 01                 1648 	.db #0x01	; 1
   0641 FA                 1649 	.db #0xFA	; 250
   0642 01                 1650 	.db #0x01	; 1
   0643 02                 1651 	.db #0x02	; 2
   0644 01                 1652 	.db #0x01	; 1
   0645 FE                 1653 	.db #0xFE	; 254
   0646 01                 1654 	.db #0x01	; 1
   0647 FE                 1655 	.db #0xFE	; 254
   0648 FF                 1656 	.db #0xFF	; 255
   0649 00                 1657 	.db #0x00	; 0
   064A FF                 1658 	.db #0xFF	; 255
   064B FF                 1659 	.db #0xFF	; 255
   064C 80                 1660 	.db #0x80	; 128
   064D FF                 1661 	.db #0xFF	; 255
   064E 80                 1662 	.db #0x80	; 128
   064F FF                 1663 	.db #0xFF	; 255
   0650 80                 1664 	.db #0x80	; 128
   0651 FC                 1665 	.db #0xFC	; 252
   0652 80                 1666 	.db #0x80	; 128
   0653 F3                 1667 	.db #0xF3	; 243
   0654 80                 1668 	.db #0x80	; 128
   0655 EF                 1669 	.db #0xEF	; 239
   0656 80                 1670 	.db #0x80	; 128
   0657 DF                 1671 	.db #0xDF	; 223
   0658 80                 1672 	.db #0x80	; 128
   0659 DF                 1673 	.db #0xDF	; 223
   065A 80                 1674 	.db #0x80	; 128
   065B DF                 1675 	.db #0xDF	; 223
   065C 80                 1676 	.db #0x80	; 128
   065D DF                 1677 	.db #0xDF	; 223
   065E 80                 1678 	.db #0x80	; 128
   065F EF                 1679 	.db #0xEF	; 239
   0660 80                 1680 	.db #0x80	; 128
   0661 F3                 1681 	.db #0xF3	; 243
   0662 80                 1682 	.db #0x80	; 128
   0663 FC                 1683 	.db #0xFC	; 252
   0664 80                 1684 	.db #0x80	; 128
   0665 FF                 1685 	.db #0xFF	; 255
   0666 80                 1686 	.db #0x80	; 128
   0667 FF                 1687 	.db #0xFF	; 255
   0668 FF                 1688 	.db #0xFF	; 255
   0669 80                 1689 	.db #0x80	; 128
   066A FF                 1690 	.db #0xFF	; 255
   066B FF                 1691 	.db #0xFF	; 255
   066C 01                 1692 	.db #0x01	; 1
   066D FE                 1693 	.db #0xFE	; 254
   066E 01                 1694 	.db #0x01	; 1
   066F FE                 1695 	.db #0xFE	; 254
   0670 01                 1696 	.db #0x01	; 1
   0671 3E                 1697 	.db #0x3E	; 62
   0672 01                 1698 	.db #0x01	; 1
   0673 CE                 1699 	.db #0xCE	; 206
   0674 01                 1700 	.db #0x01	; 1
   0675 F6                 1701 	.db #0xF6	; 246
   0676 01                 1702 	.db #0x01	; 1
   0677 FA                 1703 	.db #0xFA	; 250
   0678 01                 1704 	.db #0x01	; 1
   0679 FA                 1705 	.db #0xFA	; 250
   067A 01                 1706 	.db #0x01	; 1
   067B FA                 1707 	.db #0xFA	; 250
   067C 01                 1708 	.db #0x01	; 1
   067D FA                 1709 	.db #0xFA	; 250
   067E 01                 1710 	.db #0x01	; 1
   067F F6                 1711 	.db #0xF6	; 246
   0680 01                 1712 	.db #0x01	; 1
   0681 CE                 1713 	.db #0xCE	; 206
   0682 01                 1714 	.db #0x01	; 1
   0683 3E                 1715 	.db #0x3E	; 62
   0684 01                 1716 	.db #0x01	; 1
   0685 FE                 1717 	.db #0xFE	; 254
   0686 01                 1718 	.db #0x01	; 1
   0687 FE                 1719 	.db #0xFE	; 254
   0688 FF                 1720 	.db #0xFF	; 255
   0689 00                 1721 	.db #0x00	; 0
   068A FF                 1722 	.db #0xFF	; 255
   068B FF                 1723 	.db #0xFF	; 255
   068C 80                 1724 	.db #0x80	; 128
   068D FF                 1725 	.db #0xFF	; 255
   068E 80                 1726 	.db #0x80	; 128
   068F FF                 1727 	.db #0xFF	; 255
   0690 80                 1728 	.db #0x80	; 128
   0691 C0                 1729 	.db #0xC0	; 192
   0692 9F                 1730 	.db #0x9F	; 159
   0693 C0                 1731 	.db #0xC0	; 192
   0694 9F                 1732 	.db #0x9F	; 159
   0695 C0                 1733 	.db #0xC0	; 192
   0696 9F                 1734 	.db #0x9F	; 159
   0697 C0                 1735 	.db #0xC0	; 192
   0698 9F                 1736 	.db #0x9F	; 159
   0699 C0                 1737 	.db #0xC0	; 192
   069A 9F                 1738 	.db #0x9F	; 159
   069B C0                 1739 	.db #0xC0	; 192
   069C 9F                 1740 	.db #0x9F	; 159
   069D C0                 1741 	.db #0xC0	; 192
   069E 9F                 1742 	.db #0x9F	; 159
   069F C0                 1743 	.db #0xC0	; 192
   06A0 9F                 1744 	.db #0x9F	; 159
   06A1 C0                 1745 	.db #0xC0	; 192
   06A2 80                 1746 	.db #0x80	; 128
   06A3 C0                 1747 	.db #0xC0	; 192
   06A4 80                 1748 	.db #0x80	; 128
   06A5 FF                 1749 	.db #0xFF	; 255
   06A6 80                 1750 	.db #0x80	; 128
   06A7 FF                 1751 	.db #0xFF	; 255
   06A8 FF                 1752 	.db #0xFF	; 255
   06A9 80                 1753 	.db #0x80	; 128
   06AA FF                 1754 	.db #0xFF	; 255
   06AB FF                 1755 	.db #0xFF	; 255
   06AC 01                 1756 	.db #0x01	; 1
   06AD FE                 1757 	.db #0xFE	; 254
   06AE 01                 1758 	.db #0x01	; 1
   06AF FE                 1759 	.db #0xFE	; 254
   06B0 01                 1760 	.db #0x01	; 1
   06B1 02                 1761 	.db #0x02	; 2
   06B2 F9                 1762 	.db #0xF9	; 249
   06B3 02                 1763 	.db #0x02	; 2
   06B4 F9                 1764 	.db #0xF9	; 249
   06B5 02                 1765 	.db #0x02	; 2
   06B6 F9                 1766 	.db #0xF9	; 249
   06B7 02                 1767 	.db #0x02	; 2
   06B8 F9                 1768 	.db #0xF9	; 249
   06B9 02                 1769 	.db #0x02	; 2
   06BA F9                 1770 	.db #0xF9	; 249
   06BB 02                 1771 	.db #0x02	; 2
   06BC F9                 1772 	.db #0xF9	; 249
   06BD 02                 1773 	.db #0x02	; 2
   06BE F9                 1774 	.db #0xF9	; 249
   06BF 02                 1775 	.db #0x02	; 2
   06C0 F9                 1776 	.db #0xF9	; 249
   06C1 02                 1777 	.db #0x02	; 2
   06C2 01                 1778 	.db #0x01	; 1
   06C3 02                 1779 	.db #0x02	; 2
   06C4 01                 1780 	.db #0x01	; 1
   06C5 FE                 1781 	.db #0xFE	; 254
   06C6 01                 1782 	.db #0x01	; 1
   06C7 FE                 1783 	.db #0xFE	; 254
   06C8 FF                 1784 	.db #0xFF	; 255
   06C9 00                 1785 	.db #0x00	; 0
   06CA FF                 1786 	.db #0xFF	; 255
   06CB FF                 1787 	.db #0xFF	; 255
   06CC 80                 1788 	.db #0x80	; 128
   06CD FF                 1789 	.db #0xFF	; 255
   06CE 80                 1790 	.db #0x80	; 128
   06CF FF                 1791 	.db #0xFF	; 255
   06D0 80                 1792 	.db #0x80	; 128
   06D1 FC                 1793 	.db #0xFC	; 252
   06D2 83                 1794 	.db #0x83	; 131
   06D3 F0                 1795 	.db #0xF0	; 240
   06D4 8F                 1796 	.db #0x8F	; 143
   06D5 E0                 1797 	.db #0xE0	; 224
   06D6 9F                 1798 	.db #0x9F	; 159
   06D7 C0                 1799 	.db #0xC0	; 192
   06D8 9F                 1800 	.db #0x9F	; 159
   06D9 C0                 1801 	.db #0xC0	; 192
   06DA 9F                 1802 	.db #0x9F	; 159
   06DB C0                 1803 	.db #0xC0	; 192
   06DC 9F                 1804 	.db #0x9F	; 159
   06DD C0                 1805 	.db #0xC0	; 192
   06DE 8F                 1806 	.db #0x8F	; 143
   06DF E0                 1807 	.db #0xE0	; 224
   06E0 83                 1808 	.db #0x83	; 131
   06E1 F0                 1809 	.db #0xF0	; 240
   06E2 80                 1810 	.db #0x80	; 128
   06E3 FC                 1811 	.db #0xFC	; 252
   06E4 80                 1812 	.db #0x80	; 128
   06E5 FF                 1813 	.db #0xFF	; 255
   06E6 80                 1814 	.db #0x80	; 128
   06E7 FF                 1815 	.db #0xFF	; 255
   06E8 FF                 1816 	.db #0xFF	; 255
   06E9 80                 1817 	.db #0x80	; 128
   06EA FF                 1818 	.db #0xFF	; 255
   06EB FF                 1819 	.db #0xFF	; 255
   06EC 01                 1820 	.db #0x01	; 1
   06ED FE                 1821 	.db #0xFE	; 254
   06EE 01                 1822 	.db #0x01	; 1
   06EF FE                 1823 	.db #0xFE	; 254
   06F0 01                 1824 	.db #0x01	; 1
   06F1 3E                 1825 	.db #0x3E	; 62
   06F2 C1                 1826 	.db #0xC1	; 193
   06F3 0E                 1827 	.db #0x0E	; 14
   06F4 F1                 1828 	.db #0xF1	; 241
   06F5 06                 1829 	.db #0x06	; 6
   06F6 F9                 1830 	.db #0xF9	; 249
   06F7 02                 1831 	.db #0x02	; 2
   06F8 F9                 1832 	.db #0xF9	; 249
   06F9 02                 1833 	.db #0x02	; 2
   06FA F9                 1834 	.db #0xF9	; 249
   06FB 02                 1835 	.db #0x02	; 2
   06FC F9                 1836 	.db #0xF9	; 249
   06FD 02                 1837 	.db #0x02	; 2
   06FE F1                 1838 	.db #0xF1	; 241
   06FF 06                 1839 	.db #0x06	; 6
   0700 C1                 1840 	.db #0xC1	; 193
   0701 0E                 1841 	.db #0x0E	; 14
   0702 01                 1842 	.db #0x01	; 1
   0703 3E                 1843 	.db #0x3E	; 62
   0704 01                 1844 	.db #0x01	; 1
   0705 FE                 1845 	.db #0xFE	; 254
   0706 01                 1846 	.db #0x01	; 1
   0707 FE                 1847 	.db #0xFE	; 254
   0708 FF                 1848 	.db #0xFF	; 255
   0709 00                 1849 	.db #0x00	; 0
   070A 00                 1850 	.db #0x00	; 0
   070B 00                 1851 	.db #0x00	; 0
   070C 7F                 1852 	.db #0x7F	; 127
   070D 7F                 1853 	.db #0x7F	; 127
   070E 61                 1854 	.db #0x61	; 97	'a'
   070F 61                 1855 	.db #0x61	; 97	'a'
   0710 52                 1856 	.db #0x52	; 82	'R'
   0711 52                 1857 	.db #0x52	; 82	'R'
   0712 4C                 1858 	.db #0x4C	; 76	'L'
   0713 4C                 1859 	.db #0x4C	; 76	'L'
   0714 4C                 1860 	.db #0x4C	; 76	'L'
   0715 4C                 1861 	.db #0x4C	; 76	'L'
   0716 52                 1862 	.db #0x52	; 82	'R'
   0717 52                 1863 	.db #0x52	; 82	'R'
   0718 61                 1864 	.db #0x61	; 97	'a'
   0719 61                 1865 	.db #0x61	; 97	'a'
   071A 40                 1866 	.db #0x40	; 64
   071B 5E                 1867 	.db #0x5E	; 94
   071C 40                 1868 	.db #0x40	; 64
   071D 6D                 1869 	.db #0x6D	; 109	'm'
   071E 40                 1870 	.db #0x40	; 64
   071F 73                 1871 	.db #0x73	; 115	's'
   0720 40                 1872 	.db #0x40	; 64
   0721 73                 1873 	.db #0x73	; 115	's'
   0722 40                 1874 	.db #0x40	; 64
   0723 6D                 1875 	.db #0x6D	; 109	'm'
   0724 40                 1876 	.db #0x40	; 64
   0725 5E                 1877 	.db #0x5E	; 94
   0726 7F                 1878 	.db #0x7F	; 127
   0727 7F                 1879 	.db #0x7F	; 127
   0728 00                 1880 	.db #0x00	; 0
   0729 7F                 1881 	.db #0x7F	; 127
   072A 00                 1882 	.db #0x00	; 0
   072B 00                 1883 	.db #0x00	; 0
   072C FE                 1884 	.db #0xFE	; 254
   072D FF                 1885 	.db #0xFF	; 255
   072E FE                 1886 	.db #0xFE	; 254
   072F 87                 1887 	.db #0x87	; 135
   0730 FE                 1888 	.db #0xFE	; 254
   0731 4B                 1889 	.db #0x4B	; 75	'K'
   0732 FE                 1890 	.db #0xFE	; 254
   0733 33                 1891 	.db #0x33	; 51	'3'
   0734 FE                 1892 	.db #0xFE	; 254
   0735 33                 1893 	.db #0x33	; 51	'3'
   0736 FE                 1894 	.db #0xFE	; 254
   0737 4B                 1895 	.db #0x4B	; 75	'K'
   0738 FE                 1896 	.db #0xFE	; 254
   0739 87                 1897 	.db #0x87	; 135
   073A 7A                 1898 	.db #0x7A	; 122	'z'
   073B 7B                 1899 	.db #0x7B	; 123
   073C B6                 1900 	.db #0xB6	; 182
   073D B7                 1901 	.db #0xB7	; 183
   073E CE                 1902 	.db #0xCE	; 206
   073F CF                 1903 	.db #0xCF	; 207
   0740 CE                 1904 	.db #0xCE	; 206
   0741 CF                 1905 	.db #0xCF	; 207
   0742 B6                 1906 	.db #0xB6	; 182
   0743 B7                 1907 	.db #0xB7	; 183
   0744 7A                 1908 	.db #0x7A	; 122	'z'
   0745 7B                 1909 	.db #0x7B	; 123
   0746 FE                 1910 	.db #0xFE	; 254
   0747 FF                 1911 	.db #0xFF	; 255
   0748 00                 1912 	.db #0x00	; 0
   0749 FF                 1913 	.db #0xFF	; 255
   074A 00                 1914 	.db #0x00	; 0
   074B 00                 1915 	.db #0x00	; 0
   074C 7F                 1916 	.db #0x7F	; 127
   074D 7F                 1917 	.db #0x7F	; 127
   074E 73                 1918 	.db #0x73	; 115	's'
   074F 73                 1919 	.db #0x73	; 115	's'
   0750 6F                 1920 	.db #0x6F	; 111	'o'
   0751 6F                 1921 	.db #0x6F	; 111	'o'
   0752 77                 1922 	.db #0x77	; 119	'w'
   0753 77                 1923 	.db #0x77	; 119	'w'
   0754 7B                 1924 	.db #0x7B	; 123
   0755 7B                 1925 	.db #0x7B	; 123
   0756 67                 1926 	.db #0x67	; 103	'g'
   0757 67                 1927 	.db #0x67	; 103	'g'
   0758 7F                 1928 	.db #0x7F	; 127
   0759 7F                 1929 	.db #0x7F	; 127
   075A 7F                 1930 	.db #0x7F	; 127
   075B 7F                 1931 	.db #0x7F	; 127
   075C 77                 1932 	.db #0x77	; 119	'w'
   075D 77                 1933 	.db #0x77	; 119	'w'
   075E 6B                 1934 	.db #0x6B	; 107	'k'
   075F 6B                 1935 	.db #0x6B	; 107	'k'
   0760 6B                 1936 	.db #0x6B	; 107	'k'
   0761 6B                 1937 	.db #0x6B	; 107	'k'
   0762 6B                 1938 	.db #0x6B	; 107	'k'
   0763 6B                 1939 	.db #0x6B	; 107	'k'
   0764 77                 1940 	.db #0x77	; 119	'w'
   0765 77                 1941 	.db #0x77	; 119	'w'
   0766 7F                 1942 	.db #0x7F	; 127
   0767 7F                 1943 	.db #0x7F	; 127
   0768 00                 1944 	.db #0x00	; 0
   0769 7F                 1945 	.db #0x7F	; 127
   076A 00                 1946 	.db #0x00	; 0
   076B 01                 1947 	.db #0x01	; 1
   076C FE                 1948 	.db #0xFE	; 254
   076D FF                 1949 	.db #0xFF	; 255
   076E D6                 1950 	.db #0xD6	; 214
   076F D7                 1951 	.db #0xD7	; 215
   0770 D6                 1952 	.db #0xD6	; 214
   0771 D7                 1953 	.db #0xD7	; 215
   0772 EE                 1954 	.db #0xEE	; 238
   0773 EF                 1955 	.db #0xEF	; 239
   0774 D6                 1956 	.db #0xD6	; 214
   0775 D7                 1957 	.db #0xD7	; 215
   0776 D6                 1958 	.db #0xD6	; 214
   0777 D7                 1959 	.db #0xD7	; 215
   0778 FE                 1960 	.db #0xFE	; 254
   0779 FF                 1961 	.db #0xFF	; 255
   077A FE                 1962 	.db #0xFE	; 254
   077B FF                 1963 	.db #0xFF	; 255
   077C EE                 1964 	.db #0xEE	; 238
   077D EF                 1965 	.db #0xEF	; 239
   077E D6                 1966 	.db #0xD6	; 214
   077F D7                 1967 	.db #0xD7	; 215
   0780 C6                 1968 	.db #0xC6	; 198
   0781 C7                 1969 	.db #0xC7	; 199
   0782 D6                 1970 	.db #0xD6	; 214
   0783 D7                 1971 	.db #0xD7	; 215
   0784 D6                 1972 	.db #0xD6	; 214
   0785 D7                 1973 	.db #0xD7	; 215
   0786 FE                 1974 	.db #0xFE	; 254
   0787 FF                 1975 	.db #0xFF	; 255
   0788 00                 1976 	.db #0x00	; 0
   0789 FF                 1977 	.db #0xFF	; 255
   078A                    1978 _cursors:
   078A 00                 1979 	.db #0x00	; 0
   078B 01                 1980 	.db #0x01	; 1
   078C 01                 1981 	.db #0x01	; 1
   078D 00                 1982 	.db #0x00	; 0
   078E 00                 1983 	.db #0x00	; 0
   078F 01                 1984 	.db #0x01	; 1
   0790 02                 1985 	.db #0x02	; 2
   0791 02                 1986 	.db #0x02	; 2
   0792 00                 1987 	.db #0x00	; 0
   0793 0F                 1988 	.db #0x0F	; 15
   0794 05                 1989 	.db #0x05	; 5
   0795 02                 1990 	.db #0x02	; 2
   0796 02                 1991 	.db #0x02	; 2
   0797 00                 1992 	.db #0x00	; 0
   0798 0F                 1993 	.db #0x0F	; 15
   0799 09                 1994 	.db #0x09	; 9
   079A 02                 1995 	.db #0x02	; 2
   079B 02                 1996 	.db #0x02	; 2
   079C 02                 1997 	.db #0x02	; 2
   079D 0F                 1998 	.db #0x0F	; 15
   079E 0D                 1999 	.db #0x0D	; 13
   079F 02                 2000 	.db #0x02	; 2
   07A0 02                 2001 	.db #0x02	; 2
   07A1 00                 2002 	.db #0x00	; 0
   07A2 0F                 2003 	.db #0x0F	; 15
   07A3 11                 2004 	.db #0x11	; 17
   07A4 02                 2005 	.db #0x02	; 2
   07A5 02                 2006 	.db #0x02	; 2
   07A6 05                 2007 	.db #0x05	; 5
   07A7 0A                 2008 	.db #0x0A	; 10
   07A8                    2009 _cursors_data:
   07A8 FF                 2010 	.db #0xFF	; 255
   07A9 00                 2011 	.db #0x00	; 0
   07AA FF                 2012 	.db #0xFF	; 255
   07AB 7E                 2013 	.db #0x7E	; 126
   07AC FF                 2014 	.db #0xFF	; 255
   07AD 7C                 2015 	.db #0x7C	; 124
   07AE FE                 2016 	.db #0xFE	; 254
   07AF 78                 2017 	.db #0x78	; 120	'x'
   07B0 FF                 2018 	.db #0xFF	; 255
   07B1 7C                 2019 	.db #0x7C	; 124
   07B2 FF                 2020 	.db #0xFF	; 255
   07B3 6E                 2021 	.db #0x6E	; 110	'n'
   07B4 FF                 2022 	.db #0xFF	; 255
   07B5 46                 2023 	.db #0x46	; 70	'F'
   07B6 EF                 2024 	.db #0xEF	; 239
   07B7 00                 2025 	.db #0x00	; 0
   07B8 00                 2026 	.db #0x00	; 0
   07B9 00                 2027 	.db #0x00	; 0
   07BA 00                 2028 	.db #0x00	; 0
   07BB 00                 2029 	.db #0x00	; 0
   07BC 00                 2030 	.db #0x00	; 0
   07BD 00                 2031 	.db #0x00	; 0
   07BE 00                 2032 	.db #0x00	; 0
   07BF 00                 2033 	.db #0x00	; 0
   07C0 00                 2034 	.db #0x00	; 0
   07C1 00                 2035 	.db #0x00	; 0
   07C2 01                 2036 	.db #0x01	; 1
   07C3 00                 2037 	.db #0x00	; 0
   07C4 03                 2038 	.db #0x03	; 3
   07C5 00                 2039 	.db #0x00	; 0
   07C6 07                 2040 	.db #0x07	; 7
   07C7 01                 2041 	.db #0x01	; 1
   07C8 0F                 2042 	.db #0x0F	; 15
   07C9 02                 2043 	.db #0x02	; 2
   07CA 1F                 2044 	.db #0x1F	; 31
   07CB 05                 2045 	.db #0x05	; 5
   07CC 3F                 2046 	.db #0x3F	; 63
   07CD 0A                 2047 	.db #0x0A	; 10
   07CE 7F                 2048 	.db #0x7F	; 127
   07CF 14                 2049 	.db #0x14	; 20
   07D0 7E                 2050 	.db #0x7E	; 126
   07D1 28                 2051 	.db #0x28	; 40
   07D2 FC                 2052 	.db #0xFC	; 252
   07D3 30                 2053 	.db #0x30	; 48	'0'
   07D4 F8                 2054 	.db #0xF8	; 248
   07D5 40                 2055 	.db #0x40	; 64
   07D6 60                 2056 	.db #0x60	; 96
   07D7 00                 2057 	.db #0x00	; 0
   07D8 00                 2058 	.db #0x00	; 0
   07D9 00                 2059 	.db #0x00	; 0
   07DA 00                 2060 	.db #0x00	; 0
   07DB 00                 2061 	.db #0x00	; 0
   07DC 3C                 2062 	.db #0x3C	; 60
   07DD 00                 2063 	.db #0x00	; 0
   07DE 7C                 2064 	.db #0x7C	; 124
   07DF 18                 2065 	.db #0x18	; 24
   07E0 FC                 2066 	.db #0xFC	; 252
   07E1 28                 2067 	.db #0x28	; 40
   07E2 FC                 2068 	.db #0xFC	; 252
   07E3 50                 2069 	.db #0x50	; 80	'P'
   07E4 F8                 2070 	.db #0xF8	; 248
   07E5 A0                 2071 	.db #0xA0	; 160
   07E6 F0                 2072 	.db #0xF0	; 240
   07E7 40                 2073 	.db #0x40	; 64
   07E8 E0                 2074 	.db #0xE0	; 224
   07E9 80                 2075 	.db #0x80	; 128
   07EA C0                 2076 	.db #0xC0	; 192
   07EB 00                 2077 	.db #0x00	; 0
   07EC 80                 2078 	.db #0x80	; 128
   07ED 00                 2079 	.db #0x00	; 0
   07EE 00                 2080 	.db #0x00	; 0
   07EF 00                 2081 	.db #0x00	; 0
   07F0 00                 2082 	.db #0x00	; 0
   07F1 00                 2083 	.db #0x00	; 0
   07F2 00                 2084 	.db #0x00	; 0
   07F3 00                 2085 	.db #0x00	; 0
   07F4 00                 2086 	.db #0x00	; 0
   07F5 00                 2087 	.db #0x00	; 0
   07F6 00                 2088 	.db #0x00	; 0
   07F7 00                 2089 	.db #0x00	; 0
   07F8 00                 2090 	.db #0x00	; 0
   07F9 00                 2091 	.db #0x00	; 0
   07FA 00                 2092 	.db #0x00	; 0
   07FB 00                 2093 	.db #0x00	; 0
   07FC 00                 2094 	.db #0x00	; 0
   07FD 00                 2095 	.db #0x00	; 0
   07FE 00                 2096 	.db #0x00	; 0
   07FF 00                 2097 	.db #0x00	; 0
   0800 01                 2098 	.db #0x01	; 1
   0801 00                 2099 	.db #0x00	; 0
   0802 03                 2100 	.db #0x03	; 3
   0803 00                 2101 	.db #0x00	; 0
   0804 07                 2102 	.db #0x07	; 7
   0805 01                 2103 	.db #0x01	; 1
   0806 0F                 2104 	.db #0x0F	; 15
   0807 02                 2105 	.db #0x02	; 2
   0808 1F                 2106 	.db #0x1F	; 31
   0809 05                 2107 	.db #0x05	; 5
   080A 7F                 2108 	.db #0x7F	; 127
   080B 0A                 2109 	.db #0x0A	; 10
   080C FF                 2110 	.db #0xFF	; 255
   080D 34                 2111 	.db #0x34	; 52	'4'
   080E FE                 2112 	.db #0xFE	; 254
   080F 78                 2113 	.db #0x78	; 120	'x'
   0810 FC                 2114 	.db #0xFC	; 252
   0811 78                 2115 	.db #0x78	; 120	'x'
   0812 FC                 2116 	.db #0xFC	; 252
   0813 70                 2117 	.db #0x70	; 112	'p'
   0814 F8                 2118 	.db #0xF8	; 248
   0815 40                 2119 	.db #0x40	; 64
   0816 60                 2120 	.db #0x60	; 96
   0817 00                 2121 	.db #0x00	; 0
   0818 00                 2122 	.db #0x00	; 0
   0819 00                 2123 	.db #0x00	; 0
   081A 00                 2124 	.db #0x00	; 0
   081B 00                 2125 	.db #0x00	; 0
   081C 78                 2126 	.db #0x78	; 120	'x'
   081D 00                 2127 	.db #0x00	; 0
   081E F8                 2128 	.db #0xF8	; 248
   081F 30                 2129 	.db #0x30	; 48	'0'
   0820 F8                 2130 	.db #0xF8	; 248
   0821 50                 2131 	.db #0x50	; 80	'P'
   0822 F8                 2132 	.db #0xF8	; 248
   0823 A0                 2133 	.db #0xA0	; 160
   0824 F0                 2134 	.db #0xF0	; 240
   0825 40                 2135 	.db #0x40	; 64
   0826 E0                 2136 	.db #0xE0	; 224
   0827 80                 2137 	.db #0x80	; 128
   0828 C0                 2138 	.db #0xC0	; 192
   0829 00                 2139 	.db #0x00	; 0
   082A 80                 2140 	.db #0x80	; 128
   082B 00                 2141 	.db #0x00	; 0
   082C 00                 2142 	.db #0x00	; 0
   082D 00                 2143 	.db #0x00	; 0
   082E 00                 2144 	.db #0x00	; 0
   082F 00                 2145 	.db #0x00	; 0
   0830 00                 2146 	.db #0x00	; 0
   0831 00                 2147 	.db #0x00	; 0
   0832 00                 2148 	.db #0x00	; 0
   0833 00                 2149 	.db #0x00	; 0
   0834 00                 2150 	.db #0x00	; 0
   0835 00                 2151 	.db #0x00	; 0
   0836 00                 2152 	.db #0x00	; 0
   0837 00                 2153 	.db #0x00	; 0
   0838 00                 2154 	.db #0x00	; 0
   0839 00                 2155 	.db #0x00	; 0
   083A 00                 2156 	.db #0x00	; 0
   083B 00                 2157 	.db #0x00	; 0
   083C 07                 2158 	.db #0x07	; 7
   083D 00                 2159 	.db #0x00	; 0
   083E 0F                 2160 	.db #0x0F	; 15
   083F 02                 2161 	.db #0x02	; 2
   0840 1F                 2162 	.db #0x1F	; 31
   0841 05                 2163 	.db #0x05	; 5
   0842 7F                 2164 	.db #0x7F	; 127
   0843 08                 2165 	.db #0x08	; 8
   0844 FE                 2166 	.db #0xFE	; 254
   0845 31                 2167 	.db #0x31	; 49	'1'
   0846 FD                 2168 	.db #0xFD	; 253
   0847 63                 2169 	.db #0x63	; 99	'c'
   0848 FA                 2170 	.db #0xFA	; 250
   0849 77                 2171 	.db #0x77	; 119	'w'
   084A FD                 2172 	.db #0xFD	; 253
   084B 6E                 2173 	.db #0x6E	; 110	'n'
   084C FF                 2174 	.db #0xFF	; 255
   084D 64                 2175 	.db #0x64	; 100	'd'
   084E FF                 2176 	.db #0xFF	; 255
   084F 62                 2177 	.db #0x62	; 98	'b'
   0850 F7                 2178 	.db #0xF7	; 247
   0851 21                 2179 	.db #0x21	; 33
   0852 73                 2180 	.db #0x73	; 115	's'
   0853 20                 2181 	.db #0x20	; 32
   0854 70                 2182 	.db #0x70	; 112	'p'
   0855 20                 2183 	.db #0x20	; 32
   0856 50                 2184 	.db #0x50	; 80	'P'
   0857 00                 2185 	.db #0x00	; 0
   0858 00                 2186 	.db #0x00	; 0
   0859 00                 2187 	.db #0x00	; 0
   085A 00                 2188 	.db #0x00	; 0
   085B 00                 2189 	.db #0x00	; 0
   085C 00                 2190 	.db #0x00	; 0
   085D 00                 2191 	.db #0x00	; 0
   085E 80                 2192 	.db #0x80	; 128
   085F 00                 2193 	.db #0x00	; 0
   0860 C0                 2194 	.db #0xC0	; 192
   0861 00                 2195 	.db #0x00	; 0
   0862 E0                 2196 	.db #0xE0	; 224
   0863 80                 2197 	.db #0x80	; 128
   0864 F0                 2198 	.db #0xF0	; 240
   0865 C0                 2199 	.db #0xC0	; 192
   0866 78                 2200 	.db #0x78	; 120	'x'
   0867 A0                 2201 	.db #0xA0	; 160
   0868 F8                 2202 	.db #0xF8	; 248
   0869 10                 2203 	.db #0x10	; 16
   086A F8                 2204 	.db #0xF8	; 248
   086B 20                 2205 	.db #0x20	; 32
   086C F0                 2206 	.db #0xF0	; 240
   086D 40                 2207 	.db #0x40	; 64
   086E E0                 2208 	.db #0xE0	; 224
   086F 80                 2209 	.db #0x80	; 128
   0870 C0                 2210 	.db #0xC0	; 192
   0871 00                 2211 	.db #0x00	; 0
   0872 80                 2212 	.db #0x80	; 128
   0873 00                 2213 	.db #0x00	; 0
   0874 00                 2214 	.db #0x00	; 0
   0875 00                 2215 	.db #0x00	; 0
   0876 00                 2216 	.db #0x00	; 0
   0877 00                 2217 	.db #0x00	; 0
   0878 00                 2218 	.db #0x00	; 0
   0879 00                 2219 	.db #0x00	; 0
   087A 00                 2220 	.db #0x00	; 0
   087B 00                 2221 	.db #0x00	; 0
   087C 00                 2222 	.db #0x00	; 0
   087D 00                 2223 	.db #0x00	; 0
   087E 00                 2224 	.db #0x00	; 0
   087F 00                 2225 	.db #0x00	; 0
   0880 00                 2226 	.db #0x00	; 0
   0881 00                 2227 	.db #0x00	; 0
   0882 00                 2228 	.db #0x00	; 0
   0883 00                 2229 	.db #0x00	; 0
   0884 07                 2230 	.db #0x07	; 7
   0885 00                 2231 	.db #0x00	; 0
   0886 0F                 2232 	.db #0x0F	; 15
   0887 03                 2233 	.db #0x03	; 3
   0888 1F                 2234 	.db #0x1F	; 31
   0889 04                 2235 	.db #0x04	; 4
   088A 3F                 2236 	.db #0x3F	; 63
   088B 08                 2237 	.db #0x08	; 8
   088C 7F                 2238 	.db #0x7F	; 127
   088D 11                 2239 	.db #0x11	; 17
   088E FF                 2240 	.db #0xFF	; 255
   088F 22                 2241 	.db #0x22	; 34
   0890 FF                 2242 	.db #0xFF	; 255
   0891 7D                 2243 	.db #0x7D	; 125
   0892 FF                 2244 	.db #0xFF	; 255
   0893 46                 2245 	.db #0x46	; 70	'F'
   0894 FF                 2246 	.db #0xFF	; 255
   0895 7C                 2247 	.db #0x7C	; 124
   0896 7E                 2248 	.db #0x7E	; 126
   0897 00                 2249 	.db #0x00	; 0
   0898 00                 2250 	.db #0x00	; 0
   0899 00                 2251 	.db #0x00	; 0
   089A 00                 2252 	.db #0x00	; 0
   089B 00                 2253 	.db #0x00	; 0
   089C 00                 2254 	.db #0x00	; 0
   089D 00                 2255 	.db #0x00	; 0
   089E 00                 2256 	.db #0x00	; 0
   089F 00                 2257 	.db #0x00	; 0
   08A0 00                 2258 	.db #0x00	; 0
   08A1 00                 2259 	.db #0x00	; 0
   08A2 00                 2260 	.db #0x00	; 0
   08A3 00                 2261 	.db #0x00	; 0
   08A4 F0                 2262 	.db #0xF0	; 240
   08A5 00                 2263 	.db #0x00	; 0
   08A6 F0                 2264 	.db #0xF0	; 240
   08A7 E0                 2265 	.db #0xE0	; 224
   08A8 F0                 2266 	.db #0xF0	; 240
   08A9 60                 2267 	.db #0x60	; 96
   08AA F0                 2268 	.db #0xF0	; 240
   08AB A0                 2269 	.db #0xA0	; 160
   08AC F0                 2270 	.db #0xF0	; 240
   08AD 40                 2271 	.db #0x40	; 64
   08AE E0                 2272 	.db #0xE0	; 224
   08AF 80                 2273 	.db #0x80	; 128
   08B0 C0                 2274 	.db #0xC0	; 192
   08B1 00                 2275 	.db #0x00	; 0
   08B2 80                 2276 	.db #0x80	; 128
   08B3 00                 2277 	.db #0x00	; 0
   08B4 00                 2278 	.db #0x00	; 0
   08B5 00                 2279 	.db #0x00	; 0
   08B6 00                 2280 	.db #0x00	; 0
   08B7 00                 2281 	.db #0x00	; 0
   08B8 00                 2282 	.db #0x00	; 0
   08B9 00                 2283 	.db #0x00	; 0
   08BA 00                 2284 	.db #0x00	; 0
   08BB 00                 2285 	.db #0x00	; 0
   08BC 00                 2286 	.db #0x00	; 0
   08BD 00                 2287 	.db #0x00	; 0
   08BE 00                 2288 	.db #0x00	; 0
   08BF 00                 2289 	.db #0x00	; 0
   08C0 00                 2290 	.db #0x00	; 0
   08C1 00                 2291 	.db #0x00	; 0
   08C2 0E                 2292 	.db #0x0E	; 14
   08C3 00                 2293 	.db #0x00	; 0
   08C4 0E                 2294 	.db #0x0E	; 14
   08C5 04                 2295 	.db #0x04	; 4
   08C6 0E                 2296 	.db #0x0E	; 14
   08C7 04                 2297 	.db #0x04	; 4
   08C8 0E                 2298 	.db #0x0E	; 14
   08C9 04                 2299 	.db #0x04	; 4
   08CA FF                 2300 	.db #0xFF	; 255
   08CB 04                 2301 	.db #0x04	; 4
   08CC FB                 2302 	.db #0xFB	; 251
   08CD 7B                 2303 	.db #0x7B	; 123
   08CE FF                 2304 	.db #0xFF	; 255
   08CF 04                 2305 	.db #0x04	; 4
   08D0 0E                 2306 	.db #0x0E	; 14
   08D1 04                 2307 	.db #0x04	; 4
   08D2 0E                 2308 	.db #0x0E	; 14
   08D3 04                 2309 	.db #0x04	; 4
   08D4 0E                 2310 	.db #0x0E	; 14
   08D5 04                 2311 	.db #0x04	; 4
   08D6 0E                 2312 	.db #0x0E	; 14
   08D7 00                 2313 	.db #0x00	; 0
   08D8 00                 2314 	.db #0x00	; 0
   08D9 00                 2315 	.db #0x00	; 0
   08DA 00                 2316 	.db #0x00	; 0
   08DB 00                 2317 	.db #0x00	; 0
   08DC 00                 2318 	.db #0x00	; 0
   08DD 00                 2319 	.db #0x00	; 0
   08DE 00                 2320 	.db #0x00	; 0
   08DF 00                 2321 	.db #0x00	; 0
   08E0 00                 2322 	.db #0x00	; 0
   08E1 00                 2323 	.db #0x00	; 0
   08E2 00                 2324 	.db #0x00	; 0
   08E3 00                 2325 	.db #0x00	; 0
   08E4 00                 2326 	.db #0x00	; 0
   08E5 00                 2327 	.db #0x00	; 0
   08E6 00                 2328 	.db #0x00	; 0
   08E7 00                 2329 	.db #0x00	; 0
   08E8 00                 2330 	.db #0x00	; 0
   08E9 00                 2331 	.db #0x00	; 0
   08EA E0                 2332 	.db #0xE0	; 224
   08EB 00                 2333 	.db #0x00	; 0
   08EC E0                 2334 	.db #0xE0	; 224
   08ED C0                 2335 	.db #0xC0	; 192
   08EE E0                 2336 	.db #0xE0	; 224
   08EF 00                 2337 	.db #0x00	; 0
   08F0 00                 2338 	.db #0x00	; 0
   08F1 00                 2339 	.db #0x00	; 0
   08F2 00                 2340 	.db #0x00	; 0
   08F3 00                 2341 	.db #0x00	; 0
   08F4 00                 2342 	.db #0x00	; 0
   08F5 00                 2343 	.db #0x00	; 0
   08F6 00                 2344 	.db #0x00	; 0
   08F7 00                 2345 	.db #0x00	; 0
   08F8                    2346 _colors:
   08F8 00                 2347 	.db #0x00	; 0
   08F9 02                 2348 	.db #0x02	; 2
   08FA 01                 2349 	.db #0x01	; 1
   08FB 03                 2350 	.db #0x03	; 3
   08FC                    2351 _modes:
   08FC 00                 2352 	.db #0x00	; 0
   08FD 01                 2353 	.db #0x01	; 1
   08FE 02                 2354 	.db #0x02	; 2
   08FF 03                 2355 	.db #0x03	; 3
                           2356 ;paint.c:283: void move_cursor()
                           2357 ;	---------------------------------
                           2358 ; Function move_cursor
                           2359 ; ---------------------------------
   0900                    2360 _move_cursor_start::
   0900                    2361 _move_cursor:
   0900 E8 F8              2362 	add	sp, #-8
                           2363 ;paint.c:287: for(x = 0; x < cursors[current_cursor].w; x++)
   0902 F8 01              2364 	ldhl	sp,#1
   0904 36 00              2365 	ld	(hl),#0x00
   0906                    2366 00107$:
   0906 21r03r03           2367 	ld	hl,#_current_cursor
   0909 4E                 2368 	ld	c,(hl)
   090A 06 00              2369 	ld	b,#0x00
   090C 69                 2370 	ld	l, c
   090D 60                 2371 	ld	h, b
   090E 29                 2372 	add	hl, hl
   090F 29                 2373 	add	hl, hl
   0910 09                 2374 	add	hl, bc
   0911 4D                 2375 	ld	c,l
   0912 44                 2376 	ld	b,h
   0913 21r8Ar07           2377 	ld	hl,#_cursors
   0916 09                 2378 	add	hl,bc
   0917 4D                 2379 	ld	c,l
   0918 44                 2380 	ld	b,h
   0919 03                 2381 	inc	bc
   091A 0A                 2382 	ld	a,(bc)
   091B 47                 2383 	ld	b,a
   091C F8 01              2384 	ldhl	sp,#1
   091E 7E                 2385 	ld	a,(hl)
   091F 90                 2386 	sub	a, b
   0920 D2rBBr09           2387 	jp	NC,00109$
                           2388 ;paint.c:288: for(y = 0; y < cursors[current_cursor].h; y++)
   0923 7E                 2389 	ld	a,(hl)
   0924 CB 37              2390 	swap	a
   0926 0F                 2391 	rrca
   0927 E6 F8              2392 	and	a,#0xF8
   0929 23                 2393 	inc	hl
   092A 23                 2394 	inc	hl
   092B 32                 2395 	ld	(hl-),a
   092C 2B                 2396 	dec	hl
   092D 7E                 2397 	ld	a,(hl)
   092E 87                 2398 	add	a, a
   092F 23                 2399 	inc	hl
   0930 32                 2400 	ld	(hl-),a
   0931 2B                 2401 	dec	hl
   0932 36 00              2402 	ld	(hl),#0x00
   0934                    2403 00104$:
   0934 21r03r03           2404 	ld	hl,#_current_cursor
   0937 4E                 2405 	ld	c,(hl)
   0938 06 00              2406 	ld	b,#0x00
   093A 69                 2407 	ld	l, c
   093B 60                 2408 	ld	h, b
   093C 29                 2409 	add	hl, hl
   093D 29                 2410 	add	hl, hl
   093E 09                 2411 	add	hl, bc
   093F 4D                 2412 	ld	c,l
   0940 44                 2413 	ld	b,h
   0941 21r8Ar07           2414 	ld	hl,#_cursors
   0944 09                 2415 	add	hl,bc
   0945 7D                 2416 	ld	a,l
   0946 54                 2417 	ld	d,h
   0947 F8 06              2418 	ldhl	sp,#6
   0949 22                 2419 	ld	(hl+),a
   094A 72                 2420 	ld	(hl),d
   094B 2B                 2421 	dec	hl
   094C 4E                 2422 	ld	c,(hl)
   094D 23                 2423 	inc	hl
   094E 46                 2424 	ld	b,(hl)
   094F 03                 2425 	inc	bc
   0950 03                 2426 	inc	bc
   0951 0A                 2427 	ld	a,(bc)
   0952 47                 2428 	ld	b,a
   0953 F8 00              2429 	ldhl	sp,#0
   0955 7E                 2430 	ld	a,(hl)
   0956 90                 2431 	sub	a, b
   0957 D2rB5r09           2432 	jp	NC,00108$
                           2433 ;paint.c:291: cursor_y+16 - cursors[current_cursor].hot_y + (y<<3));
   095A 21r06r03           2434 	ld	hl,#_cursor_y
   095D 7E                 2435 	ld	a,(hl)
   095E C6 10              2436 	add	a, #0x10
   0960 F8 05              2437 	ldhl	sp,#5
   0962 22                 2438 	ld	(hl+),a
   0963 5E                 2439 	ld	e,(hl)
   0964 23                 2440 	inc	hl
   0965 56                 2441 	ld	d,(hl)
   0966 21 04 00           2442 	ld	hl,#0x0004
   0969 19                 2443 	add	hl,de
   096A 4D                 2444 	ld	c,l
   096B 44                 2445 	ld	b,h
   096C 0A                 2446 	ld	a,(bc)
   096D 47                 2447 	ld	b,a
   096E F8 05              2448 	ldhl	sp,#5
   0970 7E                 2449 	ld	a,(hl)
   0971 90                 2450 	sub	a, b
   0972 47                 2451 	ld	b,a
   0973 F8 00              2452 	ldhl	sp,#0
   0975 7E                 2453 	ld	a,(hl)
   0976 CB 37              2454 	swap	a
   0978 0F                 2455 	rrca
   0979 E6 F8              2456 	and	a,#0xF8
   097B 57                 2457 	ld	d, a
   097C 80                 2458 	add	a,b
   097D F8 05              2459 	ldhl	sp,#5
   097F 77                 2460 	ld	(hl),a
                           2461 ;paint.c:290: cursor_x+8 - cursors[current_cursor].hot_x + (x<<3),
   0980 21r05r03           2462 	ld	hl,#_cursor_x
   0983 7E                 2463 	ld	a,(hl)
   0984 C6 08              2464 	add	a, #0x08
   0986 F8 04              2465 	ldhl	sp,#4
   0988 77                 2466 	ld	(hl),a
   0989 F8 07              2467 	ldhl	sp,#7
   098B 2B                 2468 	dec	hl
   098C 4E                 2469 	ld	c,(hl)
   098D 23                 2470 	inc	hl
   098E 46                 2471 	ld	b,(hl)
   098F 03                 2472 	inc	bc
   0990 03                 2473 	inc	bc
   0991 03                 2474 	inc	bc
   0992 0A                 2475 	ld	a,(bc)
   0993 47                 2476 	ld	b,a
   0994 F8 04              2477 	ldhl	sp,#4
   0996 7E                 2478 	ld	a,(hl)
   0997 90                 2479 	sub	a, b
   0998 47                 2480 	ld	b,a
   0999 2B                 2481 	dec	hl
   099A 86                 2482 	add	a, (hl)
   099B 57                 2483 	ld	d,a
                           2484 ;paint.c:289: move_sprite((x<<1)+y,
   099C 2B                 2485 	dec	hl
   099D 3A                 2486 	ld	a,(hl-)
   099E 2B                 2487 	dec	hl
   099F 86                 2488 	add	a, (hl)
   09A0 47                 2489 	ld	b,a
   09A1 F8 05              2490 	ldhl	sp,#5
   09A3 7E                 2491 	ld	a,(hl)
   09A4 F5                 2492 	push	af
   09A5 33                 2493 	inc	sp
   09A6 D5                 2494 	push	de
   09A7 33                 2495 	inc	sp
   09A8 C5                 2496 	push	bc
   09A9 33                 2497 	inc	sp
   09AA CDr00r00           2498 	call	_move_sprite
   09AD E8 03              2499 	add	sp, #3
                           2500 ;paint.c:288: for(y = 0; y < cursors[current_cursor].h; y++)
   09AF F8 00              2501 	ldhl	sp,#0
   09B1 34                 2502 	inc	(hl)
   09B2 C3r34r09           2503 	jp	00104$
   09B5                    2504 00108$:
                           2505 ;paint.c:287: for(x = 0; x < cursors[current_cursor].w; x++)
   09B5 F8 01              2506 	ldhl	sp,#1
   09B7 34                 2507 	inc	(hl)
   09B8 C3r06r09           2508 	jp	00107$
   09BB                    2509 00109$:
   09BB E8 08              2510 	add	sp,#8
   09BD C9                 2511 	ret
   09BE                    2512 _move_cursor_end::
                           2513 ;paint.c:294: void move_menu_cursor()
                           2514 ;	---------------------------------
                           2515 ; Function move_menu_cursor
                           2516 ; ---------------------------------
   09BE                    2517 _move_menu_cursor_start::
   09BE                    2518 _move_menu_cursor:
   09BE F5                 2519 	push	af
   09BF F5                 2520 	push	af
                           2521 ;paint.c:298: ((icons[menu_cursor_pos].y+icons[menu_cursor_pos].h)<<3) + 12);
   09C0 21r04r03           2522 	ld	hl,#_menu_cursor_pos
   09C3 4E                 2523 	ld	c,(hl)
   09C4 06 00              2524 	ld	b,#0x00
   09C6 69                 2525 	ld	l, c
   09C7 60                 2526 	ld	h, b
   09C8 29                 2527 	add	hl, hl
   09C9 29                 2528 	add	hl, hl
   09CA 09                 2529 	add	hl, bc
   09CB 29                 2530 	add	hl, hl
   09CC 4D                 2531 	ld	c,l
   09CD 44                 2532 	ld	b,h
   09CE 21rD6r00           2533 	ld	hl,#_icons
   09D1 09                 2534 	add	hl,bc
   09D2 33                 2535 	inc	sp
   09D3 33                 2536 	inc	sp
   09D4 E5                 2537 	push	hl
   09D5 C1                 2538 	pop	bc
   09D6 C5                 2539 	push	bc
   09D7 03                 2540 	inc	bc
   09D8 03                 2541 	inc	bc
   09D9 0A                 2542 	ld	a,(bc)
   09DA F8 02              2543 	ldhl	sp,#2
   09DC 77                 2544 	ld	(hl),a
   09DD D1                 2545 	pop	de
   09DE D5                 2546 	push	de
   09DF 21 04 00           2547 	ld	hl,#0x0004
   09E2 19                 2548 	add	hl,de
   09E3 4D                 2549 	ld	c,l
   09E4 44                 2550 	ld	b,h
   09E5 0A                 2551 	ld	a,(bc)
   09E6 57                 2552 	ld	d,a
   09E7 F8 02              2553 	ldhl	sp,#2
   09E9 7E                 2554 	ld	a,(hl)
   09EA 82                 2555 	add	a, d
   09EB CB 37              2556 	swap	a
   09ED 0F                 2557 	rrca
   09EE E6 F8              2558 	and	a,#0xF8
   09F0 C6 0C              2559 	add	a, #0x0C
   09F2 77                 2560 	ld	(hl),a
                           2561 ;paint.c:297: ((icons[menu_cursor_pos].x+icons[menu_cursor_pos].w)<<3) + 4,
   09F3 C1                 2562 	pop	bc
   09F4 C5                 2563 	push	bc
   09F5 03                 2564 	inc	bc
   09F6 0A                 2565 	ld	a,(bc)
   09F7 23                 2566 	inc	hl
   09F8 77                 2567 	ld	(hl),a
   09F9 C1                 2568 	pop	bc
   09FA C5                 2569 	push	bc
   09FB 03                 2570 	inc	bc
   09FC 03                 2571 	inc	bc
   09FD 03                 2572 	inc	bc
   09FE 0A                 2573 	ld	a,(bc)
   09FF 57                 2574 	ld	d, a
   0A00 86                 2575 	add	a,(hl)
   0A01 CB 37              2576 	swap	a
   0A03 0F                 2577 	rrca
   0A04 E6 F8              2578 	and	a,#0xF8
   0A06 57                 2579 	ld	d,a
   0A07 14                 2580 	inc	d
   0A08 14                 2581 	inc	d
   0A09 14                 2582 	inc	d
   0A0A 14                 2583 	inc	d
                           2584 ;paint.c:296: move_sprite(0,
   0A0B 2B                 2585 	dec	hl
   0A0C 7E                 2586 	ld	a,(hl)
   0A0D F5                 2587 	push	af
   0A0E 33                 2588 	inc	sp
   0A0F D5                 2589 	push	de
   0A10 33                 2590 	inc	sp
   0A11 AF                 2591 	xor	a, a
   0A12 F5                 2592 	push	af
   0A13 33                 2593 	inc	sp
   0A14 CDr00r00           2594 	call	_move_sprite
   0A17 E8 03              2595 	add	sp, #3
   0A19 E8 04              2596 	add	sp,#4
   0A1B C9                 2597 	ret
   0A1C                    2598 _move_menu_cursor_end::
                           2599 ;paint.c:301: void set_icon(UBYTE icon, UBYTE selected)
                           2600 ;	---------------------------------
                           2601 ; Function set_icon
                           2602 ; ---------------------------------
   0A1C                    2603 _set_icon_start::
   0A1C                    2604 _set_icon:
   0A1C E8 EE              2605 	add	sp, #-18
                           2606 ;paint.c:305: for(x = 0; x < icons[icon].w; x++)
   0A1E F8 14              2607 	ldhl	sp,#20
   0A20 4E                 2608 	ld	c,(hl)
   0A21 06 00              2609 	ld	b,#0x00
   0A23 69                 2610 	ld	l, c
   0A24 60                 2611 	ld	h, b
   0A25 29                 2612 	add	hl, hl
   0A26 29                 2613 	add	hl, hl
   0A27 09                 2614 	add	hl, bc
   0A28 29                 2615 	add	hl, hl
   0A29 4D                 2616 	ld	c,l
   0A2A 44                 2617 	ld	b,h
   0A2B 21rD6r00           2618 	ld	hl,#_icons
   0A2E 09                 2619 	add	hl,bc
   0A2F 7D                 2620 	ld	a,l
   0A30 54                 2621 	ld	d,h
   0A31 F8 10              2622 	ldhl	sp,#16
   0A33 22                 2623 	ld	(hl+),a
   0A34 72                 2624 	ld	(hl),d
   0A35 2B                 2625 	dec	hl
   0A36 5E                 2626 	ld	e,(hl)
   0A37 23                 2627 	inc	hl
   0A38 56                 2628 	ld	d,(hl)
   0A39 21 03 00           2629 	ld	hl,#0x0003
   0A3C 19                 2630 	add	hl,de
   0A3D 7D                 2631 	ld	a,l
   0A3E 54                 2632 	ld	d,h
   0A3F F8 0E              2633 	ldhl	sp,#14
   0A41 22                 2634 	ld	(hl+),a
   0A42 72                 2635 	ld	(hl),d
   0A43 F8 00              2636 	ldhl	sp,#0
   0A45 36 00              2637 	ld	(hl),#0x00
   0A47                    2638 00107$:
   0A47 F8 0F              2639 	ldhl	sp,#15
   0A49 2B                 2640 	dec	hl
   0A4A 5E                 2641 	ld	e,(hl)
   0A4B 23                 2642 	inc	hl
   0A4C 56                 2643 	ld	d,(hl)
   0A4D 1A                 2644 	ld	a,(de)
   0A4E 47                 2645 	ld	b,a
   0A4F F8 00              2646 	ldhl	sp,#0
   0A51 7E                 2647 	ld	a,(hl)
   0A52 90                 2648 	sub	a, b
   0A53 D2r4Cr0B           2649 	jp	NC,00109$
                           2650 ;paint.c:306: for(y = 0; y < icons[icon].h; y++) {
   0A56 F8 11              2651 	ldhl	sp,#17
   0A58 2B                 2652 	dec	hl
   0A59 5E                 2653 	ld	e,(hl)
   0A5A 23                 2654 	inc	hl
   0A5B 56                 2655 	ld	d,(hl)
   0A5C 21 02 00           2656 	ld	hl,#0x0002
   0A5F 19                 2657 	add	hl,de
   0A60 7D                 2658 	ld	a,l
   0A61 54                 2659 	ld	d,h
   0A62 F8 08              2660 	ldhl	sp,#8
   0A64 22                 2661 	ld	(hl+),a
   0A65 72                 2662 	ld	(hl),d
   0A66 F8 11              2663 	ldhl	sp,#17
   0A68 2B                 2664 	dec	hl
   0A69 5E                 2665 	ld	e,(hl)
   0A6A 23                 2666 	inc	hl
   0A6B 56                 2667 	ld	d,(hl)
   0A6C 21 01 00           2668 	ld	hl,#0x0001
   0A6F 19                 2669 	add	hl,de
   0A70 7D                 2670 	ld	a,l
   0A71 54                 2671 	ld	d,h
   0A72 F8 04              2672 	ldhl	sp,#4
   0A74 22                 2673 	ld	(hl+),a
   0A75 72                 2674 	ld	(hl),d
   0A76 F8 11              2675 	ldhl	sp,#17
   0A78 2B                 2676 	dec	hl
   0A79 5E                 2677 	ld	e,(hl)
   0A7A 23                 2678 	inc	hl
   0A7B 56                 2679 	ld	d,(hl)
   0A7C 21 04 00           2680 	ld	hl,#0x0004
   0A7F 19                 2681 	add	hl,de
   0A80 7D                 2682 	ld	a,l
   0A81 54                 2683 	ld	d,h
   0A82 F8 06              2684 	ldhl	sp,#6
   0A84 22                 2685 	ld	(hl+),a
   0A85 72                 2686 	ld	(hl),d
   0A86 F8 01              2687 	ldhl	sp,#1
   0A88 36 00              2688 	ld	(hl),#0x00
   0A8A                    2689 00104$:
   0A8A F8 07              2690 	ldhl	sp,#7
   0A8C 2B                 2691 	dec	hl
   0A8D 5E                 2692 	ld	e,(hl)
   0A8E 23                 2693 	inc	hl
   0A8F 56                 2694 	ld	d,(hl)
   0A90 1A                 2695 	ld	a,(de)
   0A91 47                 2696 	ld	b,a
   0A92 F8 01              2697 	ldhl	sp,#1
   0A94 7E                 2698 	ld	a,(hl)
   0A95 90                 2699 	sub	a, b
   0A96 D2r46r0B           2700 	jp	NC,00108$
                           2701 ;paint.c:307: UWORD index = icons[icon].data_idx+((UWORD)x<<1)+y;
   0A99 F8 11              2702 	ldhl	sp,#17
   0A9B 2B                 2703 	dec	hl
   0A9C 5E                 2704 	ld	e,(hl)
   0A9D 23                 2705 	inc	hl
   0A9E 56                 2706 	ld	d,(hl)
   0A9F 1A                 2707 	ld	a,(de)
   0AA0 4F                 2708 	ld	c,a
   0AA1 06 00              2709 	ld	b,#0x00
   0AA3 F8 00              2710 	ldhl	sp,#0
   0AA5 56                 2711 	ld	d,(hl)
   0AA6 1E 00              2712 	ld	e,#0x00
   0AA8 CB 22              2713 	sla	d
   0AAA CB 13              2714 	rl	e
   0AAC F8 0A              2715 	ldhl	sp,#10
   0AAE 72                 2716 	ld	(hl),d
   0AAF 23                 2717 	inc	hl
   0AB0 73                 2718 	ld	(hl),e
   0AB1 2B                 2719 	dec	hl
   0AB2 2A                 2720 	ld	a,(hl+)
   0AB3 66                 2721 	ld	h,(hl)
   0AB4 6F                 2722 	ld	l,a
   0AB5 09                 2723 	add	hl,bc
   0AB6 7D                 2724 	ld	a,l
   0AB7 54                 2725 	ld	d,h
   0AB8 F8 0A              2726 	ldhl	sp,#10
   0ABA 22                 2727 	ld	(hl+),a
   0ABB 72                 2728 	ld	(hl),d
   0ABC F8 01              2729 	ldhl	sp,#1
   0ABE 4E                 2730 	ld	c,(hl)
   0ABF 06 00              2731 	ld	b,#0x00
   0AC1 F8 0A              2732 	ldhl	sp,#10
   0AC3 2A                 2733 	ld	a,(hl+)
   0AC4 66                 2734 	ld	h,(hl)
   0AC5 6F                 2735 	ld	l,a
   0AC6 09                 2736 	add	hl,bc
   0AC7 4D                 2737 	ld	c,l
   0AC8 44                 2738 	ld	b,h
                           2739 ;paint.c:311: data_buffer[index]);
   0AC9 CB 21              2740 	sla	c
   0ACB CB 10              2741 	rl	b
   0ACD CB 21              2742 	sla	c
   0ACF CB 10              2743 	rl	b
   0AD1 CB 21              2744 	sla	c
   0AD3 CB 10              2745 	rl	b
   0AD5 CB 21              2746 	sla	c
   0AD7 CB 10              2747 	rl	b
   0AD9 F8 0A              2748 	ldhl	sp,#10
   0ADB 71                 2749 	ld	(hl),c
   0ADC 23                 2750 	inc	hl
   0ADD 70                 2751 	ld	(hl),b
   0ADE 11r00r00           2752 	ld	de,#_data_buffer
   0AE1 2B                 2753 	dec	hl
   0AE2 2A                 2754 	ld	a,(hl+)
   0AE3 66                 2755 	ld	h,(hl)
   0AE4 6F                 2756 	ld	l,a
   0AE5 19                 2757 	add	hl,de
   0AE6 45                 2758 	ld	b,l
   0AE7 4C                 2759 	ld	c,h
   0AE8 F8 02              2760 	ldhl	sp,#2
   0AEA 70                 2761 	ld	(hl),b
   0AEB 23                 2762 	inc	hl
   0AEC 71                 2763 	ld	(hl),c
                           2764 ;paint.c:310: selected ? selected_data[index] : data[index],
   0AED F8 15              2765 	ldhl	sp,#21
   0AEF 7E                 2766 	ld	a,(hl)
   0AF0 B7                 2767 	or	a, a
   0AF1 28 11              2768 	jr	Z,00111$
   0AF3 11r8Ar04           2769 	ld	de,#_selected_data
   0AF6 F8 0A              2770 	ldhl	sp,#10
   0AF8 2A                 2771 	ld	a,(hl+)
   0AF9 66                 2772 	ld	h,(hl)
   0AFA 6F                 2773 	ld	l,a
   0AFB 19                 2774 	add	hl,de
   0AFC 7D                 2775 	ld	a,l
   0AFD 54                 2776 	ld	d,h
   0AFE F8 0C              2777 	ldhl	sp,#12
   0B00 22                 2778 	ld	(hl+),a
   0B01 72                 2779 	ld	(hl),d
   0B02 18 0F              2780 	jr	00112$
   0B04                    2781 00111$:
   0B04 11r8Ar01           2782 	ld	de,#_data
   0B07 F8 0A              2783 	ldhl	sp,#10
   0B09 2A                 2784 	ld	a,(hl+)
   0B0A 66                 2785 	ld	h,(hl)
   0B0B 6F                 2786 	ld	l,a
   0B0C 19                 2787 	add	hl,de
   0B0D 7D                 2788 	ld	a,l
   0B0E 54                 2789 	ld	d,h
   0B0F F8 0C              2790 	ldhl	sp,#12
   0B11 22                 2791 	ld	(hl+),a
   0B12 72                 2792 	ld	(hl),d
   0B13                    2793 00112$:
                           2794 ;paint.c:309: icons[icon].y + y,
   0B13 F8 09              2795 	ldhl	sp,#9
   0B15 2B                 2796 	dec	hl
   0B16 5E                 2797 	ld	e,(hl)
   0B17 23                 2798 	inc	hl
   0B18 56                 2799 	ld	d,(hl)
   0B19 1A                 2800 	ld	a,(de)
   0B1A 47                 2801 	ld	b,a
   0B1B F8 01              2802 	ldhl	sp,#1
   0B1D 86                 2803 	add	a, (hl)
   0B1E 47                 2804 	ld	b,a
                           2805 ;paint.c:308: switch_data(icons[icon].x + x,
   0B1F F8 05              2806 	ldhl	sp,#5
   0B21 2B                 2807 	dec	hl
   0B22 5E                 2808 	ld	e,(hl)
   0B23 23                 2809 	inc	hl
   0B24 56                 2810 	ld	d,(hl)
   0B25 1A                 2811 	ld	a,(de)
   0B26 4F                 2812 	ld	c,a
   0B27 F8 00              2813 	ldhl	sp,#0
   0B29 86                 2814 	add	a, (hl)
   0B2A 57                 2815 	ld	d,a
   0B2B 23                 2816 	inc	hl
   0B2C 23                 2817 	inc	hl
   0B2D 2A                 2818 	ld	a,(hl+)
   0B2E 66                 2819 	ld	h,(hl)
   0B2F 6F                 2820 	ld	l,a
   0B30 E5                 2821 	push	hl
   0B31 F8 0E              2822 	ldhl	sp,#14
   0B33 2A                 2823 	ld	a,(hl+)
   0B34 66                 2824 	ld	h,(hl)
   0B35 6F                 2825 	ld	l,a
   0B36 E5                 2826 	push	hl
   0B37 C5                 2827 	push	bc
   0B38 33                 2828 	inc	sp
   0B39 D5                 2829 	push	de
   0B3A 33                 2830 	inc	sp
   0B3B CDr00r00           2831 	call	_switch_data
   0B3E E8 06              2832 	add	sp, #6
                           2833 ;paint.c:306: for(y = 0; y < icons[icon].h; y++) {
   0B40 F8 01              2834 	ldhl	sp,#1
   0B42 34                 2835 	inc	(hl)
   0B43 C3r8Ar0A           2836 	jp	00104$
   0B46                    2837 00108$:
                           2838 ;paint.c:305: for(x = 0; x < icons[icon].w; x++)
   0B46 F8 00              2839 	ldhl	sp,#0
   0B48 34                 2840 	inc	(hl)
   0B49 C3r47r0A           2841 	jp	00107$
   0B4C                    2842 00109$:
   0B4C E8 12              2843 	add	sp,#18
   0B4E C9                 2844 	ret
   0B4F                    2845 _set_icon_end::
                           2846 ;paint.c:315: void change_icon(UBYTE icon, UBYTE selected)
                           2847 ;	---------------------------------
                           2848 ; Function change_icon
                           2849 ; ---------------------------------
   0B4F                    2850 _change_icon_start::
   0B4F                    2851 _change_icon:
   0B4F E8 F0              2852 	add	sp, #-16
                           2853 ;paint.c:319: for(x = 0; x < icons[icon].w; x++)
   0B51 F8 12              2854 	ldhl	sp,#18
   0B53 4E                 2855 	ld	c,(hl)
   0B54 06 00              2856 	ld	b,#0x00
   0B56 69                 2857 	ld	l, c
   0B57 60                 2858 	ld	h, b
   0B58 29                 2859 	add	hl, hl
   0B59 29                 2860 	add	hl, hl
   0B5A 09                 2861 	add	hl, bc
   0B5B 29                 2862 	add	hl, hl
   0B5C 4D                 2863 	ld	c,l
   0B5D 44                 2864 	ld	b,h
   0B5E 21rD6r00           2865 	ld	hl,#_icons
   0B61 09                 2866 	add	hl,bc
   0B62 7D                 2867 	ld	a,l
   0B63 54                 2868 	ld	d,h
   0B64 F8 02              2869 	ldhl	sp,#2
   0B66 22                 2870 	ld	(hl+),a
   0B67 72                 2871 	ld	(hl),d
   0B68 2B                 2872 	dec	hl
   0B69 5E                 2873 	ld	e,(hl)
   0B6A 23                 2874 	inc	hl
   0B6B 56                 2875 	ld	d,(hl)
   0B6C 21 03 00           2876 	ld	hl,#0x0003
   0B6F 19                 2877 	add	hl,de
   0B70 7D                 2878 	ld	a,l
   0B71 54                 2879 	ld	d,h
   0B72 F8 08              2880 	ldhl	sp,#8
   0B74 22                 2881 	ld	(hl+),a
   0B75 72                 2882 	ld	(hl),d
   0B76 F8 01              2883 	ldhl	sp,#1
   0B78 36 00              2884 	ld	(hl),#0x00
   0B7A                    2885 00107$:
   0B7A F8 09              2886 	ldhl	sp,#9
   0B7C 2B                 2887 	dec	hl
   0B7D 5E                 2888 	ld	e,(hl)
   0B7E 23                 2889 	inc	hl
   0B7F 56                 2890 	ld	d,(hl)
   0B80 1A                 2891 	ld	a,(de)
   0B81 47                 2892 	ld	b,a
   0B82 F8 01              2893 	ldhl	sp,#1
   0B84 7E                 2894 	ld	a,(hl)
   0B85 90                 2895 	sub	a, b
   0B86 D2r53r0C           2896 	jp	NC,00109$
                           2897 ;paint.c:320: for(y = 0; y < icons[icon].h; y++)
   0B89 23                 2898 	inc	hl
   0B8A 5E                 2899 	ld	e,(hl)
   0B8B 23                 2900 	inc	hl
   0B8C 56                 2901 	ld	d,(hl)
   0B8D 21 02 00           2902 	ld	hl,#0x0002
   0B90 19                 2903 	add	hl,de
   0B91 7D                 2904 	ld	a,l
   0B92 54                 2905 	ld	d,h
   0B93 F8 04              2906 	ldhl	sp,#4
   0B95 22                 2907 	ld	(hl+),a
   0B96 72                 2908 	ld	(hl),d
   0B97 2B                 2909 	dec	hl
   0B98 2B                 2910 	dec	hl
   0B99 2B                 2911 	dec	hl
   0B9A 5E                 2912 	ld	e,(hl)
   0B9B 23                 2913 	inc	hl
   0B9C 56                 2914 	ld	d,(hl)
   0B9D 21 01 00           2915 	ld	hl,#0x0001
   0BA0 19                 2916 	add	hl,de
   0BA1 7D                 2917 	ld	a,l
   0BA2 54                 2918 	ld	d,h
   0BA3 F8 0E              2919 	ldhl	sp,#14
   0BA5 22                 2920 	ld	(hl+),a
   0BA6 72                 2921 	ld	(hl),d
   0BA7 F8 03              2922 	ldhl	sp,#3
   0BA9 2B                 2923 	dec	hl
   0BAA 5E                 2924 	ld	e,(hl)
   0BAB 23                 2925 	inc	hl
   0BAC 56                 2926 	ld	d,(hl)
   0BAD 21 04 00           2927 	ld	hl,#0x0004
   0BB0 19                 2928 	add	hl,de
   0BB1 7D                 2929 	ld	a,l
   0BB2 54                 2930 	ld	d,h
   0BB3 F8 0C              2931 	ldhl	sp,#12
   0BB5 22                 2932 	ld	(hl+),a
   0BB6 72                 2933 	ld	(hl),d
   0BB7 F8 00              2934 	ldhl	sp,#0
   0BB9 36 00              2935 	ld	(hl),#0x00
   0BBB                    2936 00104$:
   0BBB F8 0D              2937 	ldhl	sp,#13
   0BBD 2B                 2938 	dec	hl
   0BBE 5E                 2939 	ld	e,(hl)
   0BBF 23                 2940 	inc	hl
   0BC0 56                 2941 	ld	d,(hl)
   0BC1 1A                 2942 	ld	a,(de)
   0BC2 47                 2943 	ld	b,a
   0BC3 F8 00              2944 	ldhl	sp,#0
   0BC5 7E                 2945 	ld	a,(hl)
   0BC6 90                 2946 	sub	a, b
   0BC7 D2r4Dr0C           2947 	jp	NC,00108$
                           2948 ;paint.c:324: selected_data[icons[icon].data_idx+((UWORD)x<<1)+y] :
   0BCA F8 03              2949 	ldhl	sp,#3
   0BCC 2B                 2950 	dec	hl
   0BCD 5E                 2951 	ld	e,(hl)
   0BCE 23                 2952 	inc	hl
   0BCF 56                 2953 	ld	d,(hl)
   0BD0 1A                 2954 	ld	a,(de)
   0BD1 47                 2955 	ld	b,a
   0BD2 2B                 2956 	dec	hl
   0BD3 2B                 2957 	dec	hl
   0BD4 56                 2958 	ld	d,(hl)
   0BD5 1E 00              2959 	ld	e,#0x00
   0BD7 CB 22              2960 	sla	d
   0BD9 78                 2961 	ld	a,b
   0BDA 82                 2962 	add	a, d
   0BDB 57                 2963 	ld	d,a
   0BDC 2B                 2964 	dec	hl
   0BDD 86                 2965 	add	a, (hl)
   0BDE 57                 2966 	ld	d,a
   0BDF 1E 00              2967 	ld	e,#0x00
   0BE1 CB 22              2968 	sla	d
   0BE3 CB 13              2969 	rl	e
   0BE5 CB 22              2970 	sla	d
   0BE7 CB 13              2971 	rl	e
   0BE9 CB 22              2972 	sla	d
   0BEB CB 13              2973 	rl	e
   0BED CB 22              2974 	sla	d
   0BEF CB 13              2975 	rl	e
   0BF1 F8 0A              2976 	ldhl	sp,#10
   0BF3 72                 2977 	ld	(hl),d
   0BF4 23                 2978 	inc	hl
   0BF5 73                 2979 	ld	(hl),e
                           2980 ;paint.c:323: (selected ?
   0BF6 F8 13              2981 	ldhl	sp,#19
   0BF8 7E                 2982 	ld	a,(hl)
   0BF9 B7                 2983 	or	a, a
   0BFA 28 11              2984 	jr	Z,00111$
                           2985 ;paint.c:324: selected_data[icons[icon].data_idx+((UWORD)x<<1)+y] :
   0BFC 11r8Ar04           2986 	ld	de,#_selected_data
   0BFF F8 0A              2987 	ldhl	sp,#10
   0C01 2A                 2988 	ld	a,(hl+)
   0C02 66                 2989 	ld	h,(hl)
   0C03 6F                 2990 	ld	l,a
   0C04 19                 2991 	add	hl,de
   0C05 7D                 2992 	ld	a,l
   0C06 54                 2993 	ld	d,h
   0C07 F8 06              2994 	ldhl	sp,#6
   0C09 22                 2995 	ld	(hl+),a
   0C0A 72                 2996 	ld	(hl),d
   0C0B 18 0F              2997 	jr	00112$
   0C0D                    2998 00111$:
                           2999 ;paint.c:325: data[icons[icon].data_idx+((UWORD)x<<1)+y]),
   0C0D 11r8Ar01           3000 	ld	de,#_data
   0C10 F8 0A              3001 	ldhl	sp,#10
   0C12 2A                 3002 	ld	a,(hl+)
   0C13 66                 3003 	ld	h,(hl)
   0C14 6F                 3004 	ld	l,a
   0C15 19                 3005 	add	hl,de
   0C16 7D                 3006 	ld	a,l
   0C17 54                 3007 	ld	d,h
   0C18 F8 06              3008 	ldhl	sp,#6
   0C1A 22                 3009 	ld	(hl+),a
   0C1B 72                 3010 	ld	(hl),d
   0C1C                    3011 00112$:
                           3012 ;paint.c:322: icons[icon].y + y,
   0C1C F8 05              3013 	ldhl	sp,#5
   0C1E 2B                 3014 	dec	hl
   0C1F 5E                 3015 	ld	e,(hl)
   0C20 23                 3016 	inc	hl
   0C21 56                 3017 	ld	d,(hl)
   0C22 1A                 3018 	ld	a,(de)
   0C23 47                 3019 	ld	b,a
   0C24 F8 00              3020 	ldhl	sp,#0
   0C26 86                 3021 	add	a, (hl)
   0C27 47                 3022 	ld	b,a
                           3023 ;paint.c:321: switch_data(icons[icon].x + x,
   0C28 F8 0F              3024 	ldhl	sp,#15
   0C2A 2B                 3025 	dec	hl
   0C2B 5E                 3026 	ld	e,(hl)
   0C2C 23                 3027 	inc	hl
   0C2D 56                 3028 	ld	d,(hl)
   0C2E 1A                 3029 	ld	a,(de)
   0C2F 4F                 3030 	ld	c,a
   0C30 F8 01              3031 	ldhl	sp,#1
   0C32 86                 3032 	add	a, (hl)
   0C33 57                 3033 	ld	d,a
   0C34 21 00 00           3034 	ld	hl,#0x0000
   0C37 E5                 3035 	push	hl
   0C38 F8 08              3036 	ldhl	sp,#8
   0C3A 2A                 3037 	ld	a,(hl+)
   0C3B 66                 3038 	ld	h,(hl)
   0C3C 6F                 3039 	ld	l,a
   0C3D E5                 3040 	push	hl
   0C3E C5                 3041 	push	bc
   0C3F 33                 3042 	inc	sp
   0C40 D5                 3043 	push	de
   0C41 33                 3044 	inc	sp
   0C42 CDr00r00           3045 	call	_switch_data
   0C45 E8 06              3046 	add	sp, #6
                           3047 ;paint.c:320: for(y = 0; y < icons[icon].h; y++)
   0C47 F8 00              3048 	ldhl	sp,#0
   0C49 34                 3049 	inc	(hl)
   0C4A C3rBBr0B           3050 	jp	00104$
   0C4D                    3051 00108$:
                           3052 ;paint.c:319: for(x = 0; x < icons[icon].w; x++)
   0C4D F8 01              3053 	ldhl	sp,#1
   0C4F 34                 3054 	inc	(hl)
   0C50 C3r7Ar0B           3055 	jp	00107$
   0C53                    3056 00109$:
   0C53 E8 10              3057 	add	sp,#16
   0C55 C9                 3058 	ret
   0C56                    3059 _change_icon_end::
                           3060 ;paint.c:329: void reset_icon(UBYTE icon)
                           3061 ;	---------------------------------
                           3062 ; Function reset_icon
                           3063 ; ---------------------------------
   0C56                    3064 _reset_icon_start::
   0C56                    3065 _reset_icon:
   0C56 E8 F1              3066 	add	sp, #-15
                           3067 ;paint.c:333: for(x = 0; x < icons[icon].w; x++)
   0C58 F8 11              3068 	ldhl	sp,#17
   0C5A 4E                 3069 	ld	c,(hl)
   0C5B 06 00              3070 	ld	b,#0x00
   0C5D 69                 3071 	ld	l, c
   0C5E 60                 3072 	ld	h, b
   0C5F 29                 3073 	add	hl, hl
   0C60 29                 3074 	add	hl, hl
   0C61 09                 3075 	add	hl, bc
   0C62 29                 3076 	add	hl, hl
   0C63 4D                 3077 	ld	c,l
   0C64 44                 3078 	ld	b,h
   0C65 21rD6r00           3079 	ld	hl,#_icons
   0C68 09                 3080 	add	hl,bc
   0C69 7D                 3081 	ld	a,l
   0C6A 54                 3082 	ld	d,h
   0C6B F8 02              3083 	ldhl	sp,#2
   0C6D 22                 3084 	ld	(hl+),a
   0C6E 72                 3085 	ld	(hl),d
   0C6F 2B                 3086 	dec	hl
   0C70 5E                 3087 	ld	e,(hl)
   0C71 23                 3088 	inc	hl
   0C72 56                 3089 	ld	d,(hl)
   0C73 21 03 00           3090 	ld	hl,#0x0003
   0C76 19                 3091 	add	hl,de
   0C77 7D                 3092 	ld	a,l
   0C78 54                 3093 	ld	d,h
   0C79 F8 09              3094 	ldhl	sp,#9
   0C7B 22                 3095 	ld	(hl+),a
   0C7C 72                 3096 	ld	(hl),d
   0C7D F8 01              3097 	ldhl	sp,#1
   0C7F 36 00              3098 	ld	(hl),#0x00
   0C81                    3099 00107$:
   0C81 F8 0A              3100 	ldhl	sp,#10
   0C83 2B                 3101 	dec	hl
   0C84 5E                 3102 	ld	e,(hl)
   0C85 23                 3103 	inc	hl
   0C86 56                 3104 	ld	d,(hl)
   0C87 1A                 3105 	ld	a,(de)
   0C88 47                 3106 	ld	b,a
   0C89 F8 01              3107 	ldhl	sp,#1
   0C8B 7E                 3108 	ld	a,(hl)
   0C8C 90                 3109 	sub	a, b
   0C8D D2r3Cr0D           3110 	jp	NC,00109$
                           3111 ;paint.c:334: for(y = 0; y < icons[icon].h; y++)
   0C90 7E                 3112 	ld	a,(hl)
   0C91 87                 3113 	add	a, a
   0C92 F8 08              3114 	ldhl	sp,#8
   0C94 77                 3115 	ld	(hl),a
   0C95 F8 03              3116 	ldhl	sp,#3
   0C97 2B                 3117 	dec	hl
   0C98 5E                 3118 	ld	e,(hl)
   0C99 23                 3119 	inc	hl
   0C9A 56                 3120 	ld	d,(hl)
   0C9B 21 02 00           3121 	ld	hl,#0x0002
   0C9E 19                 3122 	add	hl,de
   0C9F 7D                 3123 	ld	a,l
   0CA0 54                 3124 	ld	d,h
   0CA1 F8 0D              3125 	ldhl	sp,#13
   0CA3 22                 3126 	ld	(hl+),a
   0CA4 72                 3127 	ld	(hl),d
   0CA5 F8 03              3128 	ldhl	sp,#3
   0CA7 2B                 3129 	dec	hl
   0CA8 5E                 3130 	ld	e,(hl)
   0CA9 23                 3131 	inc	hl
   0CAA 56                 3132 	ld	d,(hl)
   0CAB 21 01 00           3133 	ld	hl,#0x0001
   0CAE 19                 3134 	add	hl,de
   0CAF 7D                 3135 	ld	a,l
   0CB0 54                 3136 	ld	d,h
   0CB1 F8 0B              3137 	ldhl	sp,#11
   0CB3 22                 3138 	ld	(hl+),a
   0CB4 72                 3139 	ld	(hl),d
   0CB5 F8 03              3140 	ldhl	sp,#3
   0CB7 2B                 3141 	dec	hl
   0CB8 5E                 3142 	ld	e,(hl)
   0CB9 23                 3143 	inc	hl
   0CBA 56                 3144 	ld	d,(hl)
   0CBB 21 04 00           3145 	ld	hl,#0x0004
   0CBE 19                 3146 	add	hl,de
   0CBF 7D                 3147 	ld	a,l
   0CC0 54                 3148 	ld	d,h
   0CC1 F8 06              3149 	ldhl	sp,#6
   0CC3 22                 3150 	ld	(hl+),a
   0CC4 72                 3151 	ld	(hl),d
   0CC5 F8 00              3152 	ldhl	sp,#0
   0CC7 36 00              3153 	ld	(hl),#0x00
   0CC9                    3154 00104$:
   0CC9 F8 07              3155 	ldhl	sp,#7
   0CCB 2B                 3156 	dec	hl
   0CCC 5E                 3157 	ld	e,(hl)
   0CCD 23                 3158 	inc	hl
   0CCE 56                 3159 	ld	d,(hl)
   0CCF 1A                 3160 	ld	a,(de)
   0CD0 47                 3161 	ld	b,a
   0CD1 F8 00              3162 	ldhl	sp,#0
   0CD3 7E                 3163 	ld	a,(hl)
   0CD4 90                 3164 	sub	a, b
   0CD5 D2r36r0D           3165 	jp	NC,00108$
                           3166 ;paint.c:337: data_buffer[icons[icon].data_idx+(x<<1)+y],
   0CD8 F8 03              3167 	ldhl	sp,#3
   0CDA 2B                 3168 	dec	hl
   0CDB 5E                 3169 	ld	e,(hl)
   0CDC 23                 3170 	inc	hl
   0CDD 56                 3171 	ld	d,(hl)
   0CDE 1A                 3172 	ld	a,(de)
   0CDF 47                 3173 	ld	b,a
   0CE0 F8 08              3174 	ldhl	sp,#8
   0CE2 86                 3175 	add	a, (hl)
   0CE3 57                 3176 	ld	d,a
   0CE4 F8 00              3177 	ldhl	sp,#0
   0CE6 86                 3178 	add	a, (hl)
   0CE7 4F                 3179 	ld	c,a
   0CE8 06 00              3180 	ld	b,#0x00
   0CEA CB 21              3181 	sla	c
   0CEC CB 10              3182 	rl	b
   0CEE CB 21              3183 	sla	c
   0CF0 CB 10              3184 	rl	b
   0CF2 CB 21              3185 	sla	c
   0CF4 CB 10              3186 	rl	b
   0CF6 CB 21              3187 	sla	c
   0CF8 CB 10              3188 	rl	b
   0CFA 21r00r00           3189 	ld	hl,#_data_buffer
   0CFD 09                 3190 	add	hl,bc
   0CFE 4D                 3191 	ld	c,l
   0CFF 44                 3192 	ld	b,h
   0D00 F8 04              3193 	ldhl	sp,#4
   0D02 71                 3194 	ld	(hl),c
   0D03 23                 3195 	inc	hl
   0D04 70                 3196 	ld	(hl),b
                           3197 ;paint.c:336: icons[icon].y + y,
   0D05 F8 0E              3198 	ldhl	sp,#14
   0D07 2B                 3199 	dec	hl
   0D08 5E                 3200 	ld	e,(hl)
   0D09 23                 3201 	inc	hl
   0D0A 56                 3202 	ld	d,(hl)
   0D0B 1A                 3203 	ld	a,(de)
   0D0C 47                 3204 	ld	b,a
   0D0D F8 00              3205 	ldhl	sp,#0
   0D0F 86                 3206 	add	a, (hl)
   0D10 47                 3207 	ld	b,a
                           3208 ;paint.c:335: switch_data(icons[icon].x + x,
   0D11 F8 0C              3209 	ldhl	sp,#12
   0D13 2B                 3210 	dec	hl
   0D14 5E                 3211 	ld	e,(hl)
   0D15 23                 3212 	inc	hl
   0D16 56                 3213 	ld	d,(hl)
   0D17 1A                 3214 	ld	a,(de)
   0D18 4F                 3215 	ld	c,a
   0D19 F8 01              3216 	ldhl	sp,#1
   0D1B 86                 3217 	add	a, (hl)
   0D1C 57                 3218 	ld	d,a
   0D1D 21 00 00           3219 	ld	hl,#0x0000
   0D20 E5                 3220 	push	hl
   0D21 F8 06              3221 	ldhl	sp,#6
   0D23 2A                 3222 	ld	a,(hl+)
   0D24 66                 3223 	ld	h,(hl)
   0D25 6F                 3224 	ld	l,a
   0D26 E5                 3225 	push	hl
   0D27 C5                 3226 	push	bc
   0D28 33                 3227 	inc	sp
   0D29 D5                 3228 	push	de
   0D2A 33                 3229 	inc	sp
   0D2B CDr00r00           3230 	call	_switch_data
   0D2E E8 06              3231 	add	sp, #6
                           3232 ;paint.c:334: for(y = 0; y < icons[icon].h; y++)
   0D30 F8 00              3233 	ldhl	sp,#0
   0D32 34                 3234 	inc	(hl)
   0D33 C3rC9r0C           3235 	jp	00104$
   0D36                    3236 00108$:
                           3237 ;paint.c:333: for(x = 0; x < icons[icon].w; x++)
   0D36 F8 01              3238 	ldhl	sp,#1
   0D38 34                 3239 	inc	(hl)
   0D39 C3r81r0C           3240 	jp	00107$
   0D3C                    3241 00109$:
   0D3C E8 0F              3242 	add	sp,#15
   0D3E C9                 3243 	ret
   0D3F                    3244 _reset_icon_end::
                           3245 ;paint.c:341: void splash()
                           3246 ;	---------------------------------
                           3247 ; Function splash
                           3248 ; ---------------------------------
   0D3F                    3249 _splash_start::
   0D3F                    3250 _splash:
                           3251 ;paint.c:345: cursor_x = 40;
   0D3F 21r05r03           3252 	ld	hl,#_cursor_x
   0D42 36 28              3253 	ld	(hl),#0x28
                           3254 ;paint.c:346: cursor_y = 50;
   0D44 21r06r03           3255 	ld	hl,#_cursor_y
   0D47 36 32              3256 	ld	(hl),#0x32
                           3257 ;paint.c:347: current_cursor = PEN;
   0D49 21r03r03           3258 	ld	hl,#_current_cursor
   0D4C 36 01              3259 	ld	(hl),#0x01
                           3260 ;paint.c:348: set_cursor();
   0D4E CDr00r00           3261 	call	_set_cursor
                           3262 ;paint.c:349: move_cursor();
   0D51 CDr00r09           3263 	call	_move_cursor
                           3264 ;paint.c:350: SHOW_SPRITES;
   0D54 11 40 FF           3265 	ld	de,#0xFF40
   0D57 1A                 3266 	ld	a,(de)
   0D58 5F                 3267 	ld	e,a
   0D59 16 00              3268 	ld	d,#0x00
   0D5B 7B                 3269 	ld	a,e
   0D5C CB CF              3270 	set	1, a
   0D5E 47                 3271 	ld	b,a
   0D5F 21 40 FF           3272 	ld	hl,#0xFF40
   0D62 70                 3273 	ld	(hl),b
   0D63                    3274 00108$:
                           3275 ;paint.c:352: for(; cursor_x < 120; cursor_x++) {
   0D63 21r05r03           3276 	ld	hl,#_cursor_x
   0D66 7E                 3277 	ld	a,(hl)
   0D67 D6 78              3278 	sub	a, #0x78
   0D69 30 21              3279 	jr	NC,00111$
                           3280 ;paint.c:353: wait_vbl_done();
   0D6B CDr00r00           3281 	call	_wait_vbl_done
                           3282 ;paint.c:354: move_cursor();
   0D6E CDr00r09           3283 	call	_move_cursor
                           3284 ;paint.c:355: plot(cursor_x, cursor_y, BLACK, SOLID);
   0D71 21 03 00           3285 	ld	hl,#0x0003
   0D74 E5                 3286 	push	hl
   0D75 21r06r03           3287 	ld	hl,#_cursor_y
   0D78 7E                 3288 	ld	a,(hl)
   0D79 F5                 3289 	push	af
   0D7A 33                 3290 	inc	sp
   0D7B 21r05r03           3291 	ld	hl,#_cursor_x
   0D7E 7E                 3292 	ld	a,(hl)
   0D7F F5                 3293 	push	af
   0D80 33                 3294 	inc	sp
   0D81 CDr00r00           3295 	call	_plot
   0D84 E8 04              3296 	add	sp, #4
                           3297 ;paint.c:352: for(; cursor_x < 120; cursor_x++) {
   0D86 21r05r03           3298 	ld	hl,#_cursor_x
   0D89 34                 3299 	inc	(hl)
   0D8A 18 D7              3300 	jr	00108$
   0D8C                    3301 00111$:
                           3302 ;paint.c:357: for(; cursor_y < 94; cursor_y++) {
   0D8C 21r06r03           3303 	ld	hl,#_cursor_y
   0D8F 7E                 3304 	ld	a,(hl)
   0D90 D6 5E              3305 	sub	a, #0x5E
   0D92 30 21              3306 	jr	NC,00114$
                           3307 ;paint.c:358: wait_vbl_done();
   0D94 CDr00r00           3308 	call	_wait_vbl_done
                           3309 ;paint.c:359: move_cursor();
   0D97 CDr00r09           3310 	call	_move_cursor
                           3311 ;paint.c:360: plot(cursor_x, cursor_y, BLACK, SOLID);
   0D9A 21 03 00           3312 	ld	hl,#0x0003
   0D9D E5                 3313 	push	hl
   0D9E 21r06r03           3314 	ld	hl,#_cursor_y
   0DA1 7E                 3315 	ld	a,(hl)
   0DA2 F5                 3316 	push	af
   0DA3 33                 3317 	inc	sp
   0DA4 21r05r03           3318 	ld	hl,#_cursor_x
   0DA7 7E                 3319 	ld	a,(hl)
   0DA8 F5                 3320 	push	af
   0DA9 33                 3321 	inc	sp
   0DAA CDr00r00           3322 	call	_plot
   0DAD E8 04              3323 	add	sp, #4
                           3324 ;paint.c:357: for(; cursor_y < 94; cursor_y++) {
   0DAF 21r06r03           3325 	ld	hl,#_cursor_y
   0DB2 34                 3326 	inc	(hl)
   0DB3 18 D7              3327 	jr	00111$
   0DB5                    3328 00114$:
                           3329 ;paint.c:362: for(; cursor_x > 40; cursor_x--) {
   0DB5 3E 28              3330 	ld	a,#0x28
   0DB7 21r05r03           3331 	ld	hl,#_cursor_x
   0DBA 96                 3332 	sub	a, (hl)
   0DBB 30 21              3333 	jr	NC,00117$
                           3334 ;paint.c:363: wait_vbl_done();
   0DBD CDr00r00           3335 	call	_wait_vbl_done
                           3336 ;paint.c:364: move_cursor();
   0DC0 CDr00r09           3337 	call	_move_cursor
                           3338 ;paint.c:365: plot(cursor_x, cursor_y, BLACK, SOLID);
   0DC3 21 03 00           3339 	ld	hl,#0x0003
   0DC6 E5                 3340 	push	hl
   0DC7 21r06r03           3341 	ld	hl,#_cursor_y
   0DCA 7E                 3342 	ld	a,(hl)
   0DCB F5                 3343 	push	af
   0DCC 33                 3344 	inc	sp
   0DCD 21r05r03           3345 	ld	hl,#_cursor_x
   0DD0 7E                 3346 	ld	a,(hl)
   0DD1 F5                 3347 	push	af
   0DD2 33                 3348 	inc	sp
   0DD3 CDr00r00           3349 	call	_plot
   0DD6 E8 04              3350 	add	sp, #4
                           3351 ;paint.c:362: for(; cursor_x > 40; cursor_x--) {
   0DD8 21r05r03           3352 	ld	hl,#_cursor_x
   0DDB 35                 3353 	dec	(hl)
   0DDC 18 D7              3354 	jr	00114$
   0DDE                    3355 00117$:
                           3356 ;paint.c:367: for(; cursor_y > 50; cursor_y--) {
   0DDE 3E 32              3357 	ld	a,#0x32
   0DE0 21r06r03           3358 	ld	hl,#_cursor_y
   0DE3 96                 3359 	sub	a, (hl)
   0DE4 30 21              3360 	jr	NC,00104$
                           3361 ;paint.c:368: wait_vbl_done();
   0DE6 CDr00r00           3362 	call	_wait_vbl_done
                           3363 ;paint.c:369: move_cursor();
   0DE9 CDr00r09           3364 	call	_move_cursor
                           3365 ;paint.c:370: plot(cursor_x, cursor_y, BLACK, SOLID);
   0DEC 21 03 00           3366 	ld	hl,#0x0003
   0DEF E5                 3367 	push	hl
   0DF0 21r06r03           3368 	ld	hl,#_cursor_y
   0DF3 7E                 3369 	ld	a,(hl)
   0DF4 F5                 3370 	push	af
   0DF5 33                 3371 	inc	sp
   0DF6 21r05r03           3372 	ld	hl,#_cursor_x
   0DF9 7E                 3373 	ld	a,(hl)
   0DFA F5                 3374 	push	af
   0DFB 33                 3375 	inc	sp
   0DFC CDr00r00           3376 	call	_plot
   0DFF E8 04              3377 	add	sp, #4
                           3378 ;paint.c:367: for(; cursor_y > 50; cursor_y--) {
   0E01 21r06r03           3379 	ld	hl,#_cursor_y
   0E04 35                 3380 	dec	(hl)
   0E05 18 D7              3381 	jr	00117$
   0E07                    3382 00104$:
                           3383 ;paint.c:372: cursor_x = 160/2;
   0E07 21r05r03           3384 	ld	hl,#_cursor_x
   0E0A 36 50              3385 	ld	(hl),#0x50
                           3386 ;paint.c:373: cursor_y = 144/2;
   0E0C 21r06r03           3387 	ld	hl,#_cursor_y
   0E0F 36 48              3388 	ld	(hl),#0x48
                           3389 ;paint.c:374: current_cursor = FILL;
   0E11 21r03r03           3390 	ld	hl,#_current_cursor
   0E14 36 03              3391 	ld	(hl),#0x03
                           3392 ;paint.c:375: set_cursor();
   0E16 CDr00r00           3393 	call	_set_cursor
                           3394 ;paint.c:376: move_cursor();
   0E19 CDr00r09           3395 	call	_move_cursor
                           3396 ;paint.c:378: for(y = 51; y < 94; y++)
   0E1C 06 33              3397 	ld	b,#0x33
                           3398 ;paint.c:379: for(x = 41; x < 120; x++)
   0E1E                    3399 00133$:
   0E1E 0E 29              3400 	ld	c,#0x29
   0E20                    3401 00119$:
                           3402 ;paint.c:380: plot(x, y, LTGREY, SOLID);
   0E20 C5                 3403 	push	bc
   0E21 21 01 00           3404 	ld	hl,#0x0001
   0E24 E5                 3405 	push	hl
   0E25 C5                 3406 	push	bc
   0E26 33                 3407 	inc	sp
   0E27 79                 3408 	ld	a,c
   0E28 F5                 3409 	push	af
   0E29 33                 3410 	inc	sp
   0E2A CDr00r00           3411 	call	_plot
   0E2D E8 04              3412 	add	sp, #4
   0E2F C1                 3413 	pop	bc
                           3414 ;paint.c:379: for(x = 41; x < 120; x++)
   0E30 0C                 3415 	inc	c
   0E31 79                 3416 	ld	a,c
   0E32 D6 78              3417 	sub	a, #0x78
   0E34 38 EA              3418 	jr	C,00119$
                           3419 ;paint.c:378: for(y = 51; y < 94; y++)
   0E36 04                 3420 	inc	b
   0E37 78                 3421 	ld	a,b
   0E38 D6 5E              3422 	sub	a, #0x5E
   0E3A 38 E2              3423 	jr	C,00133$
   0E3C C9                 3424 	ret
   0E3D                    3425 _splash_end::
                           3426 ;paint.c:385: void menu()
                           3427 ;	---------------------------------
                           3428 ; Function menu
                           3429 ; ---------------------------------
   0E3D                    3430 _menu_start::
   0E3D                    3431 _menu:
   0E3D E8 F7              3432 	add	sp, #-9
                           3433 ;paint.c:391: slowdown = 50;
   0E3F F8 01              3434 	ldhl	sp,#1
   0E41 36 32              3435 	ld	(hl),#0x32
                           3436 ;paint.c:393: for(i = 0; i < NB_TOOLS; i++)
   0E43 23                 3437 	inc	hl
   0E44 36 00              3438 	ld	(hl),#0x00
   0E46                    3439 00139$:
                           3440 ;paint.c:395: i == FIRST_TOOL + current_tool ||
   0E46 21r00r03           3441 	ld	hl,#_current_tool
   0E49 46                 3442 	ld	b,(hl)
   0E4A 0E 00              3443 	ld	c,#0x00
   0E4C F8 02              3444 	ldhl	sp,#2
   0E4E 7E                 3445 	ld	a,(hl)
   0E4F F8 05              3446 	ldhl	sp,#5
   0E51 22                 3447 	ld	(hl+),a
   0E52 36 00              3448 	ld	(hl),#0x00
   0E54 78                 3449 	ld	a,b
   0E55 2B                 3450 	dec	hl
   0E56 96                 3451 	sub	a, (hl)
   0E57 20 05              3452 	jr	NZ,00232$
   0E59 79                 3453 	ld	a,c
   0E5A 23                 3454 	inc	hl
   0E5B 96                 3455 	sub	a, (hl)
   0E5C 28 32              3456 	jr	Z,00146$
   0E5E                    3457 00232$:
                           3458 ;paint.c:396: i == FIRST_COLOR + current_color ||
   0E5E 21r01r03           3459 	ld	hl,#_current_color
   0E61 4E                 3460 	ld	c,(hl)
   0E62 06 00              3461 	ld	b,#0x00
   0E64 21 0A 00           3462 	ld	hl,#0x000A
   0E67 09                 3463 	add	hl,bc
   0E68 4D                 3464 	ld	c,l
   0E69 44                 3465 	ld	b,h
   0E6A F8 05              3466 	ldhl	sp,#5
   0E6C 7E                 3467 	ld	a,(hl)
   0E6D 91                 3468 	sub	a, c
   0E6E 20 05              3469 	jr	NZ,00233$
   0E70 23                 3470 	inc	hl
   0E71 7E                 3471 	ld	a,(hl)
   0E72 90                 3472 	sub	a, b
   0E73 28 1B              3473 	jr	Z,00146$
   0E75                    3474 00233$:
                           3475 ;paint.c:397: i == FIRST_MODE + current_mode);
   0E75 21r02r03           3476 	ld	hl,#_current_mode
   0E78 4E                 3477 	ld	c,(hl)
   0E79 06 00              3478 	ld	b,#0x00
   0E7B 21 0E 00           3479 	ld	hl,#0x000E
   0E7E 09                 3480 	add	hl,bc
   0E7F 4D                 3481 	ld	c,l
   0E80 44                 3482 	ld	b,h
   0E81 F8 05              3483 	ldhl	sp,#5
   0E83 7E                 3484 	ld	a,(hl)
   0E84 91                 3485 	sub	a, c
   0E85 20 05              3486 	jr	NZ,00234$
   0E87 23                 3487 	inc	hl
   0E88 7E                 3488 	ld	a,(hl)
   0E89 90                 3489 	sub	a, b
   0E8A 28 04              3490 	jr	Z,00146$
   0E8C                    3491 00234$:
   0E8C 16 00              3492 	ld	d,#0x00
   0E8E 18 02              3493 	jr	00147$
   0E90                    3494 00146$:
   0E90 16 01              3495 	ld	d,#0x01
   0E92                    3496 00147$:
                           3497 ;paint.c:394: set_icon(i,
   0E92 D5                 3498 	push	de
   0E93 33                 3499 	inc	sp
   0E94 F8 03              3500 	ldhl	sp,#3
   0E96 7E                 3501 	ld	a,(hl)
   0E97 F5                 3502 	push	af
   0E98 33                 3503 	inc	sp
   0E99 CDr1Cr0A           3504 	call	_set_icon
   0E9C F1                 3505 	pop	af
                           3506 ;paint.c:393: for(i = 0; i < NB_TOOLS; i++)
   0E9D F8 02              3507 	ldhl	sp,#2
   0E9F 34                 3508 	inc	(hl)
   0EA0 7E                 3509 	ld	a,(hl)
   0EA1 D6 12              3510 	sub	a, #0x12
   0EA3 DAr46r0E           3511 	jp	C,00139$
                           3512 ;paint.c:399: cursor = current_cursor;
   0EA6 E5                 3513 	push	hl
   0EA7 21r03r03           3514 	ld	hl,#_current_cursor
   0EAA 7E                 3515 	ld	a,(hl)
   0EAB F8 07              3516 	ldhl	sp,#7
   0EAD 77                 3517 	ld	(hl),a
   0EAE E1                 3518 	pop	hl
                           3519 ;paint.c:400: current_cursor = ARROW;
   0EAF 21r03r03           3520 	ld	hl,#_current_cursor
   0EB2 36 00              3521 	ld	(hl),#0x00
                           3522 ;paint.c:401: set_cursor();
   0EB4 CDr00r00           3523 	call	_set_cursor
                           3524 ;paint.c:402: move_menu_cursor();
   0EB7 CDrBEr09           3525 	call	_move_menu_cursor
                           3526 ;paint.c:403: SHOW_SPRITES;
   0EBA 11 40 FF           3527 	ld	de,#0xFF40
   0EBD 1A                 3528 	ld	a,(de)
   0EBE 5F                 3529 	ld	e,a
   0EBF 16 00              3530 	ld	d,#0x00
   0EC1 7B                 3531 	ld	a,e
   0EC2 CB CF              3532 	set	1, a
   0EC4 47                 3533 	ld	b,a
   0EC5 21 40 FF           3534 	ld	hl,#0xFF40
   0EC8 70                 3535 	ld	(hl),b
                           3536 ;paint.c:404: waitpadup();
   0EC9 CDr00r00           3537 	call	_waitpadup
                           3538 ;paint.c:405: do {
   0ECC                    3539 00135$:
                           3540 ;paint.c:406: wait_vbl_done();
   0ECC CDr00r00           3541 	call	_wait_vbl_done
                           3542 ;paint.c:407: key = joypad();
   0ECF CDr00r00           3543 	call	_joypad
   0ED2 F8 00              3544 	ldhl	sp,#0
   0ED4 73                 3545 	ld	(hl),e
                           3546 ;paint.c:408: if(key & (J_UP|J_DOWN|J_LEFT|J_RIGHT)) {
   0ED5 7E                 3547 	ld	a,(hl)
   0ED6 F8 07              3548 	ldhl	sp,#7
   0ED8 22                 3549 	ld	(hl+),a
   0ED9 36 00              3550 	ld	(hl),#0x00
   0EDB 2B                 3551 	dec	hl
   0EDC 7E                 3552 	ld	a,(hl)
   0EDD E6 0F              3553 	and	a, #0x0F
   0EDF CAr98r0F           3554 	jp	Z,00115$
                           3555 ;paint.c:409: if(key & J_UP)
   0EE2 F8 07              3556 	ldhl	sp,#7
   0EE4 CB 56              3557 	bit	2, (hl)
   0EE6 28 1E              3558 	jr	Z,00103$
                           3559 ;paint.c:410: menu_cursor_pos = icons[menu_cursor_pos].up;
   0EE8 21r04r03           3560 	ld	hl,#_menu_cursor_pos
   0EEB 4E                 3561 	ld	c,(hl)
   0EEC 06 00              3562 	ld	b,#0x00
   0EEE 69                 3563 	ld	l, c
   0EEF 60                 3564 	ld	h, b
   0EF0 29                 3565 	add	hl, hl
   0EF1 29                 3566 	add	hl, hl
   0EF2 09                 3567 	add	hl, bc
   0EF3 29                 3568 	add	hl, hl
   0EF4 4D                 3569 	ld	c,l
   0EF5 44                 3570 	ld	b,h
   0EF6 21rD6r00           3571 	ld	hl,#_icons
   0EF9 09                 3572 	add	hl,bc
   0EFA 4D                 3573 	ld	c,l
   0EFB 44                 3574 	ld	b,h
   0EFC 03                 3575 	inc	bc
   0EFD 03                 3576 	inc	bc
   0EFE 03                 3577 	inc	bc
   0EFF 03                 3578 	inc	bc
   0F00 03                 3579 	inc	bc
   0F01 0A                 3580 	ld	a,(bc)
   0F02 21r04r03           3581 	ld	hl,#_menu_cursor_pos
   0F05 77                 3582 	ld	(hl),a
   0F06                    3583 00103$:
                           3584 ;paint.c:411: if(key & J_DOWN)
   0F06 F8 07              3585 	ldhl	sp,#7
   0F08 CB 5E              3586 	bit	3, (hl)
   0F0A 28 1F              3587 	jr	Z,00105$
                           3588 ;paint.c:412: menu_cursor_pos = icons[menu_cursor_pos].down;
   0F0C 21r04r03           3589 	ld	hl,#_menu_cursor_pos
   0F0F 4E                 3590 	ld	c,(hl)
   0F10 06 00              3591 	ld	b,#0x00
   0F12 69                 3592 	ld	l, c
   0F13 60                 3593 	ld	h, b
   0F14 29                 3594 	add	hl, hl
   0F15 29                 3595 	add	hl, hl
   0F16 09                 3596 	add	hl, bc
   0F17 29                 3597 	add	hl, hl
   0F18 4D                 3598 	ld	c,l
   0F19 44                 3599 	ld	b,h
   0F1A 21rD6r00           3600 	ld	hl,#_icons
   0F1D 09                 3601 	add	hl,bc
   0F1E 4D                 3602 	ld	c,l
   0F1F 44                 3603 	ld	b,h
   0F20 21 06 00           3604 	ld	hl,#0x0006
   0F23 09                 3605 	add	hl,bc
   0F24 4D                 3606 	ld	c,l
   0F25 44                 3607 	ld	b,h
   0F26 0A                 3608 	ld	a,(bc)
   0F27 21r04r03           3609 	ld	hl,#_menu_cursor_pos
   0F2A 77                 3610 	ld	(hl),a
   0F2B                    3611 00105$:
                           3612 ;paint.c:413: if(key & J_LEFT)
   0F2B F8 07              3613 	ldhl	sp,#7
   0F2D CB 4E              3614 	bit	1, (hl)
   0F2F 28 1F              3615 	jr	Z,00107$
                           3616 ;paint.c:414: menu_cursor_pos = icons[menu_cursor_pos].left;
   0F31 21r04r03           3617 	ld	hl,#_menu_cursor_pos
   0F34 4E                 3618 	ld	c,(hl)
   0F35 06 00              3619 	ld	b,#0x00
   0F37 69                 3620 	ld	l, c
   0F38 60                 3621 	ld	h, b
   0F39 29                 3622 	add	hl, hl
   0F3A 29                 3623 	add	hl, hl
   0F3B 09                 3624 	add	hl, bc
   0F3C 29                 3625 	add	hl, hl
   0F3D 4D                 3626 	ld	c,l
   0F3E 44                 3627 	ld	b,h
   0F3F 21rD6r00           3628 	ld	hl,#_icons
   0F42 09                 3629 	add	hl,bc
   0F43 4D                 3630 	ld	c,l
   0F44 44                 3631 	ld	b,h
   0F45 21 07 00           3632 	ld	hl,#0x0007
   0F48 09                 3633 	add	hl,bc
   0F49 4D                 3634 	ld	c,l
   0F4A 44                 3635 	ld	b,h
   0F4B 0A                 3636 	ld	a,(bc)
   0F4C 21r04r03           3637 	ld	hl,#_menu_cursor_pos
   0F4F 77                 3638 	ld	(hl),a
   0F50                    3639 00107$:
                           3640 ;paint.c:415: if(key & J_RIGHT)
   0F50 F8 07              3641 	ldhl	sp,#7
   0F52 CB 46              3642 	bit	0, (hl)
   0F54 28 1F              3643 	jr	Z,00109$
                           3644 ;paint.c:416: menu_cursor_pos = icons[menu_cursor_pos].right;
   0F56 21r04r03           3645 	ld	hl,#_menu_cursor_pos
   0F59 4E                 3646 	ld	c,(hl)
   0F5A 06 00              3647 	ld	b,#0x00
   0F5C 69                 3648 	ld	l, c
   0F5D 60                 3649 	ld	h, b
   0F5E 29                 3650 	add	hl, hl
   0F5F 29                 3651 	add	hl, hl
   0F60 09                 3652 	add	hl, bc
   0F61 29                 3653 	add	hl, hl
   0F62 4D                 3654 	ld	c,l
   0F63 44                 3655 	ld	b,h
   0F64 21rD6r00           3656 	ld	hl,#_icons
   0F67 09                 3657 	add	hl,bc
   0F68 4D                 3658 	ld	c,l
   0F69 44                 3659 	ld	b,h
   0F6A 21 08 00           3660 	ld	hl,#0x0008
   0F6D 09                 3661 	add	hl,bc
   0F6E 4D                 3662 	ld	c,l
   0F6F 44                 3663 	ld	b,h
   0F70 0A                 3664 	ld	a,(bc)
   0F71 21r04r03           3665 	ld	hl,#_menu_cursor_pos
   0F74 77                 3666 	ld	(hl),a
   0F75                    3667 00109$:
                           3668 ;paint.c:417: move_menu_cursor();
   0F75 CDrBEr09           3669 	call	_move_menu_cursor
                           3670 ;paint.c:418: while(slowdown && key == joypad()) {
   0F78 F8 01              3671 	ldhl	sp,#1
   0F7A 46                 3672 	ld	b,(hl)
   0F7B                    3673 00111$:
   0F7B 78                 3674 	ld	a,b
   0F7C B7                 3675 	or	a, a
   0F7D 28 13              3676 	jr	Z,00113$
   0F7F C5                 3677 	push	bc
   0F80 CDr00r00           3678 	call	_joypad
   0F83 C1                 3679 	pop	bc
   0F84 F8 00              3680 	ldhl	sp,#0
   0F86 7E                 3681 	ld	a,(hl)
   0F87 93                 3682 	sub	a, e
   0F88 20 08              3683 	jr	NZ,00113$
                           3684 ;paint.c:419: wait_vbl_done();
   0F8A C5                 3685 	push	bc
   0F8B CDr00r00           3686 	call	_wait_vbl_done
   0F8E C1                 3687 	pop	bc
                           3688 ;paint.c:420: slowdown--;
   0F8F 05                 3689 	dec	b
   0F90 18 E9              3690 	jr	00111$
   0F92                    3691 00113$:
                           3692 ;paint.c:422: slowdown = 10;
   0F92 F8 01              3693 	ldhl	sp,#1
   0F94 36 0A              3694 	ld	(hl),#0x0A
   0F96 18 04              3695 	jr	00116$
   0F98                    3696 00115$:
                           3697 ;paint.c:424: slowdown = 50;
   0F98 F8 01              3698 	ldhl	sp,#1
   0F9A 36 32              3699 	ld	(hl),#0x32
   0F9C                    3700 00116$:
                           3701 ;paint.c:425: if(key & J_A) {
   0F9C F8 07              3702 	ldhl	sp,#7
   0F9E CB 66              3703 	bit	4, (hl)
   0FA0 CArA2r10           3704 	jp	Z,00136$
                           3705 ;paint.c:426: if( /* menu_cursor_pos >= FIRST_TOOL && */ menu_cursor_pos <= LAST_TOOL) {
   0FA3 3E 09              3706 	ld	a,#0x09
   0FA5 21r04r03           3707 	ld	hl,#_menu_cursor_pos
   0FA8 96                 3708 	sub	a, (hl)
   0FA9 DArFAr0F           3709 	jp	C,00131$
                           3710 ;paint.c:427: if(menu_cursor_pos != /* FIRST_TOOL + */ current_tool) {
   0FAC 7E                 3711 	ld	a,(hl)
   0FAD 21r00r03           3712 	ld	hl,#_current_tool
   0FB0 96                 3713 	sub	a, (hl)
   0FB1 CArA2r10           3714 	jp	Z,00136$
                           3715 ;paint.c:428: change_icon(/* FIRST_TOOL + */ current_tool, UNSELECTED);
   0FB4 AF                 3716 	xor	a, a
   0FB5 F5                 3717 	push	af
   0FB6 33                 3718 	inc	sp
   0FB7 21r00r03           3719 	ld	hl,#_current_tool
   0FBA 7E                 3720 	ld	a,(hl)
   0FBB F5                 3721 	push	af
   0FBC 33                 3722 	inc	sp
   0FBD CDr4Fr0B           3723 	call	_change_icon
   0FC0 F1                 3724 	pop	af
                           3725 ;paint.c:429: current_tool = menu_cursor_pos /* - FIRST_TOOL */;
   0FC1 E5                 3726 	push	hl
   0FC2 21r04r03           3727 	ld	hl,#_menu_cursor_pos
   0FC5 7E                 3728 	ld	a,(hl)
   0FC6 21r00r03           3729 	ld	hl,#_current_tool
   0FC9 77                 3730 	ld	(hl),a
   0FCA E1                 3731 	pop	hl
                           3732 ;paint.c:430: change_icon(/* FIRST_TOOL + */ current_tool, SELECTED);
   0FCB 3E 01              3733 	ld	a,#0x01
   0FCD F5                 3734 	push	af
   0FCE 33                 3735 	inc	sp
   0FCF 21r00r03           3736 	ld	hl,#_current_tool
   0FD2 7E                 3737 	ld	a,(hl)
   0FD3 F5                 3738 	push	af
   0FD4 33                 3739 	inc	sp
   0FD5 CDr4Fr0B           3740 	call	_change_icon
   0FD8 F1                 3741 	pop	af
                           3742 ;paint.c:431: cursor = icons[/* FIRST_TOOL + */ current_tool].cursor;
   0FD9 21r00r03           3743 	ld	hl,#_current_tool
   0FDC 4E                 3744 	ld	c,(hl)
   0FDD 06 00              3745 	ld	b,#0x00
   0FDF 69                 3746 	ld	l, c
   0FE0 60                 3747 	ld	h, b
   0FE1 29                 3748 	add	hl, hl
   0FE2 29                 3749 	add	hl, hl
   0FE3 09                 3750 	add	hl, bc
   0FE4 29                 3751 	add	hl, hl
   0FE5 4D                 3752 	ld	c,l
   0FE6 44                 3753 	ld	b,h
   0FE7 21rD6r00           3754 	ld	hl,#_icons
   0FEA 09                 3755 	add	hl,bc
   0FEB 4D                 3756 	ld	c,l
   0FEC 44                 3757 	ld	b,h
   0FED 21 09 00           3758 	ld	hl,#0x0009
   0FF0 09                 3759 	add	hl,bc
   0FF1 4D                 3760 	ld	c,l
   0FF2 44                 3761 	ld	b,h
   0FF3 0A                 3762 	ld	a,(bc)
   0FF4 F8 05              3763 	ldhl	sp,#5
   0FF6 77                 3764 	ld	(hl),a
   0FF7 C3rA2r10           3765 	jp	00136$
   0FFA                    3766 00131$:
                           3767 ;paint.c:434: if(menu_cursor_pos != FIRST_COLOR + current_color) {
   0FFA 21r04r03           3768 	ld	hl,#_menu_cursor_pos
   0FFD 7E                 3769 	ld	a,(hl)
   0FFE F8 03              3770 	ldhl	sp,#3
   1000 22                 3771 	ld	(hl+),a
   1001 36 00              3772 	ld	(hl),#0x00
                           3773 ;paint.c:433: } else if(menu_cursor_pos >= FIRST_COLOR && menu_cursor_pos <= LAST_COLOR) {
   1003 21r04r03           3774 	ld	hl,#_menu_cursor_pos
   1006 7E                 3775 	ld	a,(hl)
   1007 D6 0A              3776 	sub	a, #0x0A
   1009 DAr55r10           3777 	jp	C,00127$
   100C 3E 0D              3778 	ld	a,#0x0D
   100E 96                 3779 	sub	a, (hl)
   100F DAr55r10           3780 	jp	C,00127$
                           3781 ;paint.c:434: if(menu_cursor_pos != FIRST_COLOR + current_color) {
   1012 21r01r03           3782 	ld	hl,#_current_color
   1015 4E                 3783 	ld	c,(hl)
   1016 06 00              3784 	ld	b,#0x00
   1018 21 0A 00           3785 	ld	hl,#0x000A
   101B 09                 3786 	add	hl,bc
   101C 4D                 3787 	ld	c,l
   101D 44                 3788 	ld	b,h
   101E F8 03              3789 	ldhl	sp,#3
   1020 7E                 3790 	ld	a,(hl)
   1021 91                 3791 	sub	a, c
   1022 20 06              3792 	jr	NZ,00244$
   1024 23                 3793 	inc	hl
   1025 7E                 3794 	ld	a,(hl)
   1026 90                 3795 	sub	a, b
   1027 CArA2r10           3796 	jp	Z,00136$
   102A                    3797 00244$:
                           3798 ;paint.c:435: change_icon(FIRST_COLOR + current_color, UNSELECTED);
   102A 21r01r03           3799 	ld	hl,#_current_color
   102D 7E                 3800 	ld	a,(hl)
   102E C6 0A              3801 	add	a, #0x0A
   1030 57                 3802 	ld	d,a
   1031 AF                 3803 	xor	a, a
   1032 F5                 3804 	push	af
   1033 33                 3805 	inc	sp
   1034 D5                 3806 	push	de
   1035 33                 3807 	inc	sp
   1036 CDr4Fr0B           3808 	call	_change_icon
   1039 F1                 3809 	pop	af
                           3810 ;paint.c:436: current_color = menu_cursor_pos - FIRST_COLOR;
   103A 21r04r03           3811 	ld	hl,#_menu_cursor_pos
   103D 7E                 3812 	ld	a,(hl)
   103E C6 F6              3813 	add	a,#0xF6
   1040 21r01r03           3814 	ld	hl,#_current_color
   1043 77                 3815 	ld	(hl),a
                           3816 ;paint.c:437: change_icon(FIRST_COLOR + current_color, SELECTED);
   1044 7E                 3817 	ld	a,(hl)
   1045 C6 0A              3818 	add	a, #0x0A
   1047 57                 3819 	ld	d,a
   1048 3E 01              3820 	ld	a,#0x01
   104A F5                 3821 	push	af
   104B 33                 3822 	inc	sp
   104C D5                 3823 	push	de
   104D 33                 3824 	inc	sp
   104E CDr4Fr0B           3825 	call	_change_icon
   1051 F1                 3826 	pop	af
   1052 C3rA2r10           3827 	jp	00136$
   1055                    3828 00127$:
                           3829 ;paint.c:439: } else if(menu_cursor_pos >= FIRST_MODE && menu_cursor_pos <= LAST_MODE) {
   1055 21r04r03           3830 	ld	hl,#_menu_cursor_pos
   1058 7E                 3831 	ld	a,(hl)
   1059 D6 0E              3832 	sub	a, #0x0E
   105B DArA2r10           3833 	jp	C,00136$
   105E 3E 11              3834 	ld	a,#0x11
   1060 96                 3835 	sub	a, (hl)
   1061 38 3F              3836 	jr	C,00136$
                           3837 ;paint.c:440: if(menu_cursor_pos != FIRST_MODE + current_mode) {
   1063 21r02r03           3838 	ld	hl,#_current_mode
   1066 4E                 3839 	ld	c,(hl)
   1067 06 00              3840 	ld	b,#0x00
   1069 21 0E 00           3841 	ld	hl,#0x000E
   106C 09                 3842 	add	hl,bc
   106D 4D                 3843 	ld	c,l
   106E 44                 3844 	ld	b,h
   106F F8 03              3845 	ldhl	sp,#3
   1071 7E                 3846 	ld	a,(hl)
   1072 91                 3847 	sub	a, c
   1073 20 05              3848 	jr	NZ,00245$
   1075 23                 3849 	inc	hl
   1076 7E                 3850 	ld	a,(hl)
   1077 90                 3851 	sub	a, b
   1078 28 28              3852 	jr	Z,00136$
   107A                    3853 00245$:
                           3854 ;paint.c:441: change_icon(FIRST_MODE + current_mode, UNSELECTED);
   107A 21r02r03           3855 	ld	hl,#_current_mode
   107D 7E                 3856 	ld	a,(hl)
   107E C6 0E              3857 	add	a, #0x0E
   1080 57                 3858 	ld	d,a
   1081 AF                 3859 	xor	a, a
   1082 F5                 3860 	push	af
   1083 33                 3861 	inc	sp
   1084 D5                 3862 	push	de
   1085 33                 3863 	inc	sp
   1086 CDr4Fr0B           3864 	call	_change_icon
   1089 F1                 3865 	pop	af
                           3866 ;paint.c:442: current_mode = menu_cursor_pos - FIRST_MODE;
   108A 21r04r03           3867 	ld	hl,#_menu_cursor_pos
   108D 7E                 3868 	ld	a,(hl)
   108E C6 F2              3869 	add	a,#0xF2
   1090 21r02r03           3870 	ld	hl,#_current_mode
   1093 77                 3871 	ld	(hl),a
                           3872 ;paint.c:443: change_icon(FIRST_MODE + current_mode, SELECTED);
   1094 7E                 3873 	ld	a,(hl)
   1095 C6 0E              3874 	add	a, #0x0E
   1097 57                 3875 	ld	d,a
   1098 3E 01              3876 	ld	a,#0x01
   109A F5                 3877 	push	af
   109B 33                 3878 	inc	sp
   109C D5                 3879 	push	de
   109D 33                 3880 	inc	sp
   109E CDr4Fr0B           3881 	call	_change_icon
   10A1 F1                 3882 	pop	af
   10A2                    3883 00136$:
                           3884 ;paint.c:447: } while(key != J_SELECT);
   10A2 F8 07              3885 	ldhl	sp,#7
   10A4 7E                 3886 	ld	a,(hl)
   10A5 D6 40              3887 	sub	a, #0x40
   10A7 C2rCCr0E           3888 	jp	NZ,00135$
   10AA 23                 3889 	inc	hl
   10AB 7E                 3890 	ld	a,(hl)
   10AC B7                 3891 	or	a, a
   10AD C2rCCr0E           3892 	jp	NZ,00135$
                           3893 ;paint.c:448: waitpadup();
   10B0 CDr00r00           3894 	call	_waitpadup
                           3895 ;paint.c:449: for(i = 0; i < NB_TOOLS; i++)
   10B3 06 00              3896 	ld	b,#0x00
   10B5                    3897 00141$:
                           3898 ;paint.c:450: reset_icon(i);
   10B5 C5                 3899 	push	bc
   10B6 C5                 3900 	push	bc
   10B7 33                 3901 	inc	sp
   10B8 CDr56r0C           3902 	call	_reset_icon
   10BB 33                 3903 	inc	sp
   10BC C1                 3904 	pop	bc
                           3905 ;paint.c:449: for(i = 0; i < NB_TOOLS; i++)
   10BD 04                 3906 	inc	b
   10BE 78                 3907 	ld	a,b
   10BF D6 12              3908 	sub	a, #0x12
   10C1 38 F2              3909 	jr	C,00141$
                           3910 ;paint.c:451: HIDE_SPRITES;
   10C3 11 40 FF           3911 	ld	de,#0xFF40
   10C6 1A                 3912 	ld	a,(de)
   10C7 47                 3913 	ld	b,a
   10C8 16 00              3914 	ld	d,#0x00
   10CA CB 88              3915 	res	1, b
   10CC 16 00              3916 	ld	d,#0x00
   10CE 21 40 FF           3917 	ld	hl,#0xFF40
   10D1 70                 3918 	ld	(hl),b
                           3919 ;paint.c:452: current_cursor = cursor;
   10D2 E5                 3920 	push	hl
   10D3 F8 07              3921 	ldhl	sp,#7
   10D5 7E                 3922 	ld	a,(hl)
   10D6 21r03r03           3923 	ld	hl,#_current_cursor
   10D9 77                 3924 	ld	(hl),a
   10DA E1                 3925 	pop	hl
   10DB E8 09              3926 	add	sp,#9
   10DD C9                 3927 	ret
   10DE                    3928 _menu_end::
                           3929 ;paint.c:455: void run()
                           3930 ;	---------------------------------
                           3931 ; Function run
                           3932 ; ---------------------------------
   10DE                    3933 _run_start::
   10DE                    3934 _run:
   10DE E8 FA              3935 	add	sp, #-6
                           3936 ;paint.c:461: slowdown = 10;
   10E0 F8 00              3937 	ldhl	sp,#0
   10E2 36 0A              3938 	ld	(hl),#0x0A
                           3939 ;paint.c:462: drawn = erased = 0;
   10E4 23                 3940 	inc	hl
   10E5 36 00              3941 	ld	(hl),#0x00
   10E7 23                 3942 	inc	hl
   10E8 36 00              3943 	ld	(hl),#0x00
                           3944 ;paint.c:464: set_cursor();
   10EA CDr00r00           3945 	call	_set_cursor
                           3946 ;paint.c:465: move_cursor();
   10ED CDr00r09           3947 	call	_move_cursor
                           3948 ;paint.c:466: SHOW_SPRITES;
   10F0 11 40 FF           3949 	ld	de,#0xFF40
   10F3 1A                 3950 	ld	a,(de)
   10F4 5F                 3951 	ld	e,a
   10F5 16 00              3952 	ld	d,#0x00
   10F7 7B                 3953 	ld	a,e
   10F8 CB CF              3954 	set	1, a
   10FA 47                 3955 	ld	b,a
   10FB 21 40 FF           3956 	ld	hl,#0xFF40
   10FE 70                 3957 	ld	(hl),b
                           3958 ;paint.c:468: while(1) {
   10FF                    3959 00133$:
                           3960 ;paint.c:469: wait_vbl_done();
   10FF CDr00r00           3961 	call	_wait_vbl_done
                           3962 ;paint.c:470: key = joypad();
   1102 CDr00r00           3963 	call	_joypad
   1105 43                 3964 	ld	b,e
                           3965 ;paint.c:471: if(key & (J_UP|J_DOWN|J_LEFT|J_RIGHT)) {
   1106 F8 04              3966 	ldhl	sp,#4
   1108 70                 3967 	ld	(hl),b
   1109 23                 3968 	inc	hl
   110A 36 00              3969 	ld	(hl),#0x00
   110C 2B                 3970 	dec	hl
   110D 7E                 3971 	ld	a,(hl)
   110E E6 0F              3972 	and	a, #0x0F
   1110 CAr76r11           3973 	jp	Z,00118$
                           3974 ;paint.c:472: if(key & J_UP && cursor_y > 0)
   1113 F8 04              3975 	ldhl	sp,#4
   1115 CB 56              3976 	bit	2, (hl)
   1117 28 08              3977 	jr	Z,00102$
   1119 21r06r03           3978 	ld	hl,#_cursor_y
   111C 7E                 3979 	ld	a,(hl)
   111D B7                 3980 	or	a, a
   111E 28 01              3981 	jr	Z,00102$
                           3982 ;paint.c:473: cursor_y--;
   1120 35                 3983 	dec	(hl)
   1121                    3984 00102$:
                           3985 ;paint.c:474: if(key & J_DOWN && cursor_y < 143)
   1121 F8 04              3986 	ldhl	sp,#4
   1123 CB 5E              3987 	bit	3, (hl)
   1125 28 09              3988 	jr	Z,00105$
   1127 21r06r03           3989 	ld	hl,#_cursor_y
   112A 7E                 3990 	ld	a,(hl)
   112B D6 8F              3991 	sub	a, #0x8F
   112D 30 01              3992 	jr	NC,00105$
                           3993 ;paint.c:475: cursor_y++;
   112F 34                 3994 	inc	(hl)
   1130                    3995 00105$:
                           3996 ;paint.c:476: if(key & J_LEFT && cursor_x > 0)
   1130 F8 04              3997 	ldhl	sp,#4
   1132 CB 4E              3998 	bit	1, (hl)
   1134 28 08              3999 	jr	Z,00108$
   1136 21r05r03           4000 	ld	hl,#_cursor_x
   1139 7E                 4001 	ld	a,(hl)
   113A B7                 4002 	or	a, a
   113B 28 01              4003 	jr	Z,00108$
                           4004 ;paint.c:477: cursor_x--;
   113D 35                 4005 	dec	(hl)
   113E                    4006 00108$:
                           4007 ;paint.c:478: if(key & J_RIGHT && cursor_x < 159)
   113E F8 04              4008 	ldhl	sp,#4
   1140 CB 46              4009 	bit	0, (hl)
   1142 28 09              4010 	jr	Z,00111$
   1144 21r05r03           4011 	ld	hl,#_cursor_x
   1147 7E                 4012 	ld	a,(hl)
   1148 D6 9F              4013 	sub	a, #0x9F
   114A 30 01              4014 	jr	NC,00111$
                           4015 ;paint.c:479: cursor_x++;
   114C 34                 4016 	inc	(hl)
   114D                    4017 00111$:
                           4018 ;paint.c:480: move_cursor();
   114D C5                 4019 	push	bc
   114E CDr00r09           4020 	call	_move_cursor
   1151 C1                 4021 	pop	bc
                           4022 ;paint.c:481: while(slowdown && key == joypad()) {
   1152 F8 00              4023 	ldhl	sp,#0
   1154 4E                 4024 	ld	c,(hl)
   1155                    4025 00114$:
   1155 79                 4026 	ld	a,c
   1156 B7                 4027 	or	a, a
   1157 28 11              4028 	jr	Z,00116$
   1159 C5                 4029 	push	bc
   115A CDr00r00           4030 	call	_joypad
   115D C1                 4031 	pop	bc
   115E 78                 4032 	ld	a,b
   115F 93                 4033 	sub	a, e
   1160 20 08              4034 	jr	NZ,00116$
                           4035 ;paint.c:482: wait_vbl_done();
   1162 C5                 4036 	push	bc
   1163 CDr00r00           4037 	call	_wait_vbl_done
   1166 C1                 4038 	pop	bc
                           4039 ;paint.c:483: slowdown--;
   1167 0D                 4040 	dec	c
   1168 18 EB              4041 	jr	00114$
   116A                    4042 00116$:
                           4043 ;paint.c:485: slowdown = 1;
   116A F8 00              4044 	ldhl	sp,#0
   116C 36 01              4045 	ld	(hl),#0x01
                           4046 ;paint.c:486: drawn = erased = 0;
   116E 23                 4047 	inc	hl
   116F 36 00              4048 	ld	(hl),#0x00
   1171 23                 4049 	inc	hl
   1172 36 00              4050 	ld	(hl),#0x00
   1174 18 04              4051 	jr	00119$
   1176                    4052 00118$:
                           4053 ;paint.c:488: slowdown = 10;
   1176 F8 00              4054 	ldhl	sp,#0
   1178 36 0A              4055 	ld	(hl),#0x0A
   117A                    4056 00119$:
                           4057 ;paint.c:489: if(key & J_SELECT) {
   117A F8 04              4058 	ldhl	sp,#4
   117C CB 76              4059 	bit	6, (hl)
   117E 28 27              4060 	jr	Z,00121$
                           4061 ;paint.c:490: HIDE_SPRITES;
   1180 11 40 FF           4062 	ld	de,#0xFF40
   1183 1A                 4063 	ld	a,(de)
   1184 47                 4064 	ld	b,a
   1185 16 00              4065 	ld	d,#0x00
   1187 CB 88              4066 	res	1, b
   1189 16 00              4067 	ld	d,#0x00
   118B 21 40 FF           4068 	ld	hl,#0xFF40
   118E 70                 4069 	ld	(hl),b
                           4070 ;paint.c:491: menu();
   118F CDr3Dr0E           4071 	call	_menu
                           4072 ;paint.c:492: set_cursor();
   1192 CDr00r00           4073 	call	_set_cursor
                           4074 ;paint.c:493: move_cursor();
   1195 CDr00r09           4075 	call	_move_cursor
                           4076 ;paint.c:494: SHOW_SPRITES;
   1198 11 40 FF           4077 	ld	de,#0xFF40
   119B 1A                 4078 	ld	a,(de)
   119C 57                 4079 	ld	d,a
   119D 1E 00              4080 	ld	e,#0x00
   119F 7A                 4081 	ld	a,d
   11A0 CB CF              4082 	set	1, a
   11A2 47                 4083 	ld	b,a
   11A3 21 40 FF           4084 	ld	hl,#0xFF40
   11A6 70                 4085 	ld	(hl),b
   11A7                    4086 00121$:
                           4087 ;paint.c:496: if((key & (J_A|J_B)) == J_A) {
   11A7 F8 04              4088 	ldhl	sp,#4
   11A9 7E                 4089 	ld	a,(hl)
   11AA E6 30              4090 	and	a, #0x30
   11AC 22                 4091 	ld	(hl+),a
   11AD 36 00              4092 	ld	(hl),#0x00
   11AF 2B                 4093 	dec	hl
   11B0 7E                 4094 	ld	a,(hl)
   11B1 D6 10              4095 	sub	a, #0x10
   11B3 C2rFAr11           4096 	jp	NZ,00125$
   11B6 23                 4097 	inc	hl
   11B7 7E                 4098 	ld	a,(hl)
   11B8 B7                 4099 	or	a, a
   11B9 20 3F              4100 	jr	NZ,00125$
                           4101 ;paint.c:497: if(!drawn) {
   11BB F8 02              4102 	ldhl	sp,#2
   11BD 7E                 4103 	ld	a,(hl)
   11BE B7                 4104 	or	a, a
   11BF 20 3D              4105 	jr	NZ,00126$
                           4106 ;paint.c:498: drawn++;
   11C1 34                 4107 	inc	(hl)
                           4108 ;paint.c:499: plot(cursor_x, cursor_y, colors[current_color], modes[current_mode]);
   11C2 3ErFC              4109 	ld	a,#<(_modes)
   11C4 21r02r03           4110 	ld	hl,#_current_mode
   11C7 86                 4111 	add	a, (hl)
   11C8 4F                 4112 	ld	c,a
   11C9 3Es08              4113 	ld	a,#>(_modes)
   11CB CE 00              4114 	adc	a, #0x00
   11CD 47                 4115 	ld	b,a
   11CE 0A                 4116 	ld	a,(bc)
   11CF F8 03              4117 	ldhl	sp,#3
   11D1 77                 4118 	ld	(hl),a
   11D2 3ErF8              4119 	ld	a,#<(_colors)
   11D4 21r01r03           4120 	ld	hl,#_current_color
   11D7 86                 4121 	add	a, (hl)
   11D8 4F                 4122 	ld	c,a
   11D9 3Es08              4123 	ld	a,#>(_colors)
   11DB CE 00              4124 	adc	a, #0x00
   11DD 47                 4125 	ld	b,a
   11DE 0A                 4126 	ld	a,(bc)
   11DF 57                 4127 	ld	d,a
   11E0 F8 03              4128 	ldhl	sp,#3
   11E2 7E                 4129 	ld	a,(hl)
   11E3 F5                 4130 	push	af
   11E4 33                 4131 	inc	sp
   11E5 D5                 4132 	push	de
   11E6 33                 4133 	inc	sp
   11E7 21r06r03           4134 	ld	hl,#_cursor_y
   11EA 7E                 4135 	ld	a,(hl)
   11EB F5                 4136 	push	af
   11EC 33                 4137 	inc	sp
   11ED 21r05r03           4138 	ld	hl,#_cursor_x
   11F0 7E                 4139 	ld	a,(hl)
   11F1 F5                 4140 	push	af
   11F2 33                 4141 	inc	sp
   11F3 CDr00r00           4142 	call	_plot
   11F6 E8 04              4143 	add	sp, #4
   11F8 18 04              4144 	jr	00126$
   11FA                    4145 00125$:
                           4146 ;paint.c:502: drawn = 0;
   11FA F8 02              4147 	ldhl	sp,#2
   11FC 36 00              4148 	ld	(hl),#0x00
   11FE                    4149 00126$:
                           4150 ;paint.c:503: if((key & (J_A|J_B)) == J_B) {
   11FE F8 04              4151 	ldhl	sp,#4
   1200 7E                 4152 	ld	a,(hl)
   1201 D6 20              4153 	sub	a, #0x20
   1203 20 25              4154 	jr	NZ,00130$
   1205 23                 4155 	inc	hl
   1206 7E                 4156 	ld	a,(hl)
   1207 B7                 4157 	or	a, a
   1208 20 20              4158 	jr	NZ,00130$
                           4159 ;paint.c:504: if(!erased) {
   120A F8 01              4160 	ldhl	sp,#1
   120C 7E                 4161 	ld	a,(hl)
   120D B7                 4162 	or	a, a
   120E C2rFFr10           4163 	jp	NZ,00133$
                           4164 ;paint.c:505: erased++;
   1211 34                 4165 	inc	(hl)
                           4166 ;paint.c:506: plot(cursor_x, cursor_y, WHITE, SOLID);
   1212 21 00 00           4167 	ld	hl,#0x0000
   1215 E5                 4168 	push	hl
   1216 21r06r03           4169 	ld	hl,#_cursor_y
   1219 7E                 4170 	ld	a,(hl)
   121A F5                 4171 	push	af
   121B 33                 4172 	inc	sp
   121C 21r05r03           4173 	ld	hl,#_cursor_x
   121F 7E                 4174 	ld	a,(hl)
   1220 F5                 4175 	push	af
   1221 33                 4176 	inc	sp
   1222 CDr00r00           4177 	call	_plot
   1225 E8 04              4178 	add	sp, #4
   1227 C3rFFr10           4179 	jp	00133$
   122A                    4180 00130$:
                           4181 ;paint.c:509: erased = 0;
   122A F8 01              4182 	ldhl	sp,#1
   122C 36 00              4183 	ld	(hl),#0x00
   122E C3rFFr10           4184 	jp	00133$
   1231 E8 06              4185 	add	sp,#6
   1233 C9                 4186 	ret
   1234                    4187 _run_end::
                           4188 ;paint.c:513: void main()
                           4189 ;	---------------------------------
                           4190 ; Function main
                           4191 ; ---------------------------------
   1234                    4192 _main_start::
   1234                    4193 _main:
                           4194 ;paint.c:516: OBP1_REG = 0xE0U;
   1234 21 49 FF           4195 	ld	hl,#0xFF49
   1237 36 E0              4196 	ld	(hl),#0xE0
                           4197 ;paint.c:518: splash();
   1239 CDr3Fr0D           4198 	call	_splash
                           4199 ;paint.c:520: current_tool = 0;
   123C 21r00r03           4200 	ld	hl,#_current_tool
   123F 36 00              4201 	ld	(hl),#0x00
                           4202 ;paint.c:521: current_color = BLACK;
   1241 21r01r03           4203 	ld	hl,#_current_color
   1244 36 03              4204 	ld	(hl),#0x03
                           4205 ;paint.c:522: current_mode = SOLID;
   1246 21r02r03           4206 	ld	hl,#_current_mode
   1249 36 00              4207 	ld	(hl),#0x00
                           4208 ;paint.c:523: current_cursor = PEN;
   124B 21r03r03           4209 	ld	hl,#_current_cursor
   124E 36 01              4210 	ld	(hl),#0x01
                           4211 ;paint.c:524: menu_cursor_pos = 0;
   1250 21r04r03           4212 	ld	hl,#_menu_cursor_pos
   1253 36 00              4213 	ld	(hl),#0x00
                           4214 ;paint.c:525: cursor_x = 160/2;
   1255 21r05r03           4215 	ld	hl,#_cursor_x
   1258 36 50              4216 	ld	(hl),#0x50
                           4217 ;paint.c:526: cursor_y = 144/2;
   125A 21r06r03           4218 	ld	hl,#_cursor_y
   125D 36 48              4219 	ld	(hl),#0x48
                           4220 ;paint.c:528: run();
   125F C3rDEr10           4221 	jp	_run
   1262                    4222 _main_end::
                           4223 	.area _CODE
                           4224 	.area _CABS (ABS)
