;--------------------------------------------------------
; File Created by SDCC : free open source ANSI-C Compiler
; Version 3.3.0 #8604 (Dec 30 2013) (Linux)
; This file was generated Mon May 29 00:50:00 2017
;--------------------------------------------------------
	.module galaxy
	.optsdcc -mgbz80
	
;--------------------------------------------------------
; Public variables in this module
;--------------------------------------------------------
	.globl _main
	.globl _set_win_tiles
	.globl _set_win_data
	.globl _set_bkg_tiles
	.globl _set_bkg_data
	.globl _display_off
	.globl _wait_vbl_done
	.globl _disable_interrupts
	.globl _enable_interrupts
	.globl _sspy
	.globl _sspx
	.globl _sposy
	.globl _sposx
	.globl _wspy
	.globl _wspx
	.globl _wposy
	.globl _wposx
	.globl _bspy
	.globl _bspx
	.globl _bposy
	.globl _bposx
	.globl _sframe
	.globl _doorpos
	.globl _doorstate
	.globl _film
	.globl _door4_tiles
	.globl _door3_tiles
	.globl _door2_tiles
	.globl _door1_tiles
	.globl _frame_tiles
	.globl _earth_tiles
	.globl _bkg_tiles
	.globl _bkg_data
	.globl _frame_data
	.globl _earth_data
	.globl _std_data
	.globl _scroll
;--------------------------------------------------------
; ram data
;--------------------------------------------------------
	.area _DATA
_time:
	.ds 1
_doorstate::
	.ds 1
_doorpos::
	.ds 1
_color:
	.ds 1
_sframe::
	.ds 1
_bposx::
	.ds 2
_bposy::
	.ds 2
_bspx::
	.ds 2
_bspy::
	.ds 2
_wposx::
	.ds 2
_wposy::
	.ds 2
_wspx::
	.ds 2
_wspy::
	.ds 2
_sposx::
	.ds 2
_sposy::
	.ds 2
_sspx::
	.ds 2
_sspy::
	.ds 2
;--------------------------------------------------------
; absolute external ram data
;--------------------------------------------------------
	.area _DABS (ABS)
;--------------------------------------------------------
; global & static initialisations
;--------------------------------------------------------
	.area _HOME
	.area _GSINIT
	.area _GSFINAL
	.area _GSINIT
;--------------------------------------------------------
; Home
;--------------------------------------------------------
	.area _HOME
	.area _HOME
;--------------------------------------------------------
; code
;--------------------------------------------------------
	.area _CODE
;galaxy.c:415: void scroll()
;	---------------------------------
; Function scroll
; ---------------------------------
_scroll_start::
_scroll:
;galaxy.c:453: }
	ret
_scroll_end::
_std_data:
	.db #0xFF	; 255
	.db #0xFF	; 255
	.db #0xFF	; 255
	.db #0xFF	; 255
	.db #0xFF	; 255
	.db #0xFF	; 255
	.db #0xFF	; 255
	.db #0xFF	; 255
	.db #0xFF	; 255
	.db #0xFF	; 255
	.db #0xFF	; 255
	.db #0xFF	; 255
	.db #0xFF	; 255
	.db #0xFF	; 255
	.db #0xFF	; 255
	.db #0xFF	; 255
	.db #0xFF	; 255
	.db #0x00	; 0
	.db #0xFF	; 255
	.db #0x00	; 0
	.db #0xFF	; 255
	.db #0x00	; 0
	.db #0xFF	; 255
	.db #0x00	; 0
	.db #0xFF	; 255
	.db #0x00	; 0
	.db #0xFF	; 255
	.db #0x00	; 0
	.db #0xFF	; 255
	.db #0x00	; 0
	.db #0xFF	; 255
	.db #0x00	; 0
	.db #0x00	; 0
	.db #0xFF	; 255
	.db #0x00	; 0
	.db #0xFF	; 255
	.db #0x00	; 0
	.db #0xFF	; 255
	.db #0x00	; 0
	.db #0xFF	; 255
	.db #0x00	; 0
	.db #0xFF	; 255
	.db #0x00	; 0
	.db #0xFF	; 255
	.db #0x00	; 0
	.db #0xFF	; 255
	.db #0x00	; 0
	.db #0xFF	; 255
	.db #0x00	; 0
	.db #0x00	; 0
	.db #0x00	; 0
	.db #0x00	; 0
	.db #0x00	; 0
	.db #0x00	; 0
	.db #0x00	; 0
	.db #0x00	; 0
	.db #0x00	; 0
	.db #0x00	; 0
	.db #0x00	; 0
	.db #0x00	; 0
	.db #0x00	; 0
	.db #0x00	; 0
	.db #0x00	; 0
	.db #0x00	; 0
_earth_data:
	.db #0x07	; 7
	.db #0x07	; 7
	.db #0x18	; 24
	.db #0x1F	; 31
	.db #0x32	; 50	'2'
	.db #0x2D	; 45
	.db #0x71	; 113	'q'
	.db #0x4E	; 78	'N'
	.db #0x70	; 112	'p'
	.db #0x4F	; 79	'O'
	.db #0xF8	; 248
	.db #0x87	; 135
	.db #0xF8	; 248
	.db #0x87	; 135
	.db #0xF8	; 248
	.db #0x87	; 135
	.db #0xFC	; 252
	.db #0x83	; 131
	.db #0xFE	; 254
	.db #0x81	; 129
	.db #0x7F	; 127
	.db #0x40	; 64
	.db #0x7F	; 127
	.db #0x40	; 64
	.db #0x3F	; 63
	.db #0x20	; 32
	.db #0x1F	; 31
	.db #0x18	; 24
	.db #0x07	; 7
	.db #0x07	; 7
	.db #0x00	; 0
	.db #0x00	; 0
	.db #0xC0	; 192
	.db #0xC0	; 192
	.db #0xF0	; 240
	.db #0x30	; 48	'0'
	.db #0x78	; 120	'x'
	.db #0x88	; 136
	.db #0x3C	; 60
	.db #0xC4	; 196
	.db #0x5C	; 92
	.db #0xA4	; 164
	.db #0x9E	; 158
	.db #0x62	; 98	'b'
	.db #0x3E	; 62
	.db #0xC2	; 194
	.db #0x3E	; 62
	.db #0xC2	; 194
	.db #0x5E	; 94
	.db #0xA2	; 162
	.db #0x7E	; 126
	.db #0x82	; 130
	.db #0x0C	; 12
	.db #0xF4	; 244
	.db #0x0C	; 12
	.db #0xF4	; 244
	.db #0x98	; 152
	.db #0x68	; 104	'h'
	.db #0xB0	; 176
	.db #0x70	; 112	'p'
	.db #0xC0	; 192
	.db #0xC0	; 192
	.db #0x00	; 0
	.db #0x00	; 0
	.db #0x07	; 7
	.db #0x07	; 7
	.db #0x1F	; 31
	.db #0x18	; 24
	.db #0x2F	; 47
	.db #0x30	; 48	'0'
	.db #0x4F	; 79	'O'
	.db #0x70	; 112	'p'
	.db #0x6F	; 111	'o'
	.db #0x50	; 80	'P'
	.db #0x9F	; 159
	.db #0xE0	; 224
	.db #0x9F	; 159
	.db #0xE0	; 224
	.db #0xBF	; 191
	.db #0xC0	; 192
	.db #0xFF	; 255
	.db #0x80	; 128
	.db #0xB7	; 183
	.db #0xC8	; 200
	.db #0x63	; 99	'c'
	.db #0x5C	; 92
	.db #0x43	; 67	'C'
	.db #0x7C	; 124
	.db #0x3F	; 63
	.db #0x20	; 32
	.db #0x1F	; 31
	.db #0x18	; 24
	.db #0x07	; 7
	.db #0x07	; 7
	.db #0x00	; 0
	.db #0x00	; 0
	.db #0xC0	; 192
	.db #0xC0	; 192
	.db #0xB0	; 176
	.db #0x70	; 112	'p'
	.db #0x18	; 24
	.db #0xE8	; 232
	.db #0x0C	; 12
	.db #0xF4	; 244
	.db #0x0C	; 12
	.db #0xF4	; 244
	.db #0x82	; 130
	.db #0x7E	; 126
	.db #0x82	; 130
	.db #0x7E	; 126
	.db #0x86	; 134
	.db #0x7A	; 122	'z'
	.db #0xC6	; 198
	.db #0x3A	; 58
	.db #0xE6	; 230
	.db #0x1A	; 26
	.db #0xF4	; 244
	.db #0x0C	; 12
	.db #0xFC	; 252
	.db #0x04	; 4
	.db #0xF8	; 248
	.db #0x08	; 8
	.db #0xF0	; 240
	.db #0x30	; 48	'0'
	.db #0xC0	; 192
	.db #0xC0	; 192
	.db #0x00	; 0
	.db #0x00	; 0
	.db #0x07	; 7
	.db #0x07	; 7
	.db #0x1E	; 30
	.db #0x19	; 25
	.db #0x20	; 32
	.db #0x3F	; 63
	.db #0x40	; 64
	.db #0x7F	; 127
	.db #0x42	; 66	'B'
	.db #0x7D	; 125
	.db #0x81	; 129
	.db #0xFE	; 254
	.db #0x81	; 129
	.db #0xFE	; 254
	.db #0x83	; 131
	.db #0xFC	; 252
	.db #0xD7	; 215
	.db #0xA8	; 168
	.db #0xBB	; 187
	.db #0xC4	; 196
	.db #0x6E	; 110	'n'
	.db #0x51	; 81	'Q'
	.db #0x7C	; 124
	.db #0x43	; 67	'C'
	.db #0x3F	; 63
	.db #0x20	; 32
	.db #0x1F	; 31
	.db #0x18	; 24
	.db #0x07	; 7
	.db #0x07	; 7
	.db #0x00	; 0
	.db #0x00	; 0
	.db #0xC0	; 192
	.db #0xC0	; 192
	.db #0x70	; 112	'p'
	.db #0xB0	; 176
	.db #0xE8	; 232
	.db #0x18	; 24
	.db #0xF4	; 244
	.db #0x0C	; 12
	.db #0xF4	; 244
	.db #0x0C	; 12
	.db #0xFE	; 254
	.db #0x02	; 2
	.db #0xFE	; 254
	.db #0x02	; 2
	.db #0xFE	; 254
	.db #0x02	; 2
	.db #0xFE	; 254
	.db #0x02	; 2
	.db #0x7E	; 126
	.db #0x82	; 130
	.db #0x3C	; 60
	.db #0xC4	; 196
	.db #0x3C	; 60
	.db #0xC4	; 196
	.db #0xF8	; 248
	.db #0x08	; 8
	.db #0xF0	; 240
	.db #0x30	; 48	'0'
	.db #0xC0	; 192
	.db #0xC0	; 192
	.db #0x00	; 0
	.db #0x00	; 0
	.db #0x07	; 7
	.db #0x07	; 7
	.db #0x1B	; 27
	.db #0x1C	; 28
	.db #0x20	; 32
	.db #0x3F	; 63
	.db #0x40	; 64
	.db #0x7F	; 127
	.db #0x40	; 64
	.db #0x7F	; 127
	.db #0xE0	; 224
	.db #0x9F	; 159
	.db #0x90	; 144
	.db #0xEF	; 239
	.db #0x89	; 137
	.db #0xF6	; 246
	.db #0x8D	; 141
	.db #0xF2	; 242
	.db #0x9F	; 159
	.db #0xE0	; 224
	.db #0x5E	; 94
	.db #0x61	; 97	'a'
	.db #0x6F	; 111	'o'
	.db #0x50	; 80	'P'
	.db #0x3F	; 63
	.db #0x20	; 32
	.db #0x1F	; 31
	.db #0x18	; 24
	.db #0x07	; 7
	.db #0x07	; 7
	.db #0x00	; 0
	.db #0x00	; 0
	.db #0xC0	; 192
	.db #0xC0	; 192
	.db #0xB0	; 176
	.db #0x70	; 112	'p'
	.db #0x28	; 40
	.db #0xD8	; 216
	.db #0x04	; 4
	.db #0xFC	; 252
	.db #0x2C	; 44
	.db #0xD4	; 212
	.db #0x1E	; 30
	.db #0xE2	; 226
	.db #0x1E	; 30
	.db #0xE2	; 226
	.db #0x3E	; 62
	.db #0xC2	; 194
	.db #0x7E	; 126
	.db #0x82	; 130
	.db #0xB6	; 182
	.db #0x4A	; 74	'J'
	.db #0xE4	; 228
	.db #0x1C	; 28
	.db #0xC4	; 196
	.db #0x3C	; 60
	.db #0xF8	; 248
	.db #0x08	; 8
	.db #0xF0	; 240
	.db #0x30	; 48	'0'
	.db #0xC0	; 192
	.db #0xC0	; 192
	.db #0x00	; 0
	.db #0x00	; 0
	.db #0x07	; 7
	.db #0x07	; 7
	.db #0x18	; 24
	.db #0x1F	; 31
	.db #0x20	; 32
	.db #0x3F	; 63
	.db #0x40	; 64
	.db #0x7F	; 127
	.db #0x40	; 64
	.db #0x7F	; 127
	.db #0xEE	; 238
	.db #0x91	; 145
	.db #0xF1	; 241
	.db #0x8E	; 142
	.db #0xE0	; 224
	.db #0x9F	; 159
	.db #0xE0	; 224
	.db #0x9F	; 159
	.db #0xF1	; 241
	.db #0x8E	; 142
	.db #0x71	; 113	'q'
	.db #0x4E	; 78	'N'
	.db #0x72	; 114	'r'
	.db #0x4D	; 77	'M'
	.db #0x3F	; 63
	.db #0x20	; 32
	.db #0x1F	; 31
	.db #0x18	; 24
	.db #0x07	; 7
	.db #0x07	; 7
	.db #0x00	; 0
	.db #0x00	; 0
	.db #0xC0	; 192
	.db #0xC0	; 192
	.db #0xF0	; 240
	.db #0x30	; 48	'0'
	.db #0x08	; 8
	.db #0xF8	; 248
	.db #0x04	; 4
	.db #0xFC	; 252
	.db #0x04	; 4
	.db #0xFC	; 252
	.db #0x02	; 2
	.db #0xFE	; 254
	.db #0x02	; 2
	.db #0xFE	; 254
	.db #0x92	; 146
	.db #0x6E	; 110	'n'
	.db #0xD6	; 214
	.db #0x2A	; 42
	.db #0xFE	; 254
	.db #0x02	; 2
	.db #0xEC	; 236
	.db #0x14	; 20
	.db #0xFC	; 252
	.db #0x04	; 4
	.db #0xF8	; 248
	.db #0x08	; 8
	.db #0xF0	; 240
	.db #0x30	; 48	'0'
	.db #0xC0	; 192
	.db #0xC0	; 192
	.db #0x00	; 0
	.db #0x00	; 0
	.db #0x07	; 7
	.db #0x07	; 7
	.db #0x1D	; 29
	.db #0x1A	; 26
	.db #0x36	; 54	'6'
	.db #0x29	; 41
	.db #0x5C	; 92
	.db #0x63	; 99	'c'
	.db #0x6C	; 108	'l'
	.db #0x53	; 83	'S'
	.db #0xCE	; 206
	.db #0xB1	; 177
	.db #0x9F	; 159
	.db #0xE0	; 224
	.db #0x9E	; 158
	.db #0xE1	; 225
	.db #0xAE	; 174
	.db #0xD1	; 209
	.db #0xBF	; 191
	.db #0xC0	; 192
	.db #0x47	; 71	'G'
	.db #0x78	; 120	'x'
	.db #0x47	; 71	'G'
	.db #0x78	; 120	'x'
	.db #0x2F	; 47
	.db #0x30	; 48	'0'
	.db #0x1F	; 31
	.db #0x18	; 24
	.db #0x07	; 7
	.db #0x07	; 7
	.db #0x00	; 0
	.db #0x00	; 0
	.db #0xC0	; 192
	.db #0xC0	; 192
	.db #0x70	; 112	'p'
	.db #0xB0	; 176
	.db #0x08	; 8
	.db #0xF8	; 248
	.db #0x04	; 4
	.db #0xFC	; 252
	.db #0x04	; 4
	.db #0xFC	; 252
	.db #0xE2	; 226
	.db #0x1E	; 30
	.db #0x32	; 50	'2'
	.db #0xCE	; 206
	.db #0x0E	; 14
	.db #0xF2	; 242
	.db #0x0E	; 14
	.db #0xF2	; 242
	.db #0x1E	; 30
	.db #0xE2	; 226
	.db #0x1C	; 28
	.db #0xE4	; 228
	.db #0x2C	; 44
	.db #0xD4	; 212
	.db #0xF8	; 248
	.db #0x08	; 8
	.db #0xF0	; 240
	.db #0x30	; 48	'0'
	.db #0xC0	; 192
	.db #0xC0	; 192
	.db #0x00	; 0
	.db #0x00	; 0
	.db #0x07	; 7
	.db #0x07	; 7
	.db #0x1E	; 30
	.db #0x19	; 25
	.db #0x33	; 51	'3'
	.db #0x2C	; 44
	.db #0x49	; 73	'I'
	.db #0x76	; 118	'v'
	.db #0x42	; 66	'B'
	.db #0x7D	; 125
	.db #0xC4	; 196
	.db #0xBB	; 187
	.db #0xC1	; 193
	.db #0xBE	; 190
	.db #0xC1	; 193
	.db #0xBE	; 190
	.db #0xE2	; 226
	.db #0x9D	; 157
	.db #0xF3	; 243
	.db #0x8C	; 140
	.db #0x78	; 120	'x'
	.db #0x47	; 71	'G'
	.db #0x78	; 120	'x'
	.db #0x47	; 71	'G'
	.db #0x3C	; 60
	.db #0x23	; 35
	.db #0x1C	; 28
	.db #0x1B	; 27
	.db #0x07	; 7
	.db #0x07	; 7
	.db #0x00	; 0
	.db #0x00	; 0
	.db #0xC0	; 192
	.db #0xC0	; 192
	.db #0x70	; 112	'p'
	.db #0xB0	; 176
	.db #0x68	; 104	'h'
	.db #0x98	; 152
	.db #0xC4	; 196
	.db #0x3C	; 60
	.db #0xC4	; 196
	.db #0x3C	; 60
	.db #0xEE	; 238
	.db #0x12	; 18
	.db #0xF2	; 242
	.db #0x0E	; 14
	.db #0xE2	; 226
	.db #0x1E	; 30
	.db #0xE2	; 226
	.db #0x1E	; 30
	.db #0xF2	; 242
	.db #0x0E	; 14
	.db #0x7C	; 124
	.db #0x84	; 132
	.db #0x7C	; 124
	.db #0x84	; 132
	.db #0xF8	; 248
	.db #0x08	; 8
	.db #0xF0	; 240
	.db #0x30	; 48	'0'
	.db #0xC0	; 192
	.db #0xC0	; 192
	.db #0x00	; 0
	.db #0x00	; 0
_frame_data:
	.db #0xFF	; 255
	.db #0x00	; 0
	.db #0x80	; 128
	.db #0x7F	; 127
	.db #0x80	; 128
	.db #0x7F	; 127
	.db #0x80	; 128
	.db #0x7F	; 127
	.db #0x80	; 128
	.db #0x7F	; 127
	.db #0x80	; 128
	.db #0x7F	; 127
	.db #0x80	; 128
	.db #0x7F	; 127
	.db #0x80	; 128
	.db #0x7F	; 127
	.db #0xFF	; 255
	.db #0x00	; 0
	.db #0x01	; 1
	.db #0xFE	; 254
	.db #0x03	; 3
	.db #0xFC	; 252
	.db #0x07	; 7
	.db #0xF8	; 248
	.db #0x0F	; 15
	.db #0xF0	; 240
	.db #0x1F	; 31
	.db #0xE0	; 224
	.db #0x3F	; 63
	.db #0xC0	; 192
	.db #0x7F	; 127
	.db #0x80	; 128
	.db #0xFF	; 255
	.db #0x00	; 0
	.db #0xFE	; 254
	.db #0x01	; 1
	.db #0xFC	; 252
	.db #0x03	; 3
	.db #0xF8	; 248
	.db #0x07	; 7
	.db #0xF0	; 240
	.db #0x0F	; 15
	.db #0xE0	; 224
	.db #0x1F	; 31
	.db #0xC0	; 192
	.db #0x3F	; 63
	.db #0x80	; 128
	.db #0x7F	; 127
	.db #0xFF	; 255
	.db #0x00	; 0
	.db #0x00	; 0
	.db #0xFF	; 255
	.db #0x00	; 0
	.db #0xFF	; 255
	.db #0x00	; 0
	.db #0xFF	; 255
	.db #0x00	; 0
	.db #0xFF	; 255
	.db #0x00	; 0
	.db #0xFF	; 255
	.db #0x00	; 0
	.db #0xFF	; 255
	.db #0x00	; 0
	.db #0xFF	; 255
	.db #0xFF	; 255
	.db #0x00	; 0
	.db #0xFF	; 255
	.db #0x01	; 1
	.db #0xFD	; 253
	.db #0x03	; 3
	.db #0xF9	; 249
	.db #0x07	; 7
	.db #0xF1	; 241
	.db #0x0F	; 15
	.db #0xE1	; 225
	.db #0x1F	; 31
	.db #0xC1	; 193
	.db #0x3F	; 63
	.db #0x81	; 129
	.db #0x7F	; 127
	.db #0x80	; 128
	.db #0x7F	; 127
	.db #0x81	; 129
	.db #0x7E	; 126
	.db #0x83	; 131
	.db #0x7C	; 124
	.db #0x87	; 135
	.db #0x78	; 120	'x'
	.db #0x8F	; 143
	.db #0x70	; 112	'p'
	.db #0x9F	; 159
	.db #0x60	; 96
	.db #0xBF	; 191
	.db #0x40	; 64
	.db #0xFF	; 255
	.db #0x00	; 0
	.db #0xFF	; 255
	.db #0x70	; 112	'p'
	.db #0xFF	; 255
	.db #0x98	; 152
	.db #0xEF	; 239
	.db #0xB8	; 184
	.db #0xCF	; 207
	.db #0xF8	; 248
	.db #0xFF	; 255
	.db #0x70	; 112	'p'
	.db #0xFF	; 255
	.db #0x00	; 0
	.db #0xFF	; 255
	.db #0x00	; 0
	.db #0xFF	; 255
	.db #0x01	; 1
	.db #0xFF	; 255
	.db #0x00	; 0
	.db #0xFE	; 254
	.db #0x01	; 1
	.db #0xFC	; 252
	.db #0x03	; 3
	.db #0xF8	; 248
	.db #0x07	; 7
	.db #0xF0	; 240
	.db #0x0F	; 15
	.db #0xE0	; 224
	.db #0x1F	; 31
	.db #0xC0	; 192
	.db #0x3F	; 63
	.db #0xFF	; 255
	.db #0xFF	; 255
	.db #0x00	; 0
	.db #0xFF	; 255
	.db #0x00	; 0
	.db #0xFF	; 255
	.db #0x00	; 0
	.db #0xFF	; 255
	.db #0x00	; 0
	.db #0xFF	; 255
	.db #0x00	; 0
	.db #0xFF	; 255
	.db #0x00	; 0
	.db #0xFF	; 255
	.db #0x00	; 0
	.db #0xFF	; 255
	.db #0xFF	; 255
	.db #0xFF	; 255
	.db #0x00	; 0
	.db #0xFF	; 255
	.db #0x01	; 1
	.db #0xFE	; 254
	.db #0x03	; 3
	.db #0xFC	; 252
	.db #0x07	; 7
	.db #0xF8	; 248
	.db #0x0F	; 15
	.db #0xF0	; 240
	.db #0x1F	; 31
	.db #0xE0	; 224
	.db #0x3F	; 63
	.db #0xC0	; 192
	.db #0xFF	; 255
	.db #0xFF	; 255
	.db #0xFF	; 255
	.db #0x00	; 0
	.db #0xFF	; 255
	.db #0x00	; 0
	.db #0xFF	; 255
	.db #0x00	; 0
	.db #0xFF	; 255
	.db #0x00	; 0
	.db #0xFF	; 255
	.db #0x00	; 0
	.db #0xFF	; 255
	.db #0x00	; 0
	.db #0xFF	; 255
	.db #0x00	; 0
	.db #0xFF	; 255
	.db #0xFF	; 255
	.db #0xFF	; 255
	.db #0x0E	; 14
	.db #0xFF	; 255
	.db #0x13	; 19
	.db #0xFD	; 253
	.db #0x17	; 23
	.db #0xF9	; 249
	.db #0x1F	; 31
	.db #0xFE	; 254
	.db #0x0F	; 15
	.db #0xE0	; 224
	.db #0x1F	; 31
	.db #0xC0	; 192
	.db #0x3F	; 63
	.db #0x80	; 128
	.db #0xFF	; 255
	.db #0x01	; 1
	.db #0xFF	; 255
	.db #0x01	; 1
	.db #0xFF	; 255
	.db #0x01	; 1
	.db #0xFF	; 255
	.db #0x01	; 1
	.db #0xFF	; 255
	.db #0x01	; 1
	.db #0xFF	; 255
	.db #0x01	; 1
	.db #0xFF	; 255
	.db #0x01	; 1
	.db #0xFF	; 255
	.db #0x01	; 1
	.db #0xFF	; 255
	.db #0xFF	; 255
	.db #0x01	; 1
	.db #0xFF	; 255
	.db #0x01	; 1
	.db #0xFD	; 253
	.db #0x03	; 3
	.db #0xF9	; 249
	.db #0x07	; 7
	.db #0xF1	; 241
	.db #0x0F	; 15
	.db #0xE1	; 225
	.db #0x1F	; 31
	.db #0xC1	; 193
	.db #0x3F	; 63
	.db #0x81	; 129
	.db #0x7F	; 127
	.db #0x80	; 128
	.db #0x7F	; 127
	.db #0x80	; 128
	.db #0x7F	; 127
	.db #0x80	; 128
	.db #0x7F	; 127
	.db #0x80	; 128
	.db #0x7F	; 127
	.db #0x80	; 128
	.db #0x7F	; 127
	.db #0x80	; 128
	.db #0x7F	; 127
	.db #0x80	; 128
	.db #0x7F	; 127
	.db #0x80	; 128
	.db #0x7F	; 127
	.db #0x01	; 1
	.db #0xFF	; 255
	.db #0x01	; 1
	.db #0xFF	; 255
	.db #0x03	; 3
	.db #0xFD	; 253
	.db #0x07	; 7
	.db #0xF9	; 249
	.db #0x0F	; 15
	.db #0xF1	; 241
	.db #0x1F	; 31
	.db #0xE1	; 225
	.db #0x3F	; 63
	.db #0xC1	; 193
	.db #0x7F	; 127
	.db #0x81	; 129
	.db #0xFF	; 255
	.db #0x01	; 1
	.db #0xFF	; 255
	.db #0x01	; 1
	.db #0xFF	; 255
	.db #0x01	; 1
	.db #0xFF	; 255
	.db #0x01	; 1
	.db #0xFF	; 255
	.db #0x01	; 1
	.db #0xFF	; 255
	.db #0x01	; 1
	.db #0xFF	; 255
	.db #0x01	; 1
	.db #0xFF	; 255
	.db #0x01	; 1
	.db #0x01	; 1
	.db #0xFF	; 255
	.db #0x01	; 1
	.db #0xFE	; 254
	.db #0x03	; 3
	.db #0xFC	; 252
	.db #0x77	; 119	'w'
	.db #0xF8	; 248
	.db #0xFF	; 255
	.db #0x98	; 152
	.db #0xEF	; 239
	.db #0xB8	; 184
	.db #0xCF	; 207
	.db #0xF8	; 248
	.db #0x7F	; 127
	.db #0xF0	; 240
	.db #0xFF	; 255
	.db #0x00	; 0
	.db #0xFF	; 255
	.db #0x00	; 0
	.db #0xFF	; 255
	.db #0x00	; 0
	.db #0xFF	; 255
	.db #0x0E	; 14
	.db #0xFF	; 255
	.db #0x13	; 19
	.db #0xFD	; 253
	.db #0x17	; 23
	.db #0xF9	; 249
	.db #0x1F	; 31
	.db #0xFF	; 255
	.db #0x0E	; 14
	.db #0x80	; 128
	.db #0x7F	; 127
	.db #0x81	; 129
	.db #0x7E	; 126
	.db #0x83	; 131
	.db #0x7C	; 124
	.db #0x87	; 135
	.db #0x78	; 120	'x'
	.db #0x8F	; 143
	.db #0x70	; 112	'p'
	.db #0x9F	; 159
	.db #0x60	; 96
	.db #0xBF	; 191
	.db #0x40	; 64
	.db #0xFF	; 255
	.db #0x7F	; 127
	.db #0x01	; 1
	.db #0xFF	; 255
	.db #0x01	; 1
	.db #0xFF	; 255
	.db #0x01	; 1
	.db #0xFF	; 255
	.db #0x01	; 1
	.db #0xFF	; 255
	.db #0x01	; 1
	.db #0xFF	; 255
	.db #0x01	; 1
	.db #0xFF	; 255
	.db #0x01	; 1
	.db #0xFF	; 255
	.db #0xFF	; 255
	.db #0xFF	; 255
	.db #0xFF	; 255
	.db #0x00	; 0
	.db #0x00	; 0
	.db #0xFF	; 255
	.db #0x00	; 0
	.db #0xFF	; 255
	.db #0x00	; 0
	.db #0xFF	; 255
	.db #0x00	; 0
	.db #0xFF	; 255
	.db #0xFF	; 255
	.db #0xFF	; 255
	.db #0xFF	; 255
	.db #0x00	; 0
	.db #0x00	; 0
	.db #0xFF	; 255
	.db #0x00	; 0
	.db #0xFF	; 255
	.db #0x00	; 0
	.db #0xFF	; 255
	.db #0x00	; 0
	.db #0xFF	; 255
	.db #0xFF	; 255
	.db #0xFF	; 255
	.db #0xFF	; 255
	.db #0x00	; 0
	.db #0x00	; 0
	.db #0xFF	; 255
	.db #0x00	; 0
	.db #0xFF	; 255
	.db #0x00	; 0
	.db #0xFF	; 255
	.db #0x00	; 0
	.db #0xFF	; 255
	.db #0xFF	; 255
	.db #0xFF	; 255
	.db #0xFF	; 255
	.db #0x00	; 0
	.db #0x00	; 0
	.db #0xFF	; 255
	.db #0x00	; 0
	.db #0xFF	; 255
	.db #0x00	; 0
	.db #0xFF	; 255
	.db #0x00	; 0
	.db #0xFF	; 255
	.db #0xFF	; 255
	.db #0xFF	; 255
	.db #0x00	; 0
	.db #0xFF	; 255
	.db #0x00	; 0
	.db #0xFF	; 255
	.db #0x00	; 0
	.db #0xFF	; 255
	.db #0xFF	; 255
	.db #0xFF	; 255
	.db #0xFF	; 255
	.db #0x00	; 0
	.db #0x00	; 0
	.db #0xFF	; 255
	.db #0x00	; 0
	.db #0xFF	; 255
	.db #0x00	; 0
	.db #0xFF	; 255
	.db #0x00	; 0
	.db #0xFF	; 255
	.db #0xFF	; 255
	.db #0xFF	; 255
	.db #0xFF	; 255
	.db #0x00	; 0
	.db #0x00	; 0
	.db #0xFF	; 255
	.db #0x00	; 0
	.db #0xFF	; 255
	.db #0x00	; 0
	.db #0xFF	; 255
	.db #0x00	; 0
	.db #0xFF	; 255
	.db #0xFF	; 255
	.db #0xFF	; 255
	.db #0xFF	; 255
	.db #0x00	; 0
	.db #0x00	; 0
	.db #0xFF	; 255
	.db #0x00	; 0
	.db #0xFF	; 255
	.db #0x00	; 0
	.db #0xFF	; 255
	.db #0x00	; 0
	.db #0xFF	; 255
	.db #0xFF	; 255
	.db #0xFF	; 255
	.db #0xFF	; 255
	.db #0x00	; 0
	.db #0x00	; 0
	.db #0xFF	; 255
	.db #0xFF	; 255
	.db #0x00	; 0
	.db #0x00	; 0
	.db #0xFF	; 255
	.db #0x00	; 0
	.db #0xFF	; 255
	.db #0x00	; 0
	.db #0xFF	; 255
	.db #0x00	; 0
	.db #0xFF	; 255
	.db #0xFF	; 255
	.db #0xFF	; 255
	.db #0xFF	; 255
	.db #0xFF	; 255
	.db #0xFF	; 255
	.db #0xFF	; 255
	.db #0x00	; 0
	.db #0xFF	; 255
	.db #0xFF	; 255
	.db #0xFF	; 255
	.db #0xFF	; 255
	.db #0x00	; 0
	.db #0x00	; 0
	.db #0xFF	; 255
	.db #0x00	; 0
	.db #0xFF	; 255
	.db #0x00	; 0
	.db #0xFF	; 255
	.db #0x00	; 0
	.db #0xFF	; 255
	.db #0xFF	; 255
	.db #0xFF	; 255
	.db #0xFF	; 255
	.db #0x00	; 0
	.db #0x00	; 0
	.db #0xFF	; 255
	.db #0x00	; 0
	.db #0xFF	; 255
	.db #0x00	; 0
	.db #0xFF	; 255
	.db #0x00	; 0
	.db #0xFF	; 255
	.db #0xFF	; 255
	.db #0xFF	; 255
	.db #0xFF	; 255
	.db #0x00	; 0
	.db #0x00	; 0
	.db #0xFF	; 255
	.db #0x00	; 0
	.db #0xFF	; 255
	.db #0x00	; 0
	.db #0xFF	; 255
	.db #0x00	; 0
	.db #0xFF	; 255
	.db #0xFF	; 255
	.db #0xFF	; 255
	.db #0xFF	; 255
	.db #0x00	; 0
	.db #0x00	; 0
	.db #0xFF	; 255
	.db #0x00	; 0
	.db #0xFF	; 255
	.db #0x00	; 0
	.db #0xFF	; 255
	.db #0x00	; 0
	.db #0xFF	; 255
	.db #0x00	; 0
	.db #0xFF	; 255
	.db #0x00	; 0
	.db #0xFF	; 255
	.db #0xFF	; 255
	.db #0xFF	; 255
	.db #0xFF	; 255
	.db #0xFF	; 255
	.db #0xFF	; 255
	.db #0xFF	; 255
	.db #0xFF	; 255
	.db #0xFF	; 255
	.db #0xFF	; 255
	.db #0xFF	; 255
	.db #0x00	; 0
	.db #0xFF	; 255
	.db #0xFF	; 255
	.db #0xFF	; 255
	.db #0xFF	; 255
	.db #0xFF	; 255
	.db #0xFF	; 255
	.db #0xFF	; 255
	.db #0xFF	; 255
	.db #0xFF	; 255
	.db #0xFF	; 255
	.db #0xFF	; 255
	.db #0xFF	; 255
	.db #0xFF	; 255
	.db #0xFF	; 255
	.db #0xFF	; 255
_bkg_data:
	.db #0xFF	; 255
	.db #0xFF	; 255
	.db #0xFF	; 255
	.db #0xFF	; 255
	.db #0xFF	; 255
	.db #0xFF	; 255
	.db #0xFF	; 255
	.db #0xFF	; 255
	.db #0xFF	; 255
	.db #0xFF	; 255
	.db #0xFF	; 255
	.db #0xEF	; 239
	.db #0xFF	; 255
	.db #0xFF	; 255
	.db #0xFF	; 255
	.db #0xFF	; 255
	.db #0xFF	; 255
	.db #0xFF	; 255
	.db #0xFF	; 255
	.db #0xFF	; 255
	.db #0xFF	; 255
	.db #0xFF	; 255
	.db #0xFF	; 255
	.db #0xFF	; 255
	.db #0xFF	; 255
	.db #0xFF	; 255
	.db #0xFF	; 255
	.db #0xDF	; 223
	.db #0xFF	; 255
	.db #0xFF	; 255
	.db #0xFF	; 255
	.db #0xFF	; 255
	.db #0xFF	; 255
	.db #0xFF	; 255
	.db #0xFF	; 255
	.db #0xFB	; 251
	.db #0xFF	; 255
	.db #0xFF	; 255
	.db #0xFF	; 255
	.db #0xFF	; 255
	.db #0xFF	; 255
	.db #0xFF	; 255
	.db #0xFF	; 255
	.db #0xFF	; 255
	.db #0xFF	; 255
	.db #0xFF	; 255
	.db #0xFF	; 255
	.db #0xFF	; 255
	.db #0xFF	; 255
	.db #0xFF	; 255
	.db #0xFF	; 255
	.db #0xFF	; 255
	.db #0xFF	; 255
	.db #0xFF	; 255
	.db #0xFF	; 255
	.db #0xFF	; 255
	.db #0xFF	; 255
	.db #0xFF	; 255
	.db #0xFF	; 255
	.db #0xFF	; 255
	.db #0xF7	; 247
	.db #0xF7	; 247
	.db #0xFF	; 255
	.db #0xFF	; 255
	.db #0xFF	; 255
	.db #0xFF	; 255
	.db #0xFF	; 255
	.db #0xFF	; 255
	.db #0xFF	; 255
	.db #0xFF	; 255
	.db #0xFF	; 255
	.db #0xFF	; 255
	.db #0xFF	; 255
	.db #0xDF	; 223
	.db #0xFF	; 255
	.db #0xFF	; 255
	.db #0xFF	; 255
	.db #0xFF	; 255
	.db #0xFF	; 255
	.db #0xFF	; 255
	.db #0xFF	; 255
	.db #0xFF	; 255
	.db #0xFF	; 255
	.db #0xFF	; 255
	.db #0xFF	; 255
	.db #0xFF	; 255
	.db #0xFF	; 255
	.db #0xFF	; 255
	.db #0xFF	; 255
	.db #0xFF	; 255
	.db #0xFF	; 255
	.db #0xFF	; 255
	.db #0xFF	; 255
	.db #0xFF	; 255
	.db #0xFF	; 255
	.db #0x7F	; 127
	.db #0xFF	; 255
	.db #0xFF	; 255
	.db #0xFF	; 255
	.db #0xFF	; 255
	.db #0xFF	; 255
	.db #0xFF	; 255
	.db #0xFF	; 255
	.db #0xFF	; 255
	.db #0xFF	; 255
	.db #0xF7	; 247
	.db #0xFF	; 255
	.db #0xFF	; 255
	.db #0xFF	; 255
	.db #0xFF	; 255
	.db #0xFF	; 255
	.db #0xFF	; 255
	.db #0xFF	; 255
	.db #0xFF	; 255
	.db #0xDF	; 223
	.db #0xFF	; 255
	.db #0xEF	; 239
	.db #0xFF	; 255
	.db #0xFF	; 255
	.db #0xF7	; 247
	.db #0xFF	; 255
	.db #0xFB	; 251
	.db #0xFF	; 255
	.db #0xFD	; 253
	.db #0xFF	; 255
	.db #0xFE	; 254
	.db #0xFE	; 254
	.db #0xFF	; 255
	.db #0xFF	; 255
	.db #0xFF	; 255
	.db #0xFF	; 255
	.db #0xFF	; 255
	.db #0xF7	; 247
	.db #0xFF	; 255
	.db #0xFF	; 255
	.db #0xFF	; 255
	.db #0xFF	; 255
	.db #0xFF	; 255
	.db #0xFF	; 255
	.db #0xFF	; 255
	.db #0x7D	; 125
	.db #0xFE	; 254
	.db #0x7C	; 124
	.db #0x39	; 57	'9'
	.db #0xFF	; 255
	.db #0xFF	; 255
	.db #0xF7	; 247
	.db #0xFF	; 255
	.db #0xEF	; 239
	.db #0xFF	; 255
	.db #0xFF	; 255
	.db #0xDF	; 223
	.db #0xFF	; 255
	.db #0xBF	; 191
	.db #0xFF	; 255
	.db #0x7F	; 127
	.db #0xFF	; 255
	.db #0xFF	; 255
	.db #0xFF	; 255
	.db #0xFF	; 255
	.db #0xFF	; 255
	.db #0xFF	; 255
	.db #0xFF	; 255
	.db #0xFF	; 255
	.db #0xFF	; 255
	.db #0xFF	; 255
	.db #0xFF	; 255
	.db #0xFF	; 255
	.db #0xFF	; 255
	.db #0xFF	; 255
	.db #0xDF	; 223
	.db #0xFF	; 255
	.db #0xFF	; 255
	.db #0xFF	; 255
	.db #0xFF	; 255
	.db #0xFF	; 255
	.db #0xFF	; 255
	.db #0xFF	; 255
	.db #0xFF	; 255
	.db #0xFF	; 255
	.db #0xFF	; 255
	.db #0xFF	; 255
	.db #0xFF	; 255
	.db #0xFF	; 255
	.db #0xFF	; 255
	.db #0xFF	; 255
	.db #0xFE	; 254
	.db #0xFF	; 255
	.db #0xFF	; 255
	.db #0xFE	; 254
	.db #0xFF	; 255
	.db #0xFD	; 253
	.db #0xBB	; 187
	.db #0x01	; 1
	.db #0xC7	; 199
	.db #0x83	; 131
	.db #0xC7	; 199
	.db #0x83	; 131
	.db #0xC7	; 199
	.db #0x83	; 131
	.db #0xBB	; 187
	.db #0x01	; 1
	.db #0x7C	; 124
	.db #0x39	; 57	'9'
	.db #0x7D	; 125
	.db #0xFE	; 254
	.db #0xFF	; 255
	.db #0xFF	; 255
	.db #0xFF	; 255
	.db #0xFF	; 255
	.db #0xFF	; 255
	.db #0xFF	; 255
	.db #0xFF	; 255
	.db #0xFF	; 255
	.db #0xFF	; 255
	.db #0xFF	; 255
	.db #0xFF	; 255
	.db #0xFD	; 253
	.db #0xFF	; 255
	.db #0xFF	; 255
	.db #0xFF	; 255
	.db #0xFF	; 255
	.db #0xFF	; 255
	.db #0x7F	; 127
	.db #0xFF	; 255
	.db #0xFF	; 255
	.db #0xFF	; 255
	.db #0xFF	; 255
	.db #0xFD	; 253
	.db #0xFF	; 255
	.db #0xFF	; 255
	.db #0xFE	; 254
	.db #0xFF	; 255
	.db #0xFF	; 255
	.db #0xFF	; 255
	.db #0x7F	; 127
	.db #0xFF	; 255
	.db #0xFF	; 255
	.db #0xFF	; 255
	.db #0xFF	; 255
	.db #0xFF	; 255
	.db #0xFF	; 255
	.db #0xFF	; 255
	.db #0xFF	; 255
	.db #0xFD	; 253
	.db #0xFF	; 255
	.db #0xFF	; 255
	.db #0xFB	; 251
	.db #0xAF	; 175
	.db #0x77	; 119	'w'
	.db #0x27	; 39
	.db #0x8F	; 143
	.db #0xDF	; 223
	.db #0x8F	; 143
	.db #0x27	; 39
	.db #0x8F	; 143
	.db #0xFF	; 255
	.db #0xFF	; 255
	.db #0xFF	; 255
	.db #0xFE	; 254
	.db #0xFF	; 255
	.db #0xFF	; 255
	.db #0xFF	; 255
	.db #0xFF	; 255
	.db #0xFF	; 255
	.db #0xFF	; 255
	.db #0xFF	; 255
	.db #0xFF	; 255
	.db #0xFF	; 255
	.db #0xFF	; 255
	.db #0xFF	; 255
	.db #0xFF	; 255
	.db #0xFF	; 255
	.db #0xFB	; 251
	.db #0xFF	; 255
	.db #0xF7	; 247
	.db #0xEF	; 239
	.db #0xFF	; 255
	.db #0xDF	; 223
	.db #0xFF	; 255
	.db #0xFF	; 255
	.db #0xFF	; 255
	.db #0xFF	; 255
	.db #0xFF	; 255
	.db #0xFF	; 255
	.db #0xFF	; 255
	.db #0xFF	; 255
	.db #0xFF	; 255
	.db #0xFF	; 255
	.db #0xFF	; 255
	.db #0xFF	; 255
	.db #0xFF	; 255
	.db #0xFF	; 255
	.db #0xFF	; 255
	.db #0x7F	; 127
	.db #0xFF	; 255
	.db #0xFF	; 255
	.db #0xFB	; 251
	.db #0xFF	; 255
	.db #0xFF	; 255
	.db #0xFF	; 255
	.db #0xFF	; 255
	.db #0xFF	; 255
	.db #0xFF	; 255
	.db #0xFF	; 255
	.db #0xBF	; 191
	.db #0xFF	; 255
	.db #0xDF	; 223
	.db #0xEF	; 239
	.db #0xFF	; 255
	.db #0xF7	; 247
	.db #0xFF	; 255
	.db #0xFF	; 255
	.db #0xFF	; 255
	.db #0xFF	; 255
	.db #0xFF	; 255
	.db #0xFF	; 255
	.db #0xFF	; 255
	.db #0xFF	; 255
	.db #0xFF	; 255
	.db #0xFF	; 255
	.db #0xFF	; 255
	.db #0xFF	; 255
	.db #0xFF	; 255
	.db #0xFF	; 255
	.db #0xFF	; 255
	.db #0xFF	; 255
	.db #0xFF	; 255
	.db #0xFF	; 255
	.db #0xFD	; 253
	.db #0xFF	; 255
	.db #0xFF	; 255
	.db #0xFF	; 255
	.db #0xFF	; 255
	.db #0xFF	; 255
	.db #0xFF	; 255
	.db #0xFF	; 255
	.db #0xFF	; 255
	.db #0xFF	; 255
	.db #0xFE	; 254
	.db #0xFD	; 253
	.db #0xFF	; 255
	.db #0xFF	; 255
	.db #0xFF	; 255
	.db #0xFF	; 255
	.db #0xFF	; 255
	.db #0xFF	; 255
	.db #0xFF	; 255
	.db #0xFF	; 255
	.db #0xFF	; 255
	.db #0xFF	; 255
	.db #0xFF	; 255
	.db #0xAF	; 175
	.db #0x77	; 119	'w'
	.db #0xFF	; 255
	.db #0xFB	; 251
	.db #0xFD	; 253
	.db #0xFF	; 255
	.db #0xFF	; 255
	.db #0xFF	; 255
	.db #0xFF	; 255
	.db #0xFF	; 255
	.db #0xFF	; 255
	.db #0xFF	; 255
	.db #0xFF	; 255
	.db #0xFF	; 255
	.db #0xFF	; 255
	.db #0xFF	; 255
	.db #0xFF	; 255
	.db #0xFF	; 255
	.db #0xFF	; 255
	.db #0xFD	; 253
	.db #0xFF	; 255
	.db #0xFF	; 255
	.db #0xFF	; 255
	.db #0xFF	; 255
	.db #0xFF	; 255
	.db #0xFF	; 255
	.db #0xFF	; 255
	.db #0xFF	; 255
	.db #0xFF	; 255
	.db #0xFF	; 255
	.db #0xFB	; 251
	.db #0xFF	; 255
	.db #0xFF	; 255
	.db #0xFF	; 255
	.db #0xFF	; 255
	.db #0xFF	; 255
	.db #0xFE	; 254
	.db #0xFF	; 255
	.db #0xFF	; 255
	.db #0xFF	; 255
	.db #0xFF	; 255
	.db #0xFF	; 255
	.db #0xFF	; 255
	.db #0xFF	; 255
	.db #0xFF	; 255
	.db #0x7F	; 127
	.db #0xFF	; 255
	.db #0xFF	; 255
	.db #0xFF	; 255
	.db #0xFF	; 255
	.db #0xFF	; 255
	.db #0xFF	; 255
	.db #0xFF	; 255
	.db #0xFF	; 255
	.db #0xFF	; 255
	.db #0xFF	; 255
	.db #0xFF	; 255
	.db #0xFF	; 255
	.db #0xF7	; 247
	.db #0xFF	; 255
	.db #0xFF	; 255
	.db #0xFF	; 255
	.db #0xFF	; 255
	.db #0xFF	; 255
	.db #0xFF	; 255
	.db #0xFF	; 255
	.db #0xFF	; 255
	.db #0xFF	; 255
	.db #0xFF	; 255
	.db #0xFB	; 251
	.db #0xFF	; 255
	.db #0xFF	; 255
	.db #0xFF	; 255
	.db #0xFF	; 255
	.db #0xFF	; 255
	.db #0xFF	; 255
	.db #0xFF	; 255
	.db #0xFF	; 255
	.db #0xFE	; 254
	.db #0xFF	; 255
	.db #0xFF	; 255
	.db #0xFF	; 255
	.db #0xFF	; 255
	.db #0xFF	; 255
	.db #0xFF	; 255
	.db #0xFF	; 255
	.db #0xFF	; 255
	.db #0xFF	; 255
	.db #0xFF	; 255
	.db #0xFF	; 255
	.db #0xFE	; 254
	.db #0xFF	; 255
	.db #0x7D	; 125
	.db #0xFE	; 254
	.db #0x7C	; 124
	.db #0x39	; 57	'9'
	.db #0xFF	; 255
	.db #0xFF	; 255
	.db #0xF7	; 247
	.db #0xFF	; 255
	.db #0xEF	; 239
	.db #0xFF	; 255
	.db #0xFF	; 255
	.db #0xDF	; 223
	.db #0xFF	; 255
	.db #0xBF	; 191
	.db #0xFF	; 255
	.db #0x7F	; 127
	.db #0x7F	; 127
	.db #0xFF	; 255
	.db #0xFF	; 255
	.db #0xFF	; 255
	.db #0xFF	; 255
	.db #0xFF	; 255
	.db #0xFF	; 255
	.db #0xFF	; 255
	.db #0xFF	; 255
	.db #0xFF	; 255
	.db #0xBF	; 191
	.db #0xFF	; 255
	.db #0xFF	; 255
	.db #0xFF	; 255
	.db #0xFF	; 255
	.db #0xFF	; 255
	.db #0xFD	; 253
	.db #0xFF	; 255
	.db #0xFF	; 255
	.db #0xFF	; 255
	.db #0xFF	; 255
	.db #0xFF	; 255
	.db #0xFF	; 255
	.db #0xFF	; 255
	.db #0xFF	; 255
	.db #0xEF	; 239
	.db #0xFF	; 255
	.db #0xFF	; 255
	.db #0xFF	; 255
	.db #0xFF	; 255
	.db #0xFF	; 255
	.db #0xFF	; 255
	.db #0xFF	; 255
	.db #0xFF	; 255
	.db #0xFF	; 255
	.db #0xFF	; 255
	.db #0xFF	; 255
	.db #0xFF	; 255
	.db #0xFF	; 255
	.db #0xFF	; 255
	.db #0xFF	; 255
	.db #0xFF	; 255
	.db #0xFF	; 255
	.db #0xFF	; 255
	.db #0xFF	; 255
	.db #0xFF	; 255
	.db #0xFF	; 255
	.db #0xFF	; 255
	.db #0xFF	; 255
	.db #0xFF	; 255
	.db #0x7F	; 127
	.db #0xFD	; 253
	.db #0xFF	; 255
	.db #0xFF	; 255
	.db #0xDF	; 223
	.db #0xFF	; 255
	.db #0xEF	; 239
	.db #0xFF	; 255
	.db #0xFF	; 255
	.db #0xF7	; 247
	.db #0xFF	; 255
	.db #0xFB	; 251
	.db #0xFE	; 254
	.db #0xFD	; 253
	.db #0xFD	; 253
	.db #0xFE	; 254
	.db #0xFE	; 254
	.db #0xFF	; 255
	.db #0xAB	; 171
	.db #0x11	; 17
	.db #0xC7	; 199
	.db #0x83	; 131
	.db #0x83	; 131
	.db #0xC7	; 199
	.db #0xC7	; 199
	.db #0x83	; 131
	.db #0xAB	; 171
	.db #0x11	; 17
	.db #0x7C	; 124
	.db #0x39	; 57	'9'
	.db #0x7D	; 125
	.db #0xFE	; 254
	.db #0xFE	; 254
	.db #0xFF	; 255
	.db #0xFF	; 255
	.db #0xFF	; 255
	.db #0xFF	; 255
	.db #0xFF	; 255
	.db #0xFB	; 251
	.db #0xDF	; 223
	.db #0xFF	; 255
	.db #0xFF	; 255
	.db #0xFF	; 255
	.db #0xFF	; 255
	.db #0xFF	; 255
	.db #0xFF	; 255
	.db #0x7F	; 127
	.db #0xFF	; 255
	.db #0xFF	; 255
	.db #0x7F	; 127
	.db #0xFB	; 251
	.db #0xFF	; 255
	.db #0xFF	; 255
	.db #0xFD	; 253
	.db #0xFE	; 254
	.db #0xFE	; 254
	.db #0xFE	; 254
	.db #0xFF	; 255
	.db #0xFE	; 254
	.db #0xFE	; 254
	.db #0xFF	; 255
	.db #0xFD	; 253
	.db #0xFB	; 251
	.db #0xFF	; 255
	.db #0xFF	; 255
	.db #0xFF	; 255
	.db #0xEF	; 239
	.db #0xFF	; 255
	.db #0xFF	; 255
	.db #0xDF	; 223
	.db #0x3F	; 63
	.db #0xBF	; 191
	.db #0x3F	; 63
	.db #0x7F	; 127
	.db #0x3F	; 63
	.db #0xBF	; 191
	.db #0xFF	; 255
	.db #0xDF	; 223
	.db #0xEF	; 239
	.db #0xFF	; 255
	.db #0xFF	; 255
	.db #0xFF	; 255
	.db #0xFF	; 255
	.db #0xFF	; 255
	.db #0xFF	; 255
	.db #0xFF	; 255
	.db #0xFF	; 255
	.db #0xFF	; 255
	.db #0xFF	; 255
	.db #0xFF	; 255
	.db #0xFF	; 255
	.db #0xFF	; 255
	.db #0xEF	; 239
	.db #0xFB	; 251
	.db #0xFF	; 255
	.db #0xFF	; 255
	.db #0xFF	; 255
	.db #0xFF	; 255
	.db #0xFF	; 255
	.db #0xFF	; 255
	.db #0xFF	; 255
	.db #0xFF	; 255
	.db #0xFF	; 255
	.db #0xFF	; 255
	.db #0xFF	; 255
	.db #0xFF	; 255
	.db #0xFF	; 255
	.db #0xFF	; 255
	.db #0xFE	; 254
	.db #0xFF	; 255
	.db #0xFD	; 253
	.db #0xFE	; 254
	.db #0xFE	; 254
	.db #0xFD	; 253
	.db #0xFF	; 255
	.db #0xFF	; 255
	.db #0xFF	; 255
	.db #0xFF	; 255
	.db #0xFF	; 255
	.db #0xFF	; 255
	.db #0xFF	; 255
	.db #0xFF	; 255
	.db #0xFF	; 255
	.db #0xFF	; 255
	.db #0xFF	; 255
	.db #0xFF	; 255
	.db #0xFF	; 255
	.db #0xFB	; 251
	.db #0xFF	; 255
	.db #0xFF	; 255
	.db #0xF7	; 247
	.db #0xFF	; 255
	.db #0xFB	; 251
	.db #0xFF	; 255
	.db #0xFF	; 255
	.db #0xFF	; 255
	.db #0xFF	; 255
	.db #0xFF	; 255
	.db #0xFF	; 255
	.db #0xFF	; 255
	.db #0xFF	; 255
	.db #0xFF	; 255
	.db #0xFF	; 255
	.db #0xFF	; 255
	.db #0xFF	; 255
	.db #0xFF	; 255
	.db #0xFF	; 255
	.db #0xFF	; 255
	.db #0xFF	; 255
	.db #0xFF	; 255
	.db #0xFF	; 255
	.db #0xBF	; 191
	.db #0xFF	; 255
	.db #0xFF	; 255
	.db #0xFF	; 255
	.db #0xFF	; 255
	.db #0xFF	; 255
	.db #0xFF	; 255
	.db #0xFF	; 255
	.db #0xFF	; 255
	.db #0xFF	; 255
	.db #0xFF	; 255
	.db #0xFF	; 255
	.db #0xFF	; 255
	.db #0xFF	; 255
	.db #0xFF	; 255
	.db #0xFF	; 255
	.db #0xFF	; 255
	.db #0xFF	; 255
	.db #0xFF	; 255
	.db #0xFF	; 255
	.db #0xFE	; 254
	.db #0xFE	; 254
	.db #0xFF	; 255
	.db #0xFF	; 255
	.db #0xFF	; 255
	.db #0xFF	; 255
	.db #0xFF	; 255
	.db #0xFF	; 255
	.db #0xFF	; 255
	.db #0xFF	; 255
	.db #0xFF	; 255
	.db #0xFF	; 255
	.db #0xFF	; 255
	.db #0xFF	; 255
	.db #0xFD	; 253
	.db #0xFF	; 255
	.db #0xFF	; 255
	.db #0xFF	; 255
	.db #0xFF	; 255
	.db #0xFF	; 255
	.db #0xFF	; 255
	.db #0xFF	; 255
	.db #0xFF	; 255
	.db #0xFF	; 255
	.db #0xFF	; 255
	.db #0xFF	; 255
	.db #0xFF	; 255
	.db #0x7F	; 127
	.db #0xFF	; 255
	.db #0xFF	; 255
	.db #0xFF	; 255
	.db #0xFF	; 255
	.db #0xFF	; 255
	.db #0xFF	; 255
	.db #0xFF	; 255
	.db #0xFF	; 255
	.db #0xFF	; 255
	.db #0xFF	; 255
	.db #0xFF	; 255
_bkg_tiles:
	.db #0x00	; 0
	.db #0x01	; 1
	.db #0x02	; 2
	.db #0x03	; 3
	.db #0xFC	; 252
	.db #0xFC	; 252
	.db #0x04	; 4
	.db #0xFC	; 252
	.db #0xFC	; 252
	.db #0x05	; 5
	.db #0x06	; 6
	.db #0xFC	; 252
	.db #0x07	; 7
	.db #0x08	; 8
	.db #0x09	; 9
	.db #0x0A	; 10
	.db #0xFC	; 252
	.db #0xFC	; 252
	.db #0xFC	; 252
	.db #0x02	; 2
	.db #0x0B	; 11
	.db #0x0C	; 12
	.db #0x0D	; 13
	.db #0xFC	; 252
	.db #0x0E	; 14
	.db #0x0F	; 15
	.db #0x10	; 16
	.db #0xFC	; 252
	.db #0x11	; 17
	.db #0x12	; 18
	.db #0x13	; 19
	.db #0x14	; 20
	.db #0x15	; 21
	.db #0x16	; 22
	.db #0x17	; 23
	.db #0xFC	; 252
	.db #0x18	; 24
	.db #0x19	; 25
	.db #0x1A	; 26
	.db #0xFC	; 252
	.db #0x1B	; 27
	.db #0x1C	; 28
	.db #0x1D	; 29
	.db #0xFC	; 252
	.db #0xFC	; 252
	.db #0x1E	; 30
	.db #0x1F	; 31
	.db #0x20	; 32
	.db #0x21	; 33
	.db #0x22	; 34
	.db #0xFC	; 252
	.db #0x23	; 35
	.db #0x24	; 36
	.db #0x25	; 37
	.db #0xFC	; 252
	.db #0x26	; 38
	.db #0x27	; 39
	.db #0x13	; 19
	.db #0x28	; 40
	.db #0x29	; 41
	.db #0x2A	; 42
	.db #0x2B	; 43
	.db #0x2C	; 44
	.db #0x11	; 17
_earth_tiles:
	.db #0x00	; 0
	.db #0x02	; 2
	.db #0x04	; 4
	.db #0x06	; 6
	.db #0x08	; 8
	.db #0x0A	; 10
	.db #0x0C	; 12
	.db #0x0E	; 14
	.db #0x10	; 16
	.db #0x12	; 18
	.db #0x14	; 20
	.db #0x16	; 22
	.db #0x18	; 24
	.db #0x1A	; 26
_frame_tiles:
	.db #0x80	; 128
	.db #0x81	; 129
	.db #0xFD	; 253
	.db #0x82	; 130
	.db #0x83	; 131
	.db #0x81	; 129
	.db #0xFD	; 253
	.db #0x82	; 130
	.db #0x83	; 131
	.db #0x81	; 129
	.db #0xFD	; 253
	.db #0x82	; 130
	.db #0x83	; 131
	.db #0x81	; 129
	.db #0xFD	; 253
	.db #0x84	; 132
	.db #0x85	; 133
	.db #0x86	; 134
	.db #0x87	; 135
	.db #0x88	; 136
	.db #0x89	; 137
	.db #0x8A	; 138
	.db #0x87	; 135
	.db #0x88	; 136
	.db #0x89	; 137
	.db #0x8A	; 138
	.db #0x87	; 135
	.db #0x88	; 136
	.db #0x89	; 137
	.db #0x8A	; 138
	.db #0x8B	; 139
	.db #0x8C	; 140
	.db #0xFD	; 253
	.db #0x8D	; 141
	.db #0xFF	; 255
	.db #0xFF	; 255
	.db #0xFF	; 255
	.db #0xFF	; 255
	.db #0xFF	; 255
	.db #0xFF	; 255
	.db #0xFF	; 255
	.db #0xFF	; 255
	.db #0xFF	; 255
	.db #0xFF	; 255
	.db #0xFF	; 255
	.db #0xFF	; 255
	.db #0x8E	; 142
	.db #0x8F	; 143
	.db #0x82	; 130
	.db #0x8C	; 140
	.db #0xFF	; 255
	.db #0xFF	; 255
	.db #0xFF	; 255
	.db #0xFF	; 255
	.db #0xFF	; 255
	.db #0xFF	; 255
	.db #0xFF	; 255
	.db #0xFF	; 255
	.db #0xFF	; 255
	.db #0xFF	; 255
	.db #0xFF	; 255
	.db #0xFF	; 255
	.db #0x85	; 133
	.db #0x90	; 144
	.db #0x8E	; 142
	.db #0x8F	; 143
	.db #0xFF	; 255
	.db #0xFF	; 255
	.db #0xFF	; 255
	.db #0xFF	; 255
	.db #0xFF	; 255
	.db #0xFF	; 255
	.db #0xFF	; 255
	.db #0xFF	; 255
	.db #0xFF	; 255
	.db #0xFF	; 255
	.db #0xFF	; 255
	.db #0xFF	; 255
	.db #0xFD	; 253
	.db #0x8D	; 141
	.db #0x85	; 133
	.db #0x90	; 144
	.db #0xFF	; 255
	.db #0xFF	; 255
	.db #0xFF	; 255
	.db #0xFF	; 255
	.db #0xFF	; 255
	.db #0xFF	; 255
	.db #0xFF	; 255
	.db #0xFF	; 255
	.db #0xFF	; 255
	.db #0xFF	; 255
	.db #0xFF	; 255
	.db #0xFF	; 255
	.db #0x82	; 130
	.db #0x8C	; 140
	.db #0xFD	; 253
	.db #0x8D	; 141
	.db #0xFF	; 255
	.db #0xFF	; 255
	.db #0xFF	; 255
	.db #0xFF	; 255
	.db #0xFF	; 255
	.db #0xFF	; 255
	.db #0xFF	; 255
	.db #0xFF	; 255
	.db #0xFF	; 255
	.db #0xFF	; 255
	.db #0xFF	; 255
	.db #0xFF	; 255
	.db #0x8E	; 142
	.db #0x8F	; 143
	.db #0x82	; 130
	.db #0x8C	; 140
	.db #0xFF	; 255
	.db #0xFF	; 255
	.db #0xFF	; 255
	.db #0xFF	; 255
	.db #0xFF	; 255
	.db #0xFF	; 255
	.db #0xFF	; 255
	.db #0xFF	; 255
	.db #0xFF	; 255
	.db #0xFF	; 255
	.db #0xFF	; 255
	.db #0xFF	; 255
	.db #0x85	; 133
	.db #0x90	; 144
	.db #0x8E	; 142
	.db #0x91	; 145
	.db #0xFD	; 253
	.db #0x82	; 130
	.db #0x83	; 131
	.db #0x81	; 129
	.db #0xFD	; 253
	.db #0x82	; 130
	.db #0x83	; 131
	.db #0x81	; 129
	.db #0xFD	; 253
	.db #0x82	; 130
	.db #0x83	; 131
	.db #0x81	; 129
	.db #0x92	; 146
	.db #0x8D	; 141
	.db #0x93	; 147
	.db #0x8A	; 138
	.db #0x87	; 135
	.db #0x88	; 136
	.db #0x89	; 137
	.db #0x8A	; 138
	.db #0x87	; 135
	.db #0x88	; 136
	.db #0x89	; 137
	.db #0x8A	; 138
	.db #0x87	; 135
	.db #0x88	; 136
	.db #0x89	; 137
	.db #0x8A	; 138
	.db #0x87	; 135
	.db #0x94	; 148
_door1_tiles:
	.db #0x95	; 149
	.db #0x95	; 149
	.db #0x95	; 149
	.db #0x95	; 149
	.db #0x95	; 149
	.db #0x95	; 149
	.db #0x95	; 149
	.db #0x95	; 149
	.db #0x95	; 149
	.db #0x95	; 149
	.db #0x95	; 149
	.db #0x95	; 149
	.db #0x96	; 150
	.db #0x96	; 150
	.db #0x96	; 150
	.db #0x96	; 150
	.db #0x96	; 150
	.db #0x96	; 150
	.db #0x96	; 150
	.db #0x96	; 150
	.db #0x96	; 150
	.db #0x96	; 150
	.db #0x96	; 150
	.db #0x96	; 150
	.db #0x97	; 151
	.db #0x97	; 151
	.db #0x97	; 151
	.db #0x97	; 151
	.db #0x97	; 151
	.db #0x97	; 151
	.db #0x97	; 151
	.db #0x97	; 151
	.db #0x97	; 151
	.db #0x97	; 151
	.db #0x97	; 151
	.db #0x97	; 151
	.db #0x95	; 149
	.db #0x95	; 149
	.db #0x95	; 149
	.db #0x95	; 149
	.db #0x95	; 149
	.db #0x95	; 149
	.db #0x95	; 149
	.db #0x95	; 149
	.db #0x95	; 149
	.db #0x95	; 149
	.db #0x95	; 149
	.db #0x95	; 149
	.db #0x96	; 150
	.db #0x96	; 150
	.db #0x96	; 150
	.db #0x96	; 150
	.db #0x96	; 150
	.db #0x96	; 150
	.db #0x96	; 150
	.db #0x96	; 150
	.db #0x96	; 150
	.db #0x96	; 150
	.db #0x96	; 150
	.db #0x96	; 150
	.db #0x97	; 151
	.db #0x97	; 151
	.db #0x97	; 151
	.db #0x97	; 151
	.db #0x97	; 151
	.db #0x97	; 151
	.db #0x97	; 151
	.db #0x97	; 151
	.db #0x97	; 151
	.db #0x97	; 151
	.db #0x97	; 151
	.db #0x97	; 151
	.db #0xFC	; 252
	.db #0xFC	; 252
	.db #0xFC	; 252
	.db #0xFC	; 252
	.db #0xFC	; 252
	.db #0xFC	; 252
	.db #0xFC	; 252
	.db #0xFC	; 252
	.db #0xFC	; 252
	.db #0xFC	; 252
	.db #0xFC	; 252
	.db #0xFC	; 252
	.db #0xFC	; 252
	.db #0xFC	; 252
	.db #0xFC	; 252
	.db #0xFC	; 252
	.db #0xFC	; 252
	.db #0xFC	; 252
	.db #0xFC	; 252
	.db #0xFC	; 252
	.db #0xFC	; 252
	.db #0xFC	; 252
	.db #0xFC	; 252
	.db #0xFC	; 252
	.db #0xFC	; 252
	.db #0xFC	; 252
	.db #0xFC	; 252
	.db #0xFC	; 252
	.db #0xFC	; 252
	.db #0xFC	; 252
	.db #0xFC	; 252
	.db #0xFC	; 252
	.db #0xFC	; 252
	.db #0xFC	; 252
	.db #0xFC	; 252
	.db #0xFC	; 252
	.db #0xFC	; 252
	.db #0xFC	; 252
	.db #0xFC	; 252
	.db #0xFC	; 252
	.db #0xFC	; 252
	.db #0xFC	; 252
	.db #0xFC	; 252
	.db #0xFC	; 252
	.db #0xFC	; 252
	.db #0xFC	; 252
	.db #0xFC	; 252
	.db #0xFC	; 252
	.db #0xFC	; 252
	.db #0xFC	; 252
	.db #0xFC	; 252
	.db #0xFC	; 252
	.db #0xFC	; 252
	.db #0xFC	; 252
	.db #0xFC	; 252
	.db #0xFC	; 252
	.db #0xFC	; 252
	.db #0xFC	; 252
	.db #0xFC	; 252
	.db #0xFC	; 252
	.db #0xFC	; 252
	.db #0xFC	; 252
	.db #0xFC	; 252
	.db #0xFC	; 252
	.db #0xFC	; 252
	.db #0xFC	; 252
	.db #0xFC	; 252
	.db #0xFC	; 252
	.db #0xFC	; 252
	.db #0xFC	; 252
	.db #0xFC	; 252
	.db #0xFC	; 252
_door2_tiles:
	.db #0x98	; 152
	.db #0x98	; 152
	.db #0x98	; 152
	.db #0x98	; 152
	.db #0x98	; 152
	.db #0x98	; 152
	.db #0x98	; 152
	.db #0x98	; 152
	.db #0x98	; 152
	.db #0x98	; 152
	.db #0x98	; 152
	.db #0x98	; 152
	.db #0x99	; 153
	.db #0x99	; 153
	.db #0x99	; 153
	.db #0x99	; 153
	.db #0x99	; 153
	.db #0x99	; 153
	.db #0x99	; 153
	.db #0x99	; 153
	.db #0x99	; 153
	.db #0x99	; 153
	.db #0x99	; 153
	.db #0x99	; 153
	.db #0x9A	; 154
	.db #0x9A	; 154
	.db #0x9A	; 154
	.db #0x9A	; 154
	.db #0x9A	; 154
	.db #0x9A	; 154
	.db #0x9A	; 154
	.db #0x9A	; 154
	.db #0x9A	; 154
	.db #0x9A	; 154
	.db #0x9A	; 154
	.db #0x9A	; 154
	.db #0x98	; 152
	.db #0x98	; 152
	.db #0x98	; 152
	.db #0x98	; 152
	.db #0x98	; 152
	.db #0x98	; 152
	.db #0x98	; 152
	.db #0x98	; 152
	.db #0x98	; 152
	.db #0x98	; 152
	.db #0x98	; 152
	.db #0x98	; 152
	.db #0x99	; 153
	.db #0x99	; 153
	.db #0x99	; 153
	.db #0x99	; 153
	.db #0x99	; 153
	.db #0x99	; 153
	.db #0x99	; 153
	.db #0x99	; 153
	.db #0x99	; 153
	.db #0x99	; 153
	.db #0x99	; 153
	.db #0x99	; 153
	.db #0x9B	; 155
	.db #0x9B	; 155
	.db #0x9B	; 155
	.db #0x9B	; 155
	.db #0x9B	; 155
	.db #0x9B	; 155
	.db #0x9B	; 155
	.db #0x9B	; 155
	.db #0x9B	; 155
	.db #0x9B	; 155
	.db #0x9B	; 155
	.db #0x9B	; 155
	.db #0xFC	; 252
	.db #0xFC	; 252
	.db #0xFC	; 252
	.db #0xFC	; 252
	.db #0xFC	; 252
	.db #0xFC	; 252
	.db #0xFC	; 252
	.db #0xFC	; 252
	.db #0xFC	; 252
	.db #0xFC	; 252
	.db #0xFC	; 252
	.db #0xFC	; 252
	.db #0xFC	; 252
	.db #0xFC	; 252
	.db #0xFC	; 252
	.db #0xFC	; 252
	.db #0xFC	; 252
	.db #0xFC	; 252
	.db #0xFC	; 252
	.db #0xFC	; 252
	.db #0xFC	; 252
	.db #0xFC	; 252
	.db #0xFC	; 252
	.db #0xFC	; 252
	.db #0xFC	; 252
	.db #0xFC	; 252
	.db #0xFC	; 252
	.db #0xFC	; 252
	.db #0xFC	; 252
	.db #0xFC	; 252
	.db #0xFC	; 252
	.db #0xFC	; 252
	.db #0xFC	; 252
	.db #0xFC	; 252
	.db #0xFC	; 252
	.db #0xFC	; 252
	.db #0xFC	; 252
	.db #0xFC	; 252
	.db #0xFC	; 252
	.db #0xFC	; 252
	.db #0xFC	; 252
	.db #0xFC	; 252
	.db #0xFC	; 252
	.db #0xFC	; 252
	.db #0xFC	; 252
	.db #0xFC	; 252
	.db #0xFC	; 252
	.db #0xFC	; 252
	.db #0xFC	; 252
	.db #0xFC	; 252
	.db #0xFC	; 252
	.db #0xFC	; 252
	.db #0xFC	; 252
	.db #0xFC	; 252
	.db #0xFC	; 252
	.db #0xFC	; 252
	.db #0xFC	; 252
	.db #0xFC	; 252
	.db #0xFC	; 252
	.db #0xFC	; 252
_door3_tiles:
	.db #0x9C	; 156
	.db #0x9C	; 156
	.db #0x9C	; 156
	.db #0x9C	; 156
	.db #0x9C	; 156
	.db #0x9C	; 156
	.db #0x9C	; 156
	.db #0x9C	; 156
	.db #0x9C	; 156
	.db #0x9C	; 156
	.db #0x9C	; 156
	.db #0x9C	; 156
	.db #0x9D	; 157
	.db #0x9D	; 157
	.db #0x9D	; 157
	.db #0x9D	; 157
	.db #0x9D	; 157
	.db #0x9D	; 157
	.db #0x9D	; 157
	.db #0x9D	; 157
	.db #0x9D	; 157
	.db #0x9D	; 157
	.db #0x9D	; 157
	.db #0x9D	; 157
	.db #0x9E	; 158
	.db #0x9E	; 158
	.db #0x9E	; 158
	.db #0x9E	; 158
	.db #0x9E	; 158
	.db #0x9E	; 158
	.db #0x9E	; 158
	.db #0x9E	; 158
	.db #0x9E	; 158
	.db #0x9E	; 158
	.db #0x9E	; 158
	.db #0x9E	; 158
	.db #0x9C	; 156
	.db #0x9C	; 156
	.db #0x9C	; 156
	.db #0x9C	; 156
	.db #0x9C	; 156
	.db #0x9C	; 156
	.db #0x9C	; 156
	.db #0x9C	; 156
	.db #0x9C	; 156
	.db #0x9C	; 156
	.db #0x9C	; 156
	.db #0x9C	; 156
	.db #0x9D	; 157
	.db #0x9D	; 157
	.db #0x9D	; 157
	.db #0x9D	; 157
	.db #0x9D	; 157
	.db #0x9D	; 157
	.db #0x9D	; 157
	.db #0x9D	; 157
	.db #0x9D	; 157
	.db #0x9D	; 157
	.db #0x9D	; 157
	.db #0x9D	; 157
	.db #0x9F	; 159
	.db #0x9F	; 159
	.db #0x9F	; 159
	.db #0x9F	; 159
	.db #0x9F	; 159
	.db #0x9F	; 159
	.db #0x9F	; 159
	.db #0x9F	; 159
	.db #0x9F	; 159
	.db #0x9F	; 159
	.db #0x9F	; 159
	.db #0x9F	; 159
	.db #0xFC	; 252
	.db #0xFC	; 252
	.db #0xFC	; 252
	.db #0xFC	; 252
	.db #0xFC	; 252
	.db #0xFC	; 252
	.db #0xFC	; 252
	.db #0xFC	; 252
	.db #0xFC	; 252
	.db #0xFC	; 252
	.db #0xFC	; 252
	.db #0xFC	; 252
	.db #0xFC	; 252
	.db #0xFC	; 252
	.db #0xFC	; 252
	.db #0xFC	; 252
	.db #0xFC	; 252
	.db #0xFC	; 252
	.db #0xFC	; 252
	.db #0xFC	; 252
	.db #0xFC	; 252
	.db #0xFC	; 252
	.db #0xFC	; 252
	.db #0xFC	; 252
	.db #0xFC	; 252
	.db #0xFC	; 252
	.db #0xFC	; 252
	.db #0xFC	; 252
	.db #0xFC	; 252
	.db #0xFC	; 252
	.db #0xFC	; 252
	.db #0xFC	; 252
	.db #0xFC	; 252
	.db #0xFC	; 252
	.db #0xFC	; 252
	.db #0xFC	; 252
	.db #0xFC	; 252
	.db #0xFC	; 252
	.db #0xFC	; 252
	.db #0xFC	; 252
	.db #0xFC	; 252
	.db #0xFC	; 252
	.db #0xFC	; 252
	.db #0xFC	; 252
	.db #0xFC	; 252
	.db #0xFC	; 252
	.db #0xFC	; 252
	.db #0xFC	; 252
	.db #0xFC	; 252
	.db #0xFC	; 252
	.db #0xFC	; 252
	.db #0xFC	; 252
	.db #0xFC	; 252
	.db #0xFC	; 252
	.db #0xFC	; 252
	.db #0xFC	; 252
	.db #0xFC	; 252
	.db #0xFC	; 252
	.db #0xFC	; 252
	.db #0xFC	; 252
_door4_tiles:
	.db #0x95	; 149
	.db #0x95	; 149
	.db #0x95	; 149
	.db #0x95	; 149
	.db #0x95	; 149
	.db #0x95	; 149
	.db #0x95	; 149
	.db #0x95	; 149
	.db #0x95	; 149
	.db #0x95	; 149
	.db #0x95	; 149
	.db #0x95	; 149
	.db #0x96	; 150
	.db #0x96	; 150
	.db #0x96	; 150
	.db #0x96	; 150
	.db #0x96	; 150
	.db #0x96	; 150
	.db #0x96	; 150
	.db #0x96	; 150
	.db #0x96	; 150
	.db #0x96	; 150
	.db #0x96	; 150
	.db #0x96	; 150
	.db #0x97	; 151
	.db #0x97	; 151
	.db #0x97	; 151
	.db #0x97	; 151
	.db #0x97	; 151
	.db #0x97	; 151
	.db #0x97	; 151
	.db #0x97	; 151
	.db #0x97	; 151
	.db #0x97	; 151
	.db #0x97	; 151
	.db #0x97	; 151
	.db #0x95	; 149
	.db #0x95	; 149
	.db #0x95	; 149
	.db #0x95	; 149
	.db #0x95	; 149
	.db #0x95	; 149
	.db #0x95	; 149
	.db #0x95	; 149
	.db #0x95	; 149
	.db #0x95	; 149
	.db #0x95	; 149
	.db #0x95	; 149
	.db #0x96	; 150
	.db #0x96	; 150
	.db #0x96	; 150
	.db #0x96	; 150
	.db #0x96	; 150
	.db #0x96	; 150
	.db #0x96	; 150
	.db #0x96	; 150
	.db #0x96	; 150
	.db #0x96	; 150
	.db #0x96	; 150
	.db #0x96	; 150
	.db #0xA0	; 160
	.db #0xA0	; 160
	.db #0xA0	; 160
	.db #0xA0	; 160
	.db #0xA0	; 160
	.db #0xA0	; 160
	.db #0xA0	; 160
	.db #0xA0	; 160
	.db #0xA0	; 160
	.db #0xA0	; 160
	.db #0xA0	; 160
	.db #0xA0	; 160
	.db #0xFC	; 252
	.db #0xFC	; 252
	.db #0xFC	; 252
	.db #0xFC	; 252
	.db #0xFC	; 252
	.db #0xFC	; 252
	.db #0xFC	; 252
	.db #0xFC	; 252
	.db #0xFC	; 252
	.db #0xFC	; 252
	.db #0xFC	; 252
	.db #0xFC	; 252
	.db #0xFC	; 252
	.db #0xFC	; 252
	.db #0xFC	; 252
	.db #0xFC	; 252
	.db #0xFC	; 252
	.db #0xFC	; 252
	.db #0xFC	; 252
	.db #0xFC	; 252
	.db #0xFC	; 252
	.db #0xFC	; 252
	.db #0xFC	; 252
	.db #0xFC	; 252
	.db #0xFC	; 252
	.db #0xFC	; 252
	.db #0xFC	; 252
	.db #0xFC	; 252
	.db #0xFC	; 252
	.db #0xFC	; 252
	.db #0xFC	; 252
	.db #0xFC	; 252
	.db #0xFC	; 252
	.db #0xFC	; 252
	.db #0xFC	; 252
	.db #0xFC	; 252
	.db #0xFC	; 252
	.db #0xFC	; 252
	.db #0xFC	; 252
	.db #0xFC	; 252
	.db #0xFC	; 252
	.db #0xFC	; 252
	.db #0xFC	; 252
	.db #0xFC	; 252
	.db #0xFC	; 252
	.db #0xFC	; 252
	.db #0xFC	; 252
	.db #0xFC	; 252
	.db #0xFC	; 252
	.db #0xFC	; 252
	.db #0xFC	; 252
	.db #0xFC	; 252
	.db #0xFC	; 252
	.db #0xFC	; 252
	.db #0xFC	; 252
	.db #0xFC	; 252
	.db #0xFC	; 252
	.db #0xFC	; 252
	.db #0xFC	; 252
	.db #0xFC	; 252
_film:
	.dw (_door1_tiles + 0)
	.dw (_door2_tiles + 0)
	.dw (_door3_tiles + 0)
	.dw (_door4_tiles + 0)
	.dw (_door1_tiles + 12)
	.dw (_door2_tiles + 12)
	.dw (_door3_tiles + 12)
	.dw (_door4_tiles + 12)
	.dw (_door1_tiles + 24)
	.dw (_door2_tiles + 24)
	.dw (_door3_tiles + 24)
	.dw (_door4_tiles + 24)
	.dw (_door1_tiles + 36)
	.dw (_door2_tiles + 36)
	.dw (_door3_tiles + 36)
	.dw (_door4_tiles + 36)
	.dw (_door1_tiles + 48)
	.dw (_door2_tiles + 48)
	.dw (_door3_tiles + 48)
	.dw (_door4_tiles + 48)
	.dw (_door1_tiles + 60)
	.dw (_door2_tiles + 60)
	.dw (_door3_tiles + 60)
	.dw (_door4_tiles + 60)
	.dw (_door1_tiles + 72)
;galaxy.c:501: void main()
;	---------------------------------
; Function main
; ---------------------------------
_main_start::
_main:
;galaxy.c:505: disable_interrupts();
	call	_disable_interrupts
;galaxy.c:506: DISPLAY_OFF;
	call	_display_off
;galaxy.c:507: LCDC_REG = 0x67;
	ld	hl,#0xFF40
	ld	(hl),#0x67
;galaxy.c:519: doorstate = CLOSED;
	ld	hl,#_doorstate
	ld	(hl),#0x00
;galaxy.c:522: BGP_REG = OBP0_REG = OBP1_REG = 0xE4U;
	ld	hl,#0xFF49
	ld	(hl),#0xE4
	ld	l, #0x48
	ld	(hl),#0xE4
	ld	l, #0x47
	ld	(hl),#0xE4
;galaxy.c:525: set_bkg_data(0xFC, 0x04, std_data);
	ld	de,#_std_data
	push	de
	ld	hl,#0x04FC
	push	hl
	call	_set_bkg_data
	add	sp, #4
;galaxy.c:526: set_bkg_data(0x00, 0x2D, bkg_data);
	ld	de,#_bkg_data
	push	de
	ld	hl,#0x2D00
	push	hl
	call	_set_bkg_data
	add	sp, #4
;galaxy.c:533: for(i = 0; i < 32; i+=8)
	ld	b,#0x00
;galaxy.c:534: for(j = 0; j < 32; j+=8)
00116$:
	ld	c,#0x00
00107$:
;galaxy.c:535: set_bkg_tiles(i, j, 8, 8, bkg_tiles);
	ld	de,#_bkg_tiles
	push	bc
	push	de
	ld	hl,#0x0808
	push	hl
	ld	a,c
	push	af
	inc	sp
	push	bc
	inc	sp
	call	_set_bkg_tiles
	add	sp, #6
	pop	bc
;galaxy.c:534: for(j = 0; j < 32; j+=8)
	ld	a,c
	add	a, #0x08
	ld	c,a
	sub	a, #0x20
	jr	C,00107$
;galaxy.c:533: for(i = 0; i < 32; i+=8)
	ld	a,b
	add	a, #0x08
	ld	b,a
	sub	a, #0x20
	jr	C,00116$
;galaxy.c:536: bposx.w = 0;
	ld	hl,#_bposx
	ld	(hl),#0x00
	inc	hl
	ld	(hl),#0x00
;galaxy.c:537: SCX_REG = 0;
	ld	hl,#0xFF43
	ld	(hl),#0x00
;galaxy.c:538: bposy.w = 0;
	ld	hl,#_bposy
	ld	(hl),#0x00
	inc	hl
	ld	(hl),#0x00
;galaxy.c:539: SCY_REG = 0;
	ld	hl,#0xFF42
	ld	(hl),#0x00
;galaxy.c:540: bspx.w = 0xFF00;
	ld	hl,#_bspx
	ld	(hl),#0x00
	inc	hl
	ld	(hl),#0xFF
;galaxy.c:541: bspy.w = 0x0080;
	ld	hl,#_bspy
	ld	(hl),#0x80
	inc	hl
	ld	(hl),#0x00
;galaxy.c:544: set_win_data(0x80, 0x21, frame_data);
	ld	de,#_frame_data
	push	de
	ld	hl,#0x2180
	push	hl
	call	_set_win_data
	add	sp, #4
;galaxy.c:551: set_win_tiles(0, 0, 16, 10, frame_tiles);
	ld	de,#_frame_tiles
	push	de
	ld	hl,#0x0A10
	push	hl
	ld	hl,#0x0000
	push	hl
	call	_set_win_tiles
	add	sp, #6
;galaxy.c:561: WX_REG = 50;
	ld	hl,#0xFF4B
	ld	(hl),#0x32
;galaxy.c:564: WY_REG = 70;
	ld	l, #0x4A
	ld	(hl),#0x46
;galaxy.c:580: DISPLAY_ON;
	ld	de,#0xFF40
	ld	a,(de)
	ld	d,a
	ld	e,#0x00
	ld	a,d
	set	7, a
	ld	b,a
	ld	l, #0x40
	ld	(hl),b
;galaxy.c:581: enable_interrupts();
	call	_enable_interrupts
;galaxy.c:583: while(1) {
00105$:
;galaxy.c:585: for(i = 0; i < 4; i++)
	ld	b,#0x04
00113$:
;galaxy.c:586: wait_vbl_done();
	push	bc
	call	_wait_vbl_done
	pop	bc
	ld	a,b
	dec	b
;galaxy.c:585: for(i = 0; i < 4; i++)
	ld	a,b
	or	a, a
	jr	NZ,00113$
;galaxy.c:587: time++;
	ld	hl,#_time
	inc	(hl)
;galaxy.c:590: scroll();
	call	_scroll
	jr	00105$
	ret
_main_end::
	.area _CODE
	.area _CABS (ABS)
