                              1 ;--------------------------------------------------------
                              2 ; File Created by SDCC : free open source ANSI-C Compiler
                              3 ; Version 3.5.0 #9253 (Mar 24 2016) (Linux)
                              4 ; This file was generated Wed Jul 19 00:47:22 2017
                              5 ;--------------------------------------------------------
                              6 	.module main
                              7 	.optsdcc -mgbz80
                              8 	
                              9 ;--------------------------------------------------------
                             10 ; Public variables in this module
                             11 ;--------------------------------------------------------
                             12 	.globl _main
                             13 	.globl _move_sprite
                             14 	.globl _set_sprite_tile
                             15 	.globl _set_sprite_data
                             16 	.globl _move_win
                             17 	.globl _set_win_tiles
                             18 	.globl _set_win_data
                             19 	.globl _display_off
                             20 	.globl _wait_vbl_done
                             21 	.globl _disable_interrupts
                             22 	.globl _enable_interrupts
                             23 	.globl _joypad
                             24 	.globl _delay
                             25 	.globl _strlen
                             26 	.globl _memset
                             27 	.globl _strcat
                             28 	.globl _strcpy
                             29 	.globl _memcpy
                             30 	.globl _key_b
                             31 	.globl _key_a
                             32 	.globl _flag_b
                             33 	.globl _flag_a
                             34 	.globl _input_seq_ctr
                             35 	.globl _input_seq
                             36 	.globl _text_map
                             37 	.globl _arrow_tile
                             38 	.globl _alphabet
                             39 	.globl _text_box
                             40 	.globl _window_border
                             41 	.globl _solution_seq
                             42 	.globl _button
                             43 	.globl _agent
                             44 	.globl _divide_UINT8
                             45 	.globl _set_text_map
                             46 	.globl _clear_window
                             47 	.globl _show_text
                             48 	.globl _scroll_text
                             49 	.globl _sleep
                             50 	.globl _process_button_press
                             51 	.globl _number_of_bits_set
                             52 	.globl _return_lsb_set
                             53 	.globl _log2
                             54 	.globl _display_button_press
                             55 	.globl _check_sequence
                             56 	.globl _pass_level_1
                             57 	.globl _fail_level_1
                             58 	.globl _decrypt
                             59 	.globl _remove_flag_padding
                             60 ;--------------------------------------------------------
                             61 ; ram data
                             62 ;--------------------------------------------------------
                             63 	.area _DATA
   0000                      64 _window_border::
   0000                      65 	.ds 16
   0010                      66 _text_box::
   0010                      67 	.ds 120
   0088                      68 _alphabet::
   0088                      69 	.ds 736
   0368                      70 _arrow_tile::
   0368                      71 	.ds 32
   0388                      72 _text_map::
   0388                      73 	.ds 32
   03A8                      74 _input_seq::
   03A8                      75 	.ds 16
   03B8                      76 _input_seq_ctr::
   03B8                      77 	.ds 1
   03B9                      78 _flag_a::
   03B9                      79 	.ds 8
   03C1                      80 _flag_b::
   03C1                      81 	.ds 8
   03C9                      82 _key_a::
   03C9                      83 	.ds 16
   03D9                      84 _key_b::
   03D9                      85 	.ds 16
                             86 ;--------------------------------------------------------
                             87 ; absolute external ram data
                             88 ;--------------------------------------------------------
                             89 	.area _DABS (ABS)
                             90 ;--------------------------------------------------------
                             91 ; global & static initialisations
                             92 ;--------------------------------------------------------
                             93 	.area _HOME
                             94 	.area _GSINIT
                             95 	.area _GSFINAL
                             96 	.area _GSINIT
                             97 ;main.c:122: unsigned char window_border[] =
   0000 21r00r00             98 	ld	hl,#_window_border
   0003 36 FF                99 	ld	(hl),#0xFF
   0005 21r01r00            100 	ld	hl,#(_window_border + 0x0001)
   0008 36 FF               101 	ld	(hl),#0xFF
   000A 21r02r00            102 	ld	hl,#(_window_border + 0x0002)
   000D 36 FF               103 	ld	(hl),#0xFF
   000F 21r03r00            104 	ld	hl,#(_window_border + 0x0003)
   0012 36 FF               105 	ld	(hl),#0xFF
   0014 21r04r00            106 	ld	hl,#(_window_border + 0x0004)
   0017 36 FF               107 	ld	(hl),#0xFF
   0019 21r05r00            108 	ld	hl,#(_window_border + 0x0005)
   001C 36 FF               109 	ld	(hl),#0xFF
   001E 21r06r00            110 	ld	hl,#(_window_border + 0x0006)
   0021 36 FF               111 	ld	(hl),#0xFF
   0023 21r07r00            112 	ld	hl,#(_window_border + 0x0007)
   0026 36 FF               113 	ld	(hl),#0xFF
   0028 21r08r00            114 	ld	hl,#(_window_border + 0x0008)
   002B 36 FF               115 	ld	(hl),#0xFF
   002D 21r09r00            116 	ld	hl,#(_window_border + 0x0009)
   0030 36 FF               117 	ld	(hl),#0xFF
   0032 21r0Ar00            118 	ld	hl,#(_window_border + 0x000a)
   0035 36 FF               119 	ld	(hl),#0xFF
   0037 21r0Br00            120 	ld	hl,#(_window_border + 0x000b)
   003A 36 FF               121 	ld	(hl),#0xFF
   003C 21r0Cr00            122 	ld	hl,#(_window_border + 0x000c)
   003F 36 FF               123 	ld	(hl),#0xFF
   0041 21r0Dr00            124 	ld	hl,#(_window_border + 0x000d)
   0044 36 FF               125 	ld	(hl),#0xFF
   0046 21r0Er00            126 	ld	hl,#(_window_border + 0x000e)
   0049 36 FF               127 	ld	(hl),#0xFF
   004B 21r0Fr00            128 	ld	hl,#(_window_border + 0x000f)
   004E 36 FF               129 	ld	(hl),#0xFF
                            130 ;main.c:132: unsigned char text_box[] =
   0050 21r10r00            131 	ld	hl,#_text_box
   0053 36 80               132 	ld	(hl),#0x80
   0055 21r11r00            133 	ld	hl,#(_text_box + 0x0001)
   0058 36 80               134 	ld	(hl),#0x80
   005A 21r12r00            135 	ld	hl,#(_text_box + 0x0002)
   005D 36 80               136 	ld	(hl),#0x80
   005F 21r13r00            137 	ld	hl,#(_text_box + 0x0003)
   0062 36 80               138 	ld	(hl),#0x80
   0064 21r14r00            139 	ld	hl,#(_text_box + 0x0004)
   0067 36 80               140 	ld	(hl),#0x80
   0069 21r15r00            141 	ld	hl,#(_text_box + 0x0005)
   006C 36 80               142 	ld	(hl),#0x80
   006E 21r16r00            143 	ld	hl,#(_text_box + 0x0006)
   0071 36 80               144 	ld	(hl),#0x80
   0073 21r17r00            145 	ld	hl,#(_text_box + 0x0007)
   0076 36 80               146 	ld	(hl),#0x80
   0078 21r18r00            147 	ld	hl,#(_text_box + 0x0008)
   007B 36 80               148 	ld	(hl),#0x80
   007D 21r19r00            149 	ld	hl,#(_text_box + 0x0009)
   0080 36 80               150 	ld	(hl),#0x80
   0082 21r1Ar00            151 	ld	hl,#(_text_box + 0x000a)
   0085 36 80               152 	ld	(hl),#0x80
   0087 21r1Br00            153 	ld	hl,#(_text_box + 0x000b)
   008A 36 80               154 	ld	(hl),#0x80
   008C 21r1Cr00            155 	ld	hl,#(_text_box + 0x000c)
   008F 36 80               156 	ld	(hl),#0x80
   0091 21r1Dr00            157 	ld	hl,#(_text_box + 0x000d)
   0094 36 80               158 	ld	(hl),#0x80
   0096 21r1Er00            159 	ld	hl,#(_text_box + 0x000e)
   0099 36 80               160 	ld	(hl),#0x80
   009B 21r1Fr00            161 	ld	hl,#(_text_box + 0x000f)
   009E 36 80               162 	ld	(hl),#0x80
   00A0 21r20r00            163 	ld	hl,#(_text_box + 0x0010)
   00A3 36 80               164 	ld	(hl),#0x80
   00A5 21r21r00            165 	ld	hl,#(_text_box + 0x0011)
   00A8 36 80               166 	ld	(hl),#0x80
   00AA 21r22r00            167 	ld	hl,#(_text_box + 0x0012)
   00AD 36 80               168 	ld	(hl),#0x80
   00AF 21r23r00            169 	ld	hl,#(_text_box + 0x0013)
   00B2 36 80               170 	ld	(hl),#0x80
   00B4 21r24r00            171 	ld	hl,#(_text_box + 0x0014)
   00B7 36 80               172 	ld	(hl),#0x80
   00B9 21r25r00            173 	ld	hl,#(_text_box + 0x0015)
   00BC 36 80               174 	ld	(hl),#0x80
   00BE 21r26r00            175 	ld	hl,#(_text_box + 0x0016)
   00C1 36 80               176 	ld	(hl),#0x80
   00C3 21r27r00            177 	ld	hl,#(_text_box + 0x0017)
   00C6 36 80               178 	ld	(hl),#0x80
   00C8 21r28r00            179 	ld	hl,#(_text_box + 0x0018)
   00CB 36 80               180 	ld	(hl),#0x80
   00CD 21r29r00            181 	ld	hl,#(_text_box + 0x0019)
   00D0 36 80               182 	ld	(hl),#0x80
   00D2 21r2Ar00            183 	ld	hl,#(_text_box + 0x001a)
   00D5 36 80               184 	ld	(hl),#0x80
   00D7 21r2Br00            185 	ld	hl,#(_text_box + 0x001b)
   00DA 36 80               186 	ld	(hl),#0x80
   00DC 21r2Cr00            187 	ld	hl,#(_text_box + 0x001c)
   00DF 36 80               188 	ld	(hl),#0x80
   00E1 21r2Dr00            189 	ld	hl,#(_text_box + 0x001d)
   00E4 36 80               190 	ld	(hl),#0x80
   00E6 21r2Er00            191 	ld	hl,#(_text_box + 0x001e)
   00E9 36 80               192 	ld	(hl),#0x80
   00EB 21r2Fr00            193 	ld	hl,#(_text_box + 0x001f)
   00EE 36 80               194 	ld	(hl),#0x80
   00F0 21r30r00            195 	ld	hl,#(_text_box + 0x0020)
   00F3 36 80               196 	ld	(hl),#0x80
   00F5 21r31r00            197 	ld	hl,#(_text_box + 0x0021)
   00F8 36 80               198 	ld	(hl),#0x80
   00FA 21r32r00            199 	ld	hl,#(_text_box + 0x0022)
   00FD 36 80               200 	ld	(hl),#0x80
   00FF 21r33r00            201 	ld	hl,#(_text_box + 0x0023)
   0102 36 80               202 	ld	(hl),#0x80
   0104 21r34r00            203 	ld	hl,#(_text_box + 0x0024)
   0107 36 80               204 	ld	(hl),#0x80
   0109 21r35r00            205 	ld	hl,#(_text_box + 0x0025)
   010C 36 80               206 	ld	(hl),#0x80
   010E 21r36r00            207 	ld	hl,#(_text_box + 0x0026)
   0111 36 80               208 	ld	(hl),#0x80
   0113 21r37r00            209 	ld	hl,#(_text_box + 0x0027)
   0116 36 80               210 	ld	(hl),#0x80
   0118 21r38r00            211 	ld	hl,#(_text_box + 0x0028)
   011B 36 80               212 	ld	(hl),#0x80
   011D 21r39r00            213 	ld	hl,#(_text_box + 0x0029)
   0120 36 80               214 	ld	(hl),#0x80
   0122 21r3Ar00            215 	ld	hl,#(_text_box + 0x002a)
   0125 36 80               216 	ld	(hl),#0x80
   0127 21r3Br00            217 	ld	hl,#(_text_box + 0x002b)
   012A 36 80               218 	ld	(hl),#0x80
   012C 21r3Cr00            219 	ld	hl,#(_text_box + 0x002c)
   012F 36 80               220 	ld	(hl),#0x80
   0131 21r3Dr00            221 	ld	hl,#(_text_box + 0x002d)
   0134 36 80               222 	ld	(hl),#0x80
   0136 21r3Er00            223 	ld	hl,#(_text_box + 0x002e)
   0139 36 80               224 	ld	(hl),#0x80
   013B 21r3Fr00            225 	ld	hl,#(_text_box + 0x002f)
   013E 36 80               226 	ld	(hl),#0x80
   0140 21r40r00            227 	ld	hl,#(_text_box + 0x0030)
   0143 36 80               228 	ld	(hl),#0x80
   0145 21r41r00            229 	ld	hl,#(_text_box + 0x0031)
   0148 36 80               230 	ld	(hl),#0x80
   014A 21r42r00            231 	ld	hl,#(_text_box + 0x0032)
   014D 36 80               232 	ld	(hl),#0x80
   014F 21r43r00            233 	ld	hl,#(_text_box + 0x0033)
   0152 36 80               234 	ld	(hl),#0x80
   0154 21r44r00            235 	ld	hl,#(_text_box + 0x0034)
   0157 36 80               236 	ld	(hl),#0x80
   0159 21r45r00            237 	ld	hl,#(_text_box + 0x0035)
   015C 36 80               238 	ld	(hl),#0x80
   015E 21r46r00            239 	ld	hl,#(_text_box + 0x0036)
   0161 36 80               240 	ld	(hl),#0x80
   0163 21r47r00            241 	ld	hl,#(_text_box + 0x0037)
   0166 36 80               242 	ld	(hl),#0x80
   0168 21r48r00            243 	ld	hl,#(_text_box + 0x0038)
   016B 36 80               244 	ld	(hl),#0x80
   016D 21r49r00            245 	ld	hl,#(_text_box + 0x0039)
   0170 36 80               246 	ld	(hl),#0x80
   0172 21r4Ar00            247 	ld	hl,#(_text_box + 0x003a)
   0175 36 80               248 	ld	(hl),#0x80
   0177 21r4Br00            249 	ld	hl,#(_text_box + 0x003b)
   017A 36 80               250 	ld	(hl),#0x80
   017C 21r4Cr00            251 	ld	hl,#(_text_box + 0x003c)
   017F 36 80               252 	ld	(hl),#0x80
   0181 21r4Dr00            253 	ld	hl,#(_text_box + 0x003d)
   0184 36 80               254 	ld	(hl),#0x80
   0186 21r4Er00            255 	ld	hl,#(_text_box + 0x003e)
   0189 36 80               256 	ld	(hl),#0x80
   018B 21r4Fr00            257 	ld	hl,#(_text_box + 0x003f)
   018E 36 80               258 	ld	(hl),#0x80
   0190 21r50r00            259 	ld	hl,#(_text_box + 0x0040)
   0193 36 80               260 	ld	(hl),#0x80
   0195 21r51r00            261 	ld	hl,#(_text_box + 0x0041)
   0198 36 80               262 	ld	(hl),#0x80
   019A 21r52r00            263 	ld	hl,#(_text_box + 0x0042)
   019D 36 80               264 	ld	(hl),#0x80
   019F 21r53r00            265 	ld	hl,#(_text_box + 0x0043)
   01A2 36 80               266 	ld	(hl),#0x80
   01A4 21r54r00            267 	ld	hl,#(_text_box + 0x0044)
   01A7 36 80               268 	ld	(hl),#0x80
   01A9 21r55r00            269 	ld	hl,#(_text_box + 0x0045)
   01AC 36 80               270 	ld	(hl),#0x80
   01AE 21r56r00            271 	ld	hl,#(_text_box + 0x0046)
   01B1 36 80               272 	ld	(hl),#0x80
   01B3 21r57r00            273 	ld	hl,#(_text_box + 0x0047)
   01B6 36 80               274 	ld	(hl),#0x80
   01B8 21r58r00            275 	ld	hl,#(_text_box + 0x0048)
   01BB 36 80               276 	ld	(hl),#0x80
   01BD 21r59r00            277 	ld	hl,#(_text_box + 0x0049)
   01C0 36 80               278 	ld	(hl),#0x80
   01C2 21r5Ar00            279 	ld	hl,#(_text_box + 0x004a)
   01C5 36 80               280 	ld	(hl),#0x80
   01C7 21r5Br00            281 	ld	hl,#(_text_box + 0x004b)
   01CA 36 80               282 	ld	(hl),#0x80
   01CC 21r5Cr00            283 	ld	hl,#(_text_box + 0x004c)
   01CF 36 80               284 	ld	(hl),#0x80
   01D1 21r5Dr00            285 	ld	hl,#(_text_box + 0x004d)
   01D4 36 80               286 	ld	(hl),#0x80
   01D6 21r5Er00            287 	ld	hl,#(_text_box + 0x004e)
   01D9 36 80               288 	ld	(hl),#0x80
   01DB 21r5Fr00            289 	ld	hl,#(_text_box + 0x004f)
   01DE 36 80               290 	ld	(hl),#0x80
   01E0 21r60r00            291 	ld	hl,#(_text_box + 0x0050)
   01E3 36 80               292 	ld	(hl),#0x80
   01E5 21r61r00            293 	ld	hl,#(_text_box + 0x0051)
   01E8 36 80               294 	ld	(hl),#0x80
   01EA 21r62r00            295 	ld	hl,#(_text_box + 0x0052)
   01ED 36 80               296 	ld	(hl),#0x80
   01EF 21r63r00            297 	ld	hl,#(_text_box + 0x0053)
   01F2 36 80               298 	ld	(hl),#0x80
   01F4 21r64r00            299 	ld	hl,#(_text_box + 0x0054)
   01F7 36 80               300 	ld	(hl),#0x80
   01F9 21r65r00            301 	ld	hl,#(_text_box + 0x0055)
   01FC 36 80               302 	ld	(hl),#0x80
   01FE 21r66r00            303 	ld	hl,#(_text_box + 0x0056)
   0201 36 80               304 	ld	(hl),#0x80
   0203 21r67r00            305 	ld	hl,#(_text_box + 0x0057)
   0206 36 80               306 	ld	(hl),#0x80
   0208 21r68r00            307 	ld	hl,#(_text_box + 0x0058)
   020B 36 80               308 	ld	(hl),#0x80
   020D 21r69r00            309 	ld	hl,#(_text_box + 0x0059)
   0210 36 80               310 	ld	(hl),#0x80
   0212 21r6Ar00            311 	ld	hl,#(_text_box + 0x005a)
   0215 36 80               312 	ld	(hl),#0x80
   0217 21r6Br00            313 	ld	hl,#(_text_box + 0x005b)
   021A 36 80               314 	ld	(hl),#0x80
   021C 21r6Cr00            315 	ld	hl,#(_text_box + 0x005c)
   021F 36 80               316 	ld	(hl),#0x80
   0221 21r6Dr00            317 	ld	hl,#(_text_box + 0x005d)
   0224 36 80               318 	ld	(hl),#0x80
   0226 21r6Er00            319 	ld	hl,#(_text_box + 0x005e)
   0229 36 80               320 	ld	(hl),#0x80
   022B 21r6Fr00            321 	ld	hl,#(_text_box + 0x005f)
   022E 36 80               322 	ld	(hl),#0x80
   0230 21r70r00            323 	ld	hl,#(_text_box + 0x0060)
   0233 36 80               324 	ld	(hl),#0x80
   0235 21r71r00            325 	ld	hl,#(_text_box + 0x0061)
   0238 36 80               326 	ld	(hl),#0x80
   023A 21r72r00            327 	ld	hl,#(_text_box + 0x0062)
   023D 36 80               328 	ld	(hl),#0x80
   023F 21r73r00            329 	ld	hl,#(_text_box + 0x0063)
   0242 36 80               330 	ld	(hl),#0x80
   0244 21r74r00            331 	ld	hl,#(_text_box + 0x0064)
   0247 36 80               332 	ld	(hl),#0x80
   0249 21r75r00            333 	ld	hl,#(_text_box + 0x0065)
   024C 36 80               334 	ld	(hl),#0x80
   024E 21r76r00            335 	ld	hl,#(_text_box + 0x0066)
   0251 36 80               336 	ld	(hl),#0x80
   0253 21r77r00            337 	ld	hl,#(_text_box + 0x0067)
   0256 36 80               338 	ld	(hl),#0x80
   0258 21r78r00            339 	ld	hl,#(_text_box + 0x0068)
   025B 36 80               340 	ld	(hl),#0x80
   025D 21r79r00            341 	ld	hl,#(_text_box + 0x0069)
   0260 36 80               342 	ld	(hl),#0x80
   0262 21r7Ar00            343 	ld	hl,#(_text_box + 0x006a)
   0265 36 80               344 	ld	(hl),#0x80
   0267 21r7Br00            345 	ld	hl,#(_text_box + 0x006b)
   026A 36 80               346 	ld	(hl),#0x80
   026C 21r7Cr00            347 	ld	hl,#(_text_box + 0x006c)
   026F 36 80               348 	ld	(hl),#0x80
   0271 21r7Dr00            349 	ld	hl,#(_text_box + 0x006d)
   0274 36 80               350 	ld	(hl),#0x80
   0276 21r7Er00            351 	ld	hl,#(_text_box + 0x006e)
   0279 36 80               352 	ld	(hl),#0x80
   027B 21r7Fr00            353 	ld	hl,#(_text_box + 0x006f)
   027E 36 80               354 	ld	(hl),#0x80
   0280 21r80r00            355 	ld	hl,#(_text_box + 0x0070)
   0283 36 80               356 	ld	(hl),#0x80
   0285 21r81r00            357 	ld	hl,#(_text_box + 0x0071)
   0288 36 80               358 	ld	(hl),#0x80
   028A 21r82r00            359 	ld	hl,#(_text_box + 0x0072)
   028D 36 80               360 	ld	(hl),#0x80
   028F 21r83r00            361 	ld	hl,#(_text_box + 0x0073)
   0292 36 80               362 	ld	(hl),#0x80
   0294 21r84r00            363 	ld	hl,#(_text_box + 0x0074)
   0297 36 80               364 	ld	(hl),#0x80
   0299 21r85r00            365 	ld	hl,#(_text_box + 0x0075)
   029C 36 80               366 	ld	(hl),#0x80
   029E 21r86r00            367 	ld	hl,#(_text_box + 0x0076)
   02A1 36 80               368 	ld	(hl),#0x80
   02A3 21r87r00            369 	ld	hl,#(_text_box + 0x0077)
   02A6 36 80               370 	ld	(hl),#0x80
                            371 ;main.c:151: unsigned char alphabet[] =
   02A8 21r88r00            372 	ld	hl,#_alphabet
   02AB 36 83               373 	ld	(hl),#0x83
   02AD 21r89r00            374 	ld	hl,#(_alphabet + 0x0001)
   02B0 36 83               375 	ld	(hl),#0x83
   02B2 21r8Ar00            376 	ld	hl,#(_alphabet + 0x0002)
   02B5 36 7D               377 	ld	(hl),#0x7D
   02B7 21r8Br00            378 	ld	hl,#(_alphabet + 0x0003)
   02BA 36 7D               379 	ld	(hl),#0x7D
   02BC 21r8Cr00            380 	ld	hl,#(_alphabet + 0x0004)
   02BF 36 7D               381 	ld	(hl),#0x7D
   02C1 21r8Dr00            382 	ld	hl,#(_alphabet + 0x0005)
   02C4 36 7D               383 	ld	(hl),#0x7D
   02C6 21r8Er00            384 	ld	hl,#(_alphabet + 0x0006)
   02C9 36 7D               385 	ld	(hl),#0x7D
   02CB 21r8Fr00            386 	ld	hl,#(_alphabet + 0x0007)
   02CE 36 7D               387 	ld	(hl),#0x7D
   02D0 21r90r00            388 	ld	hl,#(_alphabet + 0x0008)
   02D3 36 7D               389 	ld	(hl),#0x7D
   02D5 21r91r00            390 	ld	hl,#(_alphabet + 0x0009)
   02D8 36 7D               391 	ld	(hl),#0x7D
   02DA 21r92r00            392 	ld	hl,#(_alphabet + 0x000a)
   02DD 36 7D               393 	ld	(hl),#0x7D
   02DF 21r93r00            394 	ld	hl,#(_alphabet + 0x000b)
   02E2 36 7D               395 	ld	(hl),#0x7D
   02E4 21r94r00            396 	ld	hl,#(_alphabet + 0x000c)
   02E7 36 83               397 	ld	(hl),#0x83
   02E9 21r95r00            398 	ld	hl,#(_alphabet + 0x000d)
   02EC 36 83               399 	ld	(hl),#0x83
   02EE 21r96r00            400 	ld	hl,#(_alphabet + 0x000e)
   02F1 36 FF               401 	ld	(hl),#0xFF
   02F3 21r97r00            402 	ld	hl,#(_alphabet + 0x000f)
   02F6 36 FF               403 	ld	(hl),#0xFF
   02F8 21r98r00            404 	ld	hl,#(_alphabet + 0x0010)
   02FB 36 EF               405 	ld	(hl),#0xEF
   02FD 21r99r00            406 	ld	hl,#(_alphabet + 0x0011)
   0300 36 EF               407 	ld	(hl),#0xEF
   0302 21r9Ar00            408 	ld	hl,#(_alphabet + 0x0012)
   0305 36 CF               409 	ld	(hl),#0xCF
   0307 21r9Br00            410 	ld	hl,#(_alphabet + 0x0013)
   030A 36 CF               411 	ld	(hl),#0xCF
   030C 21r9Cr00            412 	ld	hl,#(_alphabet + 0x0014)
   030F 36 EF               413 	ld	(hl),#0xEF
   0311 21r9Dr00            414 	ld	hl,#(_alphabet + 0x0015)
   0314 36 EF               415 	ld	(hl),#0xEF
   0316 21r9Er00            416 	ld	hl,#(_alphabet + 0x0016)
   0319 36 EF               417 	ld	(hl),#0xEF
   031B 21r9Fr00            418 	ld	hl,#(_alphabet + 0x0017)
   031E 36 EF               419 	ld	(hl),#0xEF
   0320 21rA0r00            420 	ld	hl,#(_alphabet + 0x0018)
   0323 36 EF               421 	ld	(hl),#0xEF
   0325 21rA1r00            422 	ld	hl,#(_alphabet + 0x0019)
   0328 36 EF               423 	ld	(hl),#0xEF
   032A 21rA2r00            424 	ld	hl,#(_alphabet + 0x001a)
   032D 36 EF               425 	ld	(hl),#0xEF
   032F 21rA3r00            426 	ld	hl,#(_alphabet + 0x001b)
   0332 36 EF               427 	ld	(hl),#0xEF
   0334 21rA4r00            428 	ld	hl,#(_alphabet + 0x001c)
   0337 36 83               429 	ld	(hl),#0x83
   0339 21rA5r00            430 	ld	hl,#(_alphabet + 0x001d)
   033C 36 83               431 	ld	(hl),#0x83
   033E 21rA6r00            432 	ld	hl,#(_alphabet + 0x001e)
   0341 36 FF               433 	ld	(hl),#0xFF
   0343 21rA7r00            434 	ld	hl,#(_alphabet + 0x001f)
   0346 36 FF               435 	ld	(hl),#0xFF
   0348 21rA8r00            436 	ld	hl,#(_alphabet + 0x0020)
   034B 36 83               437 	ld	(hl),#0x83
   034D 21rA9r00            438 	ld	hl,#(_alphabet + 0x0021)
   0350 36 83               439 	ld	(hl),#0x83
   0352 21rAAr00            440 	ld	hl,#(_alphabet + 0x0022)
   0355 36 7D               441 	ld	(hl),#0x7D
   0357 21rABr00            442 	ld	hl,#(_alphabet + 0x0023)
   035A 36 7D               443 	ld	(hl),#0x7D
   035C 21rACr00            444 	ld	hl,#(_alphabet + 0x0024)
   035F 36 FD               445 	ld	(hl),#0xFD
   0361 21rADr00            446 	ld	hl,#(_alphabet + 0x0025)
   0364 36 FD               447 	ld	(hl),#0xFD
   0366 21rAEr00            448 	ld	hl,#(_alphabet + 0x0026)
   0369 36 F3               449 	ld	(hl),#0xF3
   036B 21rAFr00            450 	ld	hl,#(_alphabet + 0x0027)
   036E 36 F3               451 	ld	(hl),#0xF3
   0370 21rB0r00            452 	ld	hl,#(_alphabet + 0x0028)
   0373 36 CF               453 	ld	(hl),#0xCF
   0375 21rB1r00            454 	ld	hl,#(_alphabet + 0x0029)
   0378 36 CF               455 	ld	(hl),#0xCF
   037A 21rB2r00            456 	ld	hl,#(_alphabet + 0x002a)
   037D 36 BF               457 	ld	(hl),#0xBF
   037F 21rB3r00            458 	ld	hl,#(_alphabet + 0x002b)
   0382 36 BF               459 	ld	(hl),#0xBF
   0384 21rB4r00            460 	ld	hl,#(_alphabet + 0x002c)
   0387 36 01               461 	ld	(hl),#0x01
   0389 21rB5r00            462 	ld	hl,#(_alphabet + 0x002d)
   038C 36 01               463 	ld	(hl),#0x01
   038E 21rB6r00            464 	ld	hl,#(_alphabet + 0x002e)
   0391 36 FF               465 	ld	(hl),#0xFF
   0393 21rB7r00            466 	ld	hl,#(_alphabet + 0x002f)
   0396 36 FF               467 	ld	(hl),#0xFF
   0398 21rB8r00            468 	ld	hl,#(_alphabet + 0x0030)
   039B 36 83               469 	ld	(hl),#0x83
   039D 21rB9r00            470 	ld	hl,#(_alphabet + 0x0031)
   03A0 36 83               471 	ld	(hl),#0x83
   03A2 21rBAr00            472 	ld	hl,#(_alphabet + 0x0032)
   03A5 36 7D               473 	ld	(hl),#0x7D
   03A7 21rBBr00            474 	ld	hl,#(_alphabet + 0x0033)
   03AA 36 7D               475 	ld	(hl),#0x7D
   03AC 21rBCr00            476 	ld	hl,#(_alphabet + 0x0034)
   03AF 36 FD               477 	ld	(hl),#0xFD
   03B1 21rBDr00            478 	ld	hl,#(_alphabet + 0x0035)
   03B4 36 FD               479 	ld	(hl),#0xFD
   03B6 21rBEr00            480 	ld	hl,#(_alphabet + 0x0036)
   03B9 36 C3               481 	ld	(hl),#0xC3
   03BB 21rBFr00            482 	ld	hl,#(_alphabet + 0x0037)
   03BE 36 C3               483 	ld	(hl),#0xC3
   03C0 21rC0r00            484 	ld	hl,#(_alphabet + 0x0038)
   03C3 36 FD               485 	ld	(hl),#0xFD
   03C5 21rC1r00            486 	ld	hl,#(_alphabet + 0x0039)
   03C8 36 FD               487 	ld	(hl),#0xFD
   03CA 21rC2r00            488 	ld	hl,#(_alphabet + 0x003a)
   03CD 36 7D               489 	ld	(hl),#0x7D
   03CF 21rC3r00            490 	ld	hl,#(_alphabet + 0x003b)
   03D2 36 7D               491 	ld	(hl),#0x7D
   03D4 21rC4r00            492 	ld	hl,#(_alphabet + 0x003c)
   03D7 36 83               493 	ld	(hl),#0x83
   03D9 21rC5r00            494 	ld	hl,#(_alphabet + 0x003d)
   03DC 36 83               495 	ld	(hl),#0x83
   03DE 21rC6r00            496 	ld	hl,#(_alphabet + 0x003e)
   03E1 36 FF               497 	ld	(hl),#0xFF
   03E3 21rC7r00            498 	ld	hl,#(_alphabet + 0x003f)
   03E6 36 FF               499 	ld	(hl),#0xFF
   03E8 21rC8r00            500 	ld	hl,#(_alphabet + 0x0040)
   03EB 36 F3               501 	ld	(hl),#0xF3
   03ED 21rC9r00            502 	ld	hl,#(_alphabet + 0x0041)
   03F0 36 F3               503 	ld	(hl),#0xF3
   03F2 21rCAr00            504 	ld	hl,#(_alphabet + 0x0042)
   03F5 36 EB               505 	ld	(hl),#0xEB
   03F7 21rCBr00            506 	ld	hl,#(_alphabet + 0x0043)
   03FA 36 EB               507 	ld	(hl),#0xEB
   03FC 21rCCr00            508 	ld	hl,#(_alphabet + 0x0044)
   03FF 36 DB               509 	ld	(hl),#0xDB
   0401 21rCDr00            510 	ld	hl,#(_alphabet + 0x0045)
   0404 36 DB               511 	ld	(hl),#0xDB
   0406 21rCEr00            512 	ld	hl,#(_alphabet + 0x0046)
   0409 36 BB               513 	ld	(hl),#0xBB
   040B 21rCFr00            514 	ld	hl,#(_alphabet + 0x0047)
   040E 36 BB               515 	ld	(hl),#0xBB
   0410 21rD0r00            516 	ld	hl,#(_alphabet + 0x0048)
   0413 36 7B               517 	ld	(hl),#0x7B
   0415 21rD1r00            518 	ld	hl,#(_alphabet + 0x0049)
   0418 36 7B               519 	ld	(hl),#0x7B
   041A 21rD2r00            520 	ld	hl,#(_alphabet + 0x004a)
   041D 36 01               521 	ld	(hl),#0x01
   041F 21rD3r00            522 	ld	hl,#(_alphabet + 0x004b)
   0422 36 01               523 	ld	(hl),#0x01
   0424 21rD4r00            524 	ld	hl,#(_alphabet + 0x004c)
   0427 36 FB               525 	ld	(hl),#0xFB
   0429 21rD5r00            526 	ld	hl,#(_alphabet + 0x004d)
   042C 36 FB               527 	ld	(hl),#0xFB
   042E 21rD6r00            528 	ld	hl,#(_alphabet + 0x004e)
   0431 36 FF               529 	ld	(hl),#0xFF
   0433 21rD7r00            530 	ld	hl,#(_alphabet + 0x004f)
   0436 36 FF               531 	ld	(hl),#0xFF
   0438 21rD8r00            532 	ld	hl,#(_alphabet + 0x0050)
   043B 36 03               533 	ld	(hl),#0x03
   043D 21rD9r00            534 	ld	hl,#(_alphabet + 0x0051)
   0440 36 03               535 	ld	(hl),#0x03
   0442 21rDAr00            536 	ld	hl,#(_alphabet + 0x0052)
   0445 36 7F               537 	ld	(hl),#0x7F
   0447 21rDBr00            538 	ld	hl,#(_alphabet + 0x0053)
   044A 36 7F               539 	ld	(hl),#0x7F
   044C 21rDCr00            540 	ld	hl,#(_alphabet + 0x0054)
   044F 36 7F               541 	ld	(hl),#0x7F
   0451 21rDDr00            542 	ld	hl,#(_alphabet + 0x0055)
   0454 36 7F               543 	ld	(hl),#0x7F
   0456 21rDEr00            544 	ld	hl,#(_alphabet + 0x0056)
   0459 36 03               545 	ld	(hl),#0x03
   045B 21rDFr00            546 	ld	hl,#(_alphabet + 0x0057)
   045E 36 03               547 	ld	(hl),#0x03
   0460 21rE0r00            548 	ld	hl,#(_alphabet + 0x0058)
   0463 36 FD               549 	ld	(hl),#0xFD
   0465 21rE1r00            550 	ld	hl,#(_alphabet + 0x0059)
   0468 36 FD               551 	ld	(hl),#0xFD
   046A 21rE2r00            552 	ld	hl,#(_alphabet + 0x005a)
   046D 36 7D               553 	ld	(hl),#0x7D
   046F 21rE3r00            554 	ld	hl,#(_alphabet + 0x005b)
   0472 36 7D               555 	ld	(hl),#0x7D
   0474 21rE4r00            556 	ld	hl,#(_alphabet + 0x005c)
   0477 36 83               557 	ld	(hl),#0x83
   0479 21rE5r00            558 	ld	hl,#(_alphabet + 0x005d)
   047C 36 83               559 	ld	(hl),#0x83
   047E 21rE6r00            560 	ld	hl,#(_alphabet + 0x005e)
   0481 36 FF               561 	ld	(hl),#0xFF
   0483 21rE7r00            562 	ld	hl,#(_alphabet + 0x005f)
   0486 36 FF               563 	ld	(hl),#0xFF
   0488 21rE8r00            564 	ld	hl,#(_alphabet + 0x0060)
   048B 36 83               565 	ld	(hl),#0x83
   048D 21rE9r00            566 	ld	hl,#(_alphabet + 0x0061)
   0490 36 83               567 	ld	(hl),#0x83
   0492 21rEAr00            568 	ld	hl,#(_alphabet + 0x0062)
   0495 36 7D               569 	ld	(hl),#0x7D
   0497 21rEBr00            570 	ld	hl,#(_alphabet + 0x0063)
   049A 36 7D               571 	ld	(hl),#0x7D
   049C 21rECr00            572 	ld	hl,#(_alphabet + 0x0064)
   049F 36 7F               573 	ld	(hl),#0x7F
   04A1 21rEDr00            574 	ld	hl,#(_alphabet + 0x0065)
   04A4 36 7F               575 	ld	(hl),#0x7F
   04A6 21rEEr00            576 	ld	hl,#(_alphabet + 0x0066)
   04A9 36 03               577 	ld	(hl),#0x03
   04AB 21rEFr00            578 	ld	hl,#(_alphabet + 0x0067)
   04AE 36 03               579 	ld	(hl),#0x03
   04B0 21rF0r00            580 	ld	hl,#(_alphabet + 0x0068)
   04B3 36 7D               581 	ld	(hl),#0x7D
   04B5 21rF1r00            582 	ld	hl,#(_alphabet + 0x0069)
   04B8 36 7D               583 	ld	(hl),#0x7D
   04BA 21rF2r00            584 	ld	hl,#(_alphabet + 0x006a)
   04BD 36 7D               585 	ld	(hl),#0x7D
   04BF 21rF3r00            586 	ld	hl,#(_alphabet + 0x006b)
   04C2 36 7D               587 	ld	(hl),#0x7D
   04C4 21rF4r00            588 	ld	hl,#(_alphabet + 0x006c)
   04C7 36 83               589 	ld	(hl),#0x83
   04C9 21rF5r00            590 	ld	hl,#(_alphabet + 0x006d)
   04CC 36 83               591 	ld	(hl),#0x83
   04CE 21rF6r00            592 	ld	hl,#(_alphabet + 0x006e)
   04D1 36 FF               593 	ld	(hl),#0xFF
   04D3 21rF7r00            594 	ld	hl,#(_alphabet + 0x006f)
   04D6 36 FF               595 	ld	(hl),#0xFF
   04D8 21rF8r00            596 	ld	hl,#(_alphabet + 0x0070)
   04DB 36 81               597 	ld	(hl),#0x81
   04DD 21rF9r00            598 	ld	hl,#(_alphabet + 0x0071)
   04E0 36 81               599 	ld	(hl),#0x81
   04E2 21rFAr00            600 	ld	hl,#(_alphabet + 0x0072)
   04E5 36 7D               601 	ld	(hl),#0x7D
   04E7 21rFBr00            602 	ld	hl,#(_alphabet + 0x0073)
   04EA 36 7D               603 	ld	(hl),#0x7D
   04EC 21rFCr00            604 	ld	hl,#(_alphabet + 0x0074)
   04EF 36 FD               605 	ld	(hl),#0xFD
   04F1 21rFDr00            606 	ld	hl,#(_alphabet + 0x0075)
   04F4 36 FD               607 	ld	(hl),#0xFD
   04F6 21rFEr00            608 	ld	hl,#(_alphabet + 0x0076)
   04F9 36 FB               609 	ld	(hl),#0xFB
   04FB 21rFFr00            610 	ld	hl,#(_alphabet + 0x0077)
   04FE 36 FB               611 	ld	(hl),#0xFB
   0500 21r00r01            612 	ld	hl,#(_alphabet + 0x0078)
   0503 36 FB               613 	ld	(hl),#0xFB
   0505 21r01r01            614 	ld	hl,#(_alphabet + 0x0079)
   0508 36 FB               615 	ld	(hl),#0xFB
   050A 21r02r01            616 	ld	hl,#(_alphabet + 0x007a)
   050D 36 F7               617 	ld	(hl),#0xF7
   050F 21r03r01            618 	ld	hl,#(_alphabet + 0x007b)
   0512 36 F7               619 	ld	(hl),#0xF7
   0514 21r04r01            620 	ld	hl,#(_alphabet + 0x007c)
   0517 36 F7               621 	ld	(hl),#0xF7
   0519 21r05r01            622 	ld	hl,#(_alphabet + 0x007d)
   051C 36 F7               623 	ld	(hl),#0xF7
   051E 21r06r01            624 	ld	hl,#(_alphabet + 0x007e)
   0521 36 FF               625 	ld	(hl),#0xFF
   0523 21r07r01            626 	ld	hl,#(_alphabet + 0x007f)
   0526 36 FF               627 	ld	(hl),#0xFF
   0528 21r08r01            628 	ld	hl,#(_alphabet + 0x0080)
   052B 36 83               629 	ld	(hl),#0x83
   052D 21r09r01            630 	ld	hl,#(_alphabet + 0x0081)
   0530 36 83               631 	ld	(hl),#0x83
   0532 21r0Ar01            632 	ld	hl,#(_alphabet + 0x0082)
   0535 36 7D               633 	ld	(hl),#0x7D
   0537 21r0Br01            634 	ld	hl,#(_alphabet + 0x0083)
   053A 36 7D               635 	ld	(hl),#0x7D
   053C 21r0Cr01            636 	ld	hl,#(_alphabet + 0x0084)
   053F 36 7D               637 	ld	(hl),#0x7D
   0541 21r0Dr01            638 	ld	hl,#(_alphabet + 0x0085)
   0544 36 7D               639 	ld	(hl),#0x7D
   0546 21r0Er01            640 	ld	hl,#(_alphabet + 0x0086)
   0549 36 83               641 	ld	(hl),#0x83
   054B 21r0Fr01            642 	ld	hl,#(_alphabet + 0x0087)
   054E 36 83               643 	ld	(hl),#0x83
   0550 21r10r01            644 	ld	hl,#(_alphabet + 0x0088)
   0553 36 7D               645 	ld	(hl),#0x7D
   0555 21r11r01            646 	ld	hl,#(_alphabet + 0x0089)
   0558 36 7D               647 	ld	(hl),#0x7D
   055A 21r12r01            648 	ld	hl,#(_alphabet + 0x008a)
   055D 36 7D               649 	ld	(hl),#0x7D
   055F 21r13r01            650 	ld	hl,#(_alphabet + 0x008b)
   0562 36 7D               651 	ld	(hl),#0x7D
   0564 21r14r01            652 	ld	hl,#(_alphabet + 0x008c)
   0567 36 83               653 	ld	(hl),#0x83
   0569 21r15r01            654 	ld	hl,#(_alphabet + 0x008d)
   056C 36 83               655 	ld	(hl),#0x83
   056E 21r16r01            656 	ld	hl,#(_alphabet + 0x008e)
   0571 36 FF               657 	ld	(hl),#0xFF
   0573 21r17r01            658 	ld	hl,#(_alphabet + 0x008f)
   0576 36 FF               659 	ld	(hl),#0xFF
   0578 21r18r01            660 	ld	hl,#(_alphabet + 0x0090)
   057B 36 83               661 	ld	(hl),#0x83
   057D 21r19r01            662 	ld	hl,#(_alphabet + 0x0091)
   0580 36 83               663 	ld	(hl),#0x83
   0582 21r1Ar01            664 	ld	hl,#(_alphabet + 0x0092)
   0585 36 7D               665 	ld	(hl),#0x7D
   0587 21r1Br01            666 	ld	hl,#(_alphabet + 0x0093)
   058A 36 7D               667 	ld	(hl),#0x7D
   058C 21r1Cr01            668 	ld	hl,#(_alphabet + 0x0094)
   058F 36 7D               669 	ld	(hl),#0x7D
   0591 21r1Dr01            670 	ld	hl,#(_alphabet + 0x0095)
   0594 36 7D               671 	ld	(hl),#0x7D
   0596 21r1Er01            672 	ld	hl,#(_alphabet + 0x0096)
   0599 36 81               673 	ld	(hl),#0x81
   059B 21r1Fr01            674 	ld	hl,#(_alphabet + 0x0097)
   059E 36 81               675 	ld	(hl),#0x81
   05A0 21r20r01            676 	ld	hl,#(_alphabet + 0x0098)
   05A3 36 FD               677 	ld	(hl),#0xFD
   05A5 21r21r01            678 	ld	hl,#(_alphabet + 0x0099)
   05A8 36 FD               679 	ld	(hl),#0xFD
   05AA 21r22r01            680 	ld	hl,#(_alphabet + 0x009a)
   05AD 36 7D               681 	ld	(hl),#0x7D
   05AF 21r23r01            682 	ld	hl,#(_alphabet + 0x009b)
   05B2 36 7D               683 	ld	(hl),#0x7D
   05B4 21r24r01            684 	ld	hl,#(_alphabet + 0x009c)
   05B7 36 83               685 	ld	(hl),#0x83
   05B9 21r25r01            686 	ld	hl,#(_alphabet + 0x009d)
   05BC 36 83               687 	ld	(hl),#0x83
   05BE 21r26r01            688 	ld	hl,#(_alphabet + 0x009e)
   05C1 36 FF               689 	ld	(hl),#0xFF
   05C3 21r27r01            690 	ld	hl,#(_alphabet + 0x009f)
   05C6 36 FF               691 	ld	(hl),#0xFF
   05C8 21r28r01            692 	ld	hl,#(_alphabet + 0x00a0)
   05CB 36 EF               693 	ld	(hl),#0xEF
   05CD 21r29r01            694 	ld	hl,#(_alphabet + 0x00a1)
   05D0 36 EF               695 	ld	(hl),#0xEF
   05D2 21r2Ar01            696 	ld	hl,#(_alphabet + 0x00a2)
   05D5 36 D7               697 	ld	(hl),#0xD7
   05D7 21r2Br01            698 	ld	hl,#(_alphabet + 0x00a3)
   05DA 36 D7               699 	ld	(hl),#0xD7
   05DC 21r2Cr01            700 	ld	hl,#(_alphabet + 0x00a4)
   05DF 36 D7               701 	ld	(hl),#0xD7
   05E1 21r2Dr01            702 	ld	hl,#(_alphabet + 0x00a5)
   05E4 36 D7               703 	ld	(hl),#0xD7
   05E6 21r2Er01            704 	ld	hl,#(_alphabet + 0x00a6)
   05E9 36 BB               705 	ld	(hl),#0xBB
   05EB 21r2Fr01            706 	ld	hl,#(_alphabet + 0x00a7)
   05EE 36 BB               707 	ld	(hl),#0xBB
   05F0 21r30r01            708 	ld	hl,#(_alphabet + 0x00a8)
   05F3 36 83               709 	ld	(hl),#0x83
   05F5 21r31r01            710 	ld	hl,#(_alphabet + 0x00a9)
   05F8 36 83               711 	ld	(hl),#0x83
   05FA 21r32r01            712 	ld	hl,#(_alphabet + 0x00aa)
   05FD 36 7D               713 	ld	(hl),#0x7D
   05FF 21r33r01            714 	ld	hl,#(_alphabet + 0x00ab)
   0602 36 7D               715 	ld	(hl),#0x7D
   0604 21r34r01            716 	ld	hl,#(_alphabet + 0x00ac)
   0607 36 7D               717 	ld	(hl),#0x7D
   0609 21r35r01            718 	ld	hl,#(_alphabet + 0x00ad)
   060C 36 7D               719 	ld	(hl),#0x7D
   060E 21r36r01            720 	ld	hl,#(_alphabet + 0x00ae)
   0611 36 FF               721 	ld	(hl),#0xFF
   0613 21r37r01            722 	ld	hl,#(_alphabet + 0x00af)
   0616 36 FF               723 	ld	(hl),#0xFF
   0618 21r38r01            724 	ld	hl,#(_alphabet + 0x00b0)
   061B 36 07               725 	ld	(hl),#0x07
   061D 21r39r01            726 	ld	hl,#(_alphabet + 0x00b1)
   0620 36 07               727 	ld	(hl),#0x07
   0622 21r3Ar01            728 	ld	hl,#(_alphabet + 0x00b2)
   0625 36 7B               729 	ld	(hl),#0x7B
   0627 21r3Br01            730 	ld	hl,#(_alphabet + 0x00b3)
   062A 36 7B               731 	ld	(hl),#0x7B
   062C 21r3Cr01            732 	ld	hl,#(_alphabet + 0x00b4)
   062F 36 7B               733 	ld	(hl),#0x7B
   0631 21r3Dr01            734 	ld	hl,#(_alphabet + 0x00b5)
   0634 36 7B               735 	ld	(hl),#0x7B
   0636 21r3Er01            736 	ld	hl,#(_alphabet + 0x00b6)
   0639 36 03               737 	ld	(hl),#0x03
   063B 21r3Fr01            738 	ld	hl,#(_alphabet + 0x00b7)
   063E 36 03               739 	ld	(hl),#0x03
   0640 21r40r01            740 	ld	hl,#(_alphabet + 0x00b8)
   0643 36 7D               741 	ld	(hl),#0x7D
   0645 21r41r01            742 	ld	hl,#(_alphabet + 0x00b9)
   0648 36 7D               743 	ld	(hl),#0x7D
   064A 21r42r01            744 	ld	hl,#(_alphabet + 0x00ba)
   064D 36 7D               745 	ld	(hl),#0x7D
   064F 21r43r01            746 	ld	hl,#(_alphabet + 0x00bb)
   0652 36 7D               747 	ld	(hl),#0x7D
   0654 21r44r01            748 	ld	hl,#(_alphabet + 0x00bc)
   0657 36 03               749 	ld	(hl),#0x03
   0659 21r45r01            750 	ld	hl,#(_alphabet + 0x00bd)
   065C 36 03               751 	ld	(hl),#0x03
   065E 21r46r01            752 	ld	hl,#(_alphabet + 0x00be)
   0661 36 FF               753 	ld	(hl),#0xFF
   0663 21r47r01            754 	ld	hl,#(_alphabet + 0x00bf)
   0666 36 FF               755 	ld	(hl),#0xFF
   0668 21r48r01            756 	ld	hl,#(_alphabet + 0x00c0)
   066B 36 C3               757 	ld	(hl),#0xC3
   066D 21r49r01            758 	ld	hl,#(_alphabet + 0x00c1)
   0670 36 C3               759 	ld	(hl),#0xC3
   0672 21r4Ar01            760 	ld	hl,#(_alphabet + 0x00c2)
   0675 36 BD               761 	ld	(hl),#0xBD
   0677 21r4Br01            762 	ld	hl,#(_alphabet + 0x00c3)
   067A 36 BD               763 	ld	(hl),#0xBD
   067C 21r4Cr01            764 	ld	hl,#(_alphabet + 0x00c4)
   067F 36 7F               765 	ld	(hl),#0x7F
   0681 21r4Dr01            766 	ld	hl,#(_alphabet + 0x00c5)
   0684 36 7F               767 	ld	(hl),#0x7F
   0686 21r4Er01            768 	ld	hl,#(_alphabet + 0x00c6)
   0689 36 7F               769 	ld	(hl),#0x7F
   068B 21r4Fr01            770 	ld	hl,#(_alphabet + 0x00c7)
   068E 36 7F               771 	ld	(hl),#0x7F
   0690 21r50r01            772 	ld	hl,#(_alphabet + 0x00c8)
   0693 36 7F               773 	ld	(hl),#0x7F
   0695 21r51r01            774 	ld	hl,#(_alphabet + 0x00c9)
   0698 36 7F               775 	ld	(hl),#0x7F
   069A 21r52r01            776 	ld	hl,#(_alphabet + 0x00ca)
   069D 36 BD               777 	ld	(hl),#0xBD
   069F 21r53r01            778 	ld	hl,#(_alphabet + 0x00cb)
   06A2 36 BD               779 	ld	(hl),#0xBD
   06A4 21r54r01            780 	ld	hl,#(_alphabet + 0x00cc)
   06A7 36 C3               781 	ld	(hl),#0xC3
   06A9 21r55r01            782 	ld	hl,#(_alphabet + 0x00cd)
   06AC 36 C3               783 	ld	(hl),#0xC3
   06AE 21r56r01            784 	ld	hl,#(_alphabet + 0x00ce)
   06B1 36 FF               785 	ld	(hl),#0xFF
   06B3 21r57r01            786 	ld	hl,#(_alphabet + 0x00cf)
   06B6 36 FF               787 	ld	(hl),#0xFF
   06B8 21r58r01            788 	ld	hl,#(_alphabet + 0x00d0)
   06BB 36 07               789 	ld	(hl),#0x07
   06BD 21r59r01            790 	ld	hl,#(_alphabet + 0x00d1)
   06C0 36 07               791 	ld	(hl),#0x07
   06C2 21r5Ar01            792 	ld	hl,#(_alphabet + 0x00d2)
   06C5 36 7B               793 	ld	(hl),#0x7B
   06C7 21r5Br01            794 	ld	hl,#(_alphabet + 0x00d3)
   06CA 36 7B               795 	ld	(hl),#0x7B
   06CC 21r5Cr01            796 	ld	hl,#(_alphabet + 0x00d4)
   06CF 36 7D               797 	ld	(hl),#0x7D
   06D1 21r5Dr01            798 	ld	hl,#(_alphabet + 0x00d5)
   06D4 36 7D               799 	ld	(hl),#0x7D
   06D6 21r5Er01            800 	ld	hl,#(_alphabet + 0x00d6)
   06D9 36 7D               801 	ld	(hl),#0x7D
   06DB 21r5Fr01            802 	ld	hl,#(_alphabet + 0x00d7)
   06DE 36 7D               803 	ld	(hl),#0x7D
   06E0 21r60r01            804 	ld	hl,#(_alphabet + 0x00d8)
   06E3 36 7D               805 	ld	(hl),#0x7D
   06E5 21r61r01            806 	ld	hl,#(_alphabet + 0x00d9)
   06E8 36 7D               807 	ld	(hl),#0x7D
   06EA 21r62r01            808 	ld	hl,#(_alphabet + 0x00da)
   06ED 36 7B               809 	ld	(hl),#0x7B
   06EF 21r63r01            810 	ld	hl,#(_alphabet + 0x00db)
   06F2 36 7B               811 	ld	(hl),#0x7B
   06F4 21r64r01            812 	ld	hl,#(_alphabet + 0x00dc)
   06F7 36 07               813 	ld	(hl),#0x07
   06F9 21r65r01            814 	ld	hl,#(_alphabet + 0x00dd)
   06FC 36 07               815 	ld	(hl),#0x07
   06FE 21r66r01            816 	ld	hl,#(_alphabet + 0x00de)
   0701 36 FF               817 	ld	(hl),#0xFF
   0703 21r67r01            818 	ld	hl,#(_alphabet + 0x00df)
   0706 36 FF               819 	ld	(hl),#0xFF
   0708 21r68r01            820 	ld	hl,#(_alphabet + 0x00e0)
   070B 36 01               821 	ld	(hl),#0x01
   070D 21r69r01            822 	ld	hl,#(_alphabet + 0x00e1)
   0710 36 01               823 	ld	(hl),#0x01
   0712 21r6Ar01            824 	ld	hl,#(_alphabet + 0x00e2)
   0715 36 7F               825 	ld	(hl),#0x7F
   0717 21r6Br01            826 	ld	hl,#(_alphabet + 0x00e3)
   071A 36 7F               827 	ld	(hl),#0x7F
   071C 21r6Cr01            828 	ld	hl,#(_alphabet + 0x00e4)
   071F 36 7F               829 	ld	(hl),#0x7F
   0721 21r6Dr01            830 	ld	hl,#(_alphabet + 0x00e5)
   0724 36 7F               831 	ld	(hl),#0x7F
   0726 21r6Er01            832 	ld	hl,#(_alphabet + 0x00e6)
   0729 36 03               833 	ld	(hl),#0x03
   072B 21r6Fr01            834 	ld	hl,#(_alphabet + 0x00e7)
   072E 36 03               835 	ld	(hl),#0x03
   0730 21r70r01            836 	ld	hl,#(_alphabet + 0x00e8)
   0733 36 7F               837 	ld	(hl),#0x7F
   0735 21r71r01            838 	ld	hl,#(_alphabet + 0x00e9)
   0738 36 7F               839 	ld	(hl),#0x7F
   073A 21r72r01            840 	ld	hl,#(_alphabet + 0x00ea)
   073D 36 7F               841 	ld	(hl),#0x7F
   073F 21r73r01            842 	ld	hl,#(_alphabet + 0x00eb)
   0742 36 7F               843 	ld	(hl),#0x7F
   0744 21r74r01            844 	ld	hl,#(_alphabet + 0x00ec)
   0747 36 01               845 	ld	(hl),#0x01
   0749 21r75r01            846 	ld	hl,#(_alphabet + 0x00ed)
   074C 36 01               847 	ld	(hl),#0x01
   074E 21r76r01            848 	ld	hl,#(_alphabet + 0x00ee)
   0751 36 FF               849 	ld	(hl),#0xFF
   0753 21r77r01            850 	ld	hl,#(_alphabet + 0x00ef)
   0756 36 FF               851 	ld	(hl),#0xFF
   0758 21r78r01            852 	ld	hl,#(_alphabet + 0x00f0)
   075B 36 01               853 	ld	(hl),#0x01
   075D 21r79r01            854 	ld	hl,#(_alphabet + 0x00f1)
   0760 36 01               855 	ld	(hl),#0x01
   0762 21r7Ar01            856 	ld	hl,#(_alphabet + 0x00f2)
   0765 36 7F               857 	ld	(hl),#0x7F
   0767 21r7Br01            858 	ld	hl,#(_alphabet + 0x00f3)
   076A 36 7F               859 	ld	(hl),#0x7F
   076C 21r7Cr01            860 	ld	hl,#(_alphabet + 0x00f4)
   076F 36 7F               861 	ld	(hl),#0x7F
   0771 21r7Dr01            862 	ld	hl,#(_alphabet + 0x00f5)
   0774 36 7F               863 	ld	(hl),#0x7F
   0776 21r7Er01            864 	ld	hl,#(_alphabet + 0x00f6)
   0779 36 03               865 	ld	(hl),#0x03
   077B 21r7Fr01            866 	ld	hl,#(_alphabet + 0x00f7)
   077E 36 03               867 	ld	(hl),#0x03
   0780 21r80r01            868 	ld	hl,#(_alphabet + 0x00f8)
   0783 36 7F               869 	ld	(hl),#0x7F
   0785 21r81r01            870 	ld	hl,#(_alphabet + 0x00f9)
   0788 36 7F               871 	ld	(hl),#0x7F
   078A 21r82r01            872 	ld	hl,#(_alphabet + 0x00fa)
   078D 36 7F               873 	ld	(hl),#0x7F
   078F 21r83r01            874 	ld	hl,#(_alphabet + 0x00fb)
   0792 36 7F               875 	ld	(hl),#0x7F
   0794 21r84r01            876 	ld	hl,#(_alphabet + 0x00fc)
   0797 36 7F               877 	ld	(hl),#0x7F
   0799 21r85r01            878 	ld	hl,#(_alphabet + 0x00fd)
   079C 36 7F               879 	ld	(hl),#0x7F
   079E 21r86r01            880 	ld	hl,#(_alphabet + 0x00fe)
   07A1 36 FF               881 	ld	(hl),#0xFF
   07A3 21r87r01            882 	ld	hl,#(_alphabet + 0x00ff)
   07A6 36 FF               883 	ld	(hl),#0xFF
   07A8 21r88r01            884 	ld	hl,#(_alphabet + 0x0100)
   07AB 36 C3               885 	ld	(hl),#0xC3
   07AD 21r89r01            886 	ld	hl,#(_alphabet + 0x0101)
   07B0 36 C3               887 	ld	(hl),#0xC3
   07B2 21r8Ar01            888 	ld	hl,#(_alphabet + 0x0102)
   07B5 36 BD               889 	ld	(hl),#0xBD
   07B7 21r8Br01            890 	ld	hl,#(_alphabet + 0x0103)
   07BA 36 BD               891 	ld	(hl),#0xBD
   07BC 21r8Cr01            892 	ld	hl,#(_alphabet + 0x0104)
   07BF 36 7F               893 	ld	(hl),#0x7F
   07C1 21r8Dr01            894 	ld	hl,#(_alphabet + 0x0105)
   07C4 36 7F               895 	ld	(hl),#0x7F
   07C6 21r8Er01            896 	ld	hl,#(_alphabet + 0x0106)
   07C9 36 61               897 	ld	(hl),#0x61
   07CB 21r8Fr01            898 	ld	hl,#(_alphabet + 0x0107)
   07CE 36 61               899 	ld	(hl),#0x61
   07D0 21r90r01            900 	ld	hl,#(_alphabet + 0x0108)
   07D3 36 7D               901 	ld	(hl),#0x7D
   07D5 21r91r01            902 	ld	hl,#(_alphabet + 0x0109)
   07D8 36 7D               903 	ld	(hl),#0x7D
   07DA 21r92r01            904 	ld	hl,#(_alphabet + 0x010a)
   07DD 36 BD               905 	ld	(hl),#0xBD
   07DF 21r93r01            906 	ld	hl,#(_alphabet + 0x010b)
   07E2 36 BD               907 	ld	(hl),#0xBD
   07E4 21r94r01            908 	ld	hl,#(_alphabet + 0x010c)
   07E7 36 C3               909 	ld	(hl),#0xC3
   07E9 21r95r01            910 	ld	hl,#(_alphabet + 0x010d)
   07EC 36 C3               911 	ld	(hl),#0xC3
   07EE 21r96r01            912 	ld	hl,#(_alphabet + 0x010e)
   07F1 36 FF               913 	ld	(hl),#0xFF
   07F3 21r97r01            914 	ld	hl,#(_alphabet + 0x010f)
   07F6 36 FF               915 	ld	(hl),#0xFF
   07F8 21r98r01            916 	ld	hl,#(_alphabet + 0x0110)
   07FB 36 7D               917 	ld	(hl),#0x7D
   07FD 21r99r01            918 	ld	hl,#(_alphabet + 0x0111)
   0800 36 7D               919 	ld	(hl),#0x7D
   0802 21r9Ar01            920 	ld	hl,#(_alphabet + 0x0112)
   0805 36 7D               921 	ld	(hl),#0x7D
   0807 21r9Br01            922 	ld	hl,#(_alphabet + 0x0113)
   080A 36 7D               923 	ld	(hl),#0x7D
   080C 21r9Cr01            924 	ld	hl,#(_alphabet + 0x0114)
   080F 36 7D               925 	ld	(hl),#0x7D
   0811 21r9Dr01            926 	ld	hl,#(_alphabet + 0x0115)
   0814 36 7D               927 	ld	(hl),#0x7D
   0816 21r9Er01            928 	ld	hl,#(_alphabet + 0x0116)
   0819 36 01               929 	ld	(hl),#0x01
   081B 21r9Fr01            930 	ld	hl,#(_alphabet + 0x0117)
   081E 36 01               931 	ld	(hl),#0x01
   0820 21rA0r01            932 	ld	hl,#(_alphabet + 0x0118)
   0823 36 7D               933 	ld	(hl),#0x7D
   0825 21rA1r01            934 	ld	hl,#(_alphabet + 0x0119)
   0828 36 7D               935 	ld	(hl),#0x7D
   082A 21rA2r01            936 	ld	hl,#(_alphabet + 0x011a)
   082D 36 7D               937 	ld	(hl),#0x7D
   082F 21rA3r01            938 	ld	hl,#(_alphabet + 0x011b)
   0832 36 7D               939 	ld	(hl),#0x7D
   0834 21rA4r01            940 	ld	hl,#(_alphabet + 0x011c)
   0837 36 7D               941 	ld	(hl),#0x7D
   0839 21rA5r01            942 	ld	hl,#(_alphabet + 0x011d)
   083C 36 7D               943 	ld	(hl),#0x7D
   083E 21rA6r01            944 	ld	hl,#(_alphabet + 0x011e)
   0841 36 FF               945 	ld	(hl),#0xFF
   0843 21rA7r01            946 	ld	hl,#(_alphabet + 0x011f)
   0846 36 FF               947 	ld	(hl),#0xFF
   0848 21rA8r01            948 	ld	hl,#(_alphabet + 0x0120)
   084B 36 83               949 	ld	(hl),#0x83
   084D 21rA9r01            950 	ld	hl,#(_alphabet + 0x0121)
   0850 36 83               951 	ld	(hl),#0x83
   0852 21rAAr01            952 	ld	hl,#(_alphabet + 0x0122)
   0855 36 EF               953 	ld	(hl),#0xEF
   0857 21rABr01            954 	ld	hl,#(_alphabet + 0x0123)
   085A 36 EF               955 	ld	(hl),#0xEF
   085C 21rACr01            956 	ld	hl,#(_alphabet + 0x0124)
   085F 36 EF               957 	ld	(hl),#0xEF
   0861 21rADr01            958 	ld	hl,#(_alphabet + 0x0125)
   0864 36 EF               959 	ld	(hl),#0xEF
   0866 21rAEr01            960 	ld	hl,#(_alphabet + 0x0126)
   0869 36 EF               961 	ld	(hl),#0xEF
   086B 21rAFr01            962 	ld	hl,#(_alphabet + 0x0127)
   086E 36 EF               963 	ld	(hl),#0xEF
   0870 21rB0r01            964 	ld	hl,#(_alphabet + 0x0128)
   0873 36 EF               965 	ld	(hl),#0xEF
   0875 21rB1r01            966 	ld	hl,#(_alphabet + 0x0129)
   0878 36 EF               967 	ld	(hl),#0xEF
   087A 21rB2r01            968 	ld	hl,#(_alphabet + 0x012a)
   087D 36 EF               969 	ld	(hl),#0xEF
   087F 21rB3r01            970 	ld	hl,#(_alphabet + 0x012b)
   0882 36 EF               971 	ld	(hl),#0xEF
   0884 21rB4r01            972 	ld	hl,#(_alphabet + 0x012c)
   0887 36 83               973 	ld	(hl),#0x83
   0889 21rB5r01            974 	ld	hl,#(_alphabet + 0x012d)
   088C 36 83               975 	ld	(hl),#0x83
   088E 21rB6r01            976 	ld	hl,#(_alphabet + 0x012e)
   0891 36 FF               977 	ld	(hl),#0xFF
   0893 21rB7r01            978 	ld	hl,#(_alphabet + 0x012f)
   0896 36 FF               979 	ld	(hl),#0xFF
   0898 21rB8r01            980 	ld	hl,#(_alphabet + 0x0130)
   089B 36 81               981 	ld	(hl),#0x81
   089D 21rB9r01            982 	ld	hl,#(_alphabet + 0x0131)
   08A0 36 81               983 	ld	(hl),#0x81
   08A2 21rBAr01            984 	ld	hl,#(_alphabet + 0x0132)
   08A5 36 F7               985 	ld	(hl),#0xF7
   08A7 21rBBr01            986 	ld	hl,#(_alphabet + 0x0133)
   08AA 36 F7               987 	ld	(hl),#0xF7
   08AC 21rBCr01            988 	ld	hl,#(_alphabet + 0x0134)
   08AF 36 F7               989 	ld	(hl),#0xF7
   08B1 21rBDr01            990 	ld	hl,#(_alphabet + 0x0135)
   08B4 36 F7               991 	ld	(hl),#0xF7
   08B6 21rBEr01            992 	ld	hl,#(_alphabet + 0x0136)
   08B9 36 F7               993 	ld	(hl),#0xF7
   08BB 21rBFr01            994 	ld	hl,#(_alphabet + 0x0137)
   08BE 36 F7               995 	ld	(hl),#0xF7
   08C0 21rC0r01            996 	ld	hl,#(_alphabet + 0x0138)
   08C3 36 77               997 	ld	(hl),#0x77
   08C5 21rC1r01            998 	ld	hl,#(_alphabet + 0x0139)
   08C8 36 77               999 	ld	(hl),#0x77
   08CA 21rC2r01           1000 	ld	hl,#(_alphabet + 0x013a)
   08CD 36 77              1001 	ld	(hl),#0x77
   08CF 21rC3r01           1002 	ld	hl,#(_alphabet + 0x013b)
   08D2 36 77              1003 	ld	(hl),#0x77
   08D4 21rC4r01           1004 	ld	hl,#(_alphabet + 0x013c)
   08D7 36 8F              1005 	ld	(hl),#0x8F
   08D9 21rC5r01           1006 	ld	hl,#(_alphabet + 0x013d)
   08DC 36 8F              1007 	ld	(hl),#0x8F
   08DE 21rC6r01           1008 	ld	hl,#(_alphabet + 0x013e)
   08E1 36 FF              1009 	ld	(hl),#0xFF
   08E3 21rC7r01           1010 	ld	hl,#(_alphabet + 0x013f)
   08E6 36 FF              1011 	ld	(hl),#0xFF
   08E8 21rC8r01           1012 	ld	hl,#(_alphabet + 0x0140)
   08EB 36 7B              1013 	ld	(hl),#0x7B
   08ED 21rC9r01           1014 	ld	hl,#(_alphabet + 0x0141)
   08F0 36 7B              1015 	ld	(hl),#0x7B
   08F2 21rCAr01           1016 	ld	hl,#(_alphabet + 0x0142)
   08F5 36 77              1017 	ld	(hl),#0x77
   08F7 21rCBr01           1018 	ld	hl,#(_alphabet + 0x0143)
   08FA 36 77              1019 	ld	(hl),#0x77
   08FC 21rCCr01           1020 	ld	hl,#(_alphabet + 0x0144)
   08FF 36 6F              1021 	ld	(hl),#0x6F
   0901 21rCDr01           1022 	ld	hl,#(_alphabet + 0x0145)
   0904 36 6F              1023 	ld	(hl),#0x6F
   0906 21rCEr01           1024 	ld	hl,#(_alphabet + 0x0146)
   0909 36 4F              1025 	ld	(hl),#0x4F
   090B 21rCFr01           1026 	ld	hl,#(_alphabet + 0x0147)
   090E 36 4F              1027 	ld	(hl),#0x4F
   0910 21rD0r01           1028 	ld	hl,#(_alphabet + 0x0148)
   0913 36 37              1029 	ld	(hl),#0x37
   0915 21rD1r01           1030 	ld	hl,#(_alphabet + 0x0149)
   0918 36 37              1031 	ld	(hl),#0x37
   091A 21rD2r01           1032 	ld	hl,#(_alphabet + 0x014a)
   091D 36 7B              1033 	ld	(hl),#0x7B
   091F 21rD3r01           1034 	ld	hl,#(_alphabet + 0x014b)
   0922 36 7B              1035 	ld	(hl),#0x7B
   0924 21rD4r01           1036 	ld	hl,#(_alphabet + 0x014c)
   0927 36 7D              1037 	ld	(hl),#0x7D
   0929 21rD5r01           1038 	ld	hl,#(_alphabet + 0x014d)
   092C 36 7D              1039 	ld	(hl),#0x7D
   092E 21rD6r01           1040 	ld	hl,#(_alphabet + 0x014e)
   0931 36 FF              1041 	ld	(hl),#0xFF
   0933 21rD7r01           1042 	ld	hl,#(_alphabet + 0x014f)
   0936 36 FF              1043 	ld	(hl),#0xFF
   0938 21rD8r01           1044 	ld	hl,#(_alphabet + 0x0150)
   093B 36 7F              1045 	ld	(hl),#0x7F
   093D 21rD9r01           1046 	ld	hl,#(_alphabet + 0x0151)
   0940 36 7F              1047 	ld	(hl),#0x7F
   0942 21rDAr01           1048 	ld	hl,#(_alphabet + 0x0152)
   0945 36 7F              1049 	ld	(hl),#0x7F
   0947 21rDBr01           1050 	ld	hl,#(_alphabet + 0x0153)
   094A 36 7F              1051 	ld	(hl),#0x7F
   094C 21rDCr01           1052 	ld	hl,#(_alphabet + 0x0154)
   094F 36 7F              1053 	ld	(hl),#0x7F
   0951 21rDDr01           1054 	ld	hl,#(_alphabet + 0x0155)
   0954 36 7F              1055 	ld	(hl),#0x7F
   0956 21rDEr01           1056 	ld	hl,#(_alphabet + 0x0156)
   0959 36 7F              1057 	ld	(hl),#0x7F
   095B 21rDFr01           1058 	ld	hl,#(_alphabet + 0x0157)
   095E 36 7F              1059 	ld	(hl),#0x7F
   0960 21rE0r01           1060 	ld	hl,#(_alphabet + 0x0158)
   0963 36 7F              1061 	ld	(hl),#0x7F
   0965 21rE1r01           1062 	ld	hl,#(_alphabet + 0x0159)
   0968 36 7F              1063 	ld	(hl),#0x7F
   096A 21rE2r01           1064 	ld	hl,#(_alphabet + 0x015a)
   096D 36 7F              1065 	ld	(hl),#0x7F
   096F 21rE3r01           1066 	ld	hl,#(_alphabet + 0x015b)
   0972 36 7F              1067 	ld	(hl),#0x7F
   0974 21rE4r01           1068 	ld	hl,#(_alphabet + 0x015c)
   0977 36 01              1069 	ld	(hl),#0x01
   0979 21rE5r01           1070 	ld	hl,#(_alphabet + 0x015d)
   097C 36 01              1071 	ld	(hl),#0x01
   097E 21rE6r01           1072 	ld	hl,#(_alphabet + 0x015e)
   0981 36 FF              1073 	ld	(hl),#0xFF
   0983 21rE7r01           1074 	ld	hl,#(_alphabet + 0x015f)
   0986 36 FF              1075 	ld	(hl),#0xFF
   0988 21rE8r01           1076 	ld	hl,#(_alphabet + 0x0160)
   098B 36 7D              1077 	ld	(hl),#0x7D
   098D 21rE9r01           1078 	ld	hl,#(_alphabet + 0x0161)
   0990 36 7D              1079 	ld	(hl),#0x7D
   0992 21rEAr01           1080 	ld	hl,#(_alphabet + 0x0162)
   0995 36 39              1081 	ld	(hl),#0x39
   0997 21rEBr01           1082 	ld	hl,#(_alphabet + 0x0163)
   099A 36 39              1083 	ld	(hl),#0x39
   099C 21rECr01           1084 	ld	hl,#(_alphabet + 0x0164)
   099F 36 55              1085 	ld	(hl),#0x55
   09A1 21rEDr01           1086 	ld	hl,#(_alphabet + 0x0165)
   09A4 36 55              1087 	ld	(hl),#0x55
   09A6 21rEEr01           1088 	ld	hl,#(_alphabet + 0x0166)
   09A9 36 6D              1089 	ld	(hl),#0x6D
   09AB 21rEFr01           1090 	ld	hl,#(_alphabet + 0x0167)
   09AE 36 6D              1091 	ld	(hl),#0x6D
   09B0 21rF0r01           1092 	ld	hl,#(_alphabet + 0x0168)
   09B3 36 7D              1093 	ld	(hl),#0x7D
   09B5 21rF1r01           1094 	ld	hl,#(_alphabet + 0x0169)
   09B8 36 7D              1095 	ld	(hl),#0x7D
   09BA 21rF2r01           1096 	ld	hl,#(_alphabet + 0x016a)
   09BD 36 7D              1097 	ld	(hl),#0x7D
   09BF 21rF3r01           1098 	ld	hl,#(_alphabet + 0x016b)
   09C2 36 7D              1099 	ld	(hl),#0x7D
   09C4 21rF4r01           1100 	ld	hl,#(_alphabet + 0x016c)
   09C7 36 7D              1101 	ld	(hl),#0x7D
   09C9 21rF5r01           1102 	ld	hl,#(_alphabet + 0x016d)
   09CC 36 7D              1103 	ld	(hl),#0x7D
   09CE 21rF6r01           1104 	ld	hl,#(_alphabet + 0x016e)
   09D1 36 FF              1105 	ld	(hl),#0xFF
   09D3 21rF7r01           1106 	ld	hl,#(_alphabet + 0x016f)
   09D6 36 FF              1107 	ld	(hl),#0xFF
   09D8 21rF8r01           1108 	ld	hl,#(_alphabet + 0x0170)
   09DB 36 7D              1109 	ld	(hl),#0x7D
   09DD 21rF9r01           1110 	ld	hl,#(_alphabet + 0x0171)
   09E0 36 7D              1111 	ld	(hl),#0x7D
   09E2 21rFAr01           1112 	ld	hl,#(_alphabet + 0x0172)
   09E5 36 3D              1113 	ld	(hl),#0x3D
   09E7 21rFBr01           1114 	ld	hl,#(_alphabet + 0x0173)
   09EA 36 3D              1115 	ld	(hl),#0x3D
   09EC 21rFCr01           1116 	ld	hl,#(_alphabet + 0x0174)
   09EF 36 5D              1117 	ld	(hl),#0x5D
   09F1 21rFDr01           1118 	ld	hl,#(_alphabet + 0x0175)
   09F4 36 5D              1119 	ld	(hl),#0x5D
   09F6 21rFEr01           1120 	ld	hl,#(_alphabet + 0x0176)
   09F9 36 6D              1121 	ld	(hl),#0x6D
   09FB 21rFFr01           1122 	ld	hl,#(_alphabet + 0x0177)
   09FE 36 6D              1123 	ld	(hl),#0x6D
   0A00 21r00r02           1124 	ld	hl,#(_alphabet + 0x0178)
   0A03 36 75              1125 	ld	(hl),#0x75
   0A05 21r01r02           1126 	ld	hl,#(_alphabet + 0x0179)
   0A08 36 75              1127 	ld	(hl),#0x75
   0A0A 21r02r02           1128 	ld	hl,#(_alphabet + 0x017a)
   0A0D 36 79              1129 	ld	(hl),#0x79
   0A0F 21r03r02           1130 	ld	hl,#(_alphabet + 0x017b)
   0A12 36 79              1131 	ld	(hl),#0x79
   0A14 21r04r02           1132 	ld	hl,#(_alphabet + 0x017c)
   0A17 36 7D              1133 	ld	(hl),#0x7D
   0A19 21r05r02           1134 	ld	hl,#(_alphabet + 0x017d)
   0A1C 36 7D              1135 	ld	(hl),#0x7D
   0A1E 21r06r02           1136 	ld	hl,#(_alphabet + 0x017e)
   0A21 36 FF              1137 	ld	(hl),#0xFF
   0A23 21r07r02           1138 	ld	hl,#(_alphabet + 0x017f)
   0A26 36 FF              1139 	ld	(hl),#0xFF
   0A28 21r08r02           1140 	ld	hl,#(_alphabet + 0x0180)
   0A2B 36 C7              1141 	ld	(hl),#0xC7
   0A2D 21r09r02           1142 	ld	hl,#(_alphabet + 0x0181)
   0A30 36 C7              1143 	ld	(hl),#0xC7
   0A32 21r0Ar02           1144 	ld	hl,#(_alphabet + 0x0182)
   0A35 36 BB              1145 	ld	(hl),#0xBB
   0A37 21r0Br02           1146 	ld	hl,#(_alphabet + 0x0183)
   0A3A 36 BB              1147 	ld	(hl),#0xBB
   0A3C 21r0Cr02           1148 	ld	hl,#(_alphabet + 0x0184)
   0A3F 36 7D              1149 	ld	(hl),#0x7D
   0A41 21r0Dr02           1150 	ld	hl,#(_alphabet + 0x0185)
   0A44 36 7D              1151 	ld	(hl),#0x7D
   0A46 21r0Er02           1152 	ld	hl,#(_alphabet + 0x0186)
   0A49 36 7D              1153 	ld	(hl),#0x7D
   0A4B 21r0Fr02           1154 	ld	hl,#(_alphabet + 0x0187)
   0A4E 36 7D              1155 	ld	(hl),#0x7D
   0A50 21r10r02           1156 	ld	hl,#(_alphabet + 0x0188)
   0A53 36 7D              1157 	ld	(hl),#0x7D
   0A55 21r11r02           1158 	ld	hl,#(_alphabet + 0x0189)
   0A58 36 7D              1159 	ld	(hl),#0x7D
   0A5A 21r12r02           1160 	ld	hl,#(_alphabet + 0x018a)
   0A5D 36 BB              1161 	ld	(hl),#0xBB
   0A5F 21r13r02           1162 	ld	hl,#(_alphabet + 0x018b)
   0A62 36 BB              1163 	ld	(hl),#0xBB
   0A64 21r14r02           1164 	ld	hl,#(_alphabet + 0x018c)
   0A67 36 C7              1165 	ld	(hl),#0xC7
   0A69 21r15r02           1166 	ld	hl,#(_alphabet + 0x018d)
   0A6C 36 C7              1167 	ld	(hl),#0xC7
   0A6E 21r16r02           1168 	ld	hl,#(_alphabet + 0x018e)
   0A71 36 FF              1169 	ld	(hl),#0xFF
   0A73 21r17r02           1170 	ld	hl,#(_alphabet + 0x018f)
   0A76 36 FF              1171 	ld	(hl),#0xFF
   0A78 21r18r02           1172 	ld	hl,#(_alphabet + 0x0190)
   0A7B 36 03              1173 	ld	(hl),#0x03
   0A7D 21r19r02           1174 	ld	hl,#(_alphabet + 0x0191)
   0A80 36 03              1175 	ld	(hl),#0x03
   0A82 21r1Ar02           1176 	ld	hl,#(_alphabet + 0x0192)
   0A85 36 7D              1177 	ld	(hl),#0x7D
   0A87 21r1Br02           1178 	ld	hl,#(_alphabet + 0x0193)
   0A8A 36 7D              1179 	ld	(hl),#0x7D
   0A8C 21r1Cr02           1180 	ld	hl,#(_alphabet + 0x0194)
   0A8F 36 7D              1181 	ld	(hl),#0x7D
   0A91 21r1Dr02           1182 	ld	hl,#(_alphabet + 0x0195)
   0A94 36 7D              1183 	ld	(hl),#0x7D
   0A96 21r1Er02           1184 	ld	hl,#(_alphabet + 0x0196)
   0A99 36 03              1185 	ld	(hl),#0x03
   0A9B 21r1Fr02           1186 	ld	hl,#(_alphabet + 0x0197)
   0A9E 36 03              1187 	ld	(hl),#0x03
   0AA0 21r20r02           1188 	ld	hl,#(_alphabet + 0x0198)
   0AA3 36 7F              1189 	ld	(hl),#0x7F
   0AA5 21r21r02           1190 	ld	hl,#(_alphabet + 0x0199)
   0AA8 36 7F              1191 	ld	(hl),#0x7F
   0AAA 21r22r02           1192 	ld	hl,#(_alphabet + 0x019a)
   0AAD 36 7F              1193 	ld	(hl),#0x7F
   0AAF 21r23r02           1194 	ld	hl,#(_alphabet + 0x019b)
   0AB2 36 7F              1195 	ld	(hl),#0x7F
   0AB4 21r24r02           1196 	ld	hl,#(_alphabet + 0x019c)
   0AB7 36 7F              1197 	ld	(hl),#0x7F
   0AB9 21r25r02           1198 	ld	hl,#(_alphabet + 0x019d)
   0ABC 36 7F              1199 	ld	(hl),#0x7F
   0ABE 21r26r02           1200 	ld	hl,#(_alphabet + 0x019e)
   0AC1 36 FF              1201 	ld	(hl),#0xFF
   0AC3 21r27r02           1202 	ld	hl,#(_alphabet + 0x019f)
   0AC6 36 FF              1203 	ld	(hl),#0xFF
   0AC8 21r28r02           1204 	ld	hl,#(_alphabet + 0x01a0)
   0ACB 36 C7              1205 	ld	(hl),#0xC7
   0ACD 21r29r02           1206 	ld	hl,#(_alphabet + 0x01a1)
   0AD0 36 C7              1207 	ld	(hl),#0xC7
   0AD2 21r2Ar02           1208 	ld	hl,#(_alphabet + 0x01a2)
   0AD5 36 BB              1209 	ld	(hl),#0xBB
   0AD7 21r2Br02           1210 	ld	hl,#(_alphabet + 0x01a3)
   0ADA 36 BB              1211 	ld	(hl),#0xBB
   0ADC 21r2Cr02           1212 	ld	hl,#(_alphabet + 0x01a4)
   0ADF 36 7D              1213 	ld	(hl),#0x7D
   0AE1 21r2Dr02           1214 	ld	hl,#(_alphabet + 0x01a5)
   0AE4 36 7D              1215 	ld	(hl),#0x7D
   0AE6 21r2Er02           1216 	ld	hl,#(_alphabet + 0x01a6)
   0AE9 36 7D              1217 	ld	(hl),#0x7D
   0AEB 21r2Fr02           1218 	ld	hl,#(_alphabet + 0x01a7)
   0AEE 36 7D              1219 	ld	(hl),#0x7D
   0AF0 21r30r02           1220 	ld	hl,#(_alphabet + 0x01a8)
   0AF3 36 75              1221 	ld	(hl),#0x75
   0AF5 21r31r02           1222 	ld	hl,#(_alphabet + 0x01a9)
   0AF8 36 75              1223 	ld	(hl),#0x75
   0AFA 21r32r02           1224 	ld	hl,#(_alphabet + 0x01aa)
   0AFD 36 BB              1225 	ld	(hl),#0xBB
   0AFF 21r33r02           1226 	ld	hl,#(_alphabet + 0x01ab)
   0B02 36 BB              1227 	ld	(hl),#0xBB
   0B04 21r34r02           1228 	ld	hl,#(_alphabet + 0x01ac)
   0B07 36 C5              1229 	ld	(hl),#0xC5
   0B09 21r35r02           1230 	ld	hl,#(_alphabet + 0x01ad)
   0B0C 36 C5              1231 	ld	(hl),#0xC5
   0B0E 21r36r02           1232 	ld	hl,#(_alphabet + 0x01ae)
   0B11 36 FF              1233 	ld	(hl),#0xFF
   0B13 21r37r02           1234 	ld	hl,#(_alphabet + 0x01af)
   0B16 36 FF              1235 	ld	(hl),#0xFF
   0B18 21r38r02           1236 	ld	hl,#(_alphabet + 0x01b0)
   0B1B 36 03              1237 	ld	(hl),#0x03
   0B1D 21r39r02           1238 	ld	hl,#(_alphabet + 0x01b1)
   0B20 36 03              1239 	ld	(hl),#0x03
   0B22 21r3Ar02           1240 	ld	hl,#(_alphabet + 0x01b2)
   0B25 36 7D              1241 	ld	(hl),#0x7D
   0B27 21r3Br02           1242 	ld	hl,#(_alphabet + 0x01b3)
   0B2A 36 7D              1243 	ld	(hl),#0x7D
   0B2C 21r3Cr02           1244 	ld	hl,#(_alphabet + 0x01b4)
   0B2F 36 7D              1245 	ld	(hl),#0x7D
   0B31 21r3Dr02           1246 	ld	hl,#(_alphabet + 0x01b5)
   0B34 36 7D              1247 	ld	(hl),#0x7D
   0B36 21r3Er02           1248 	ld	hl,#(_alphabet + 0x01b6)
   0B39 36 03              1249 	ld	(hl),#0x03
   0B3B 21r3Fr02           1250 	ld	hl,#(_alphabet + 0x01b7)
   0B3E 36 03              1251 	ld	(hl),#0x03
   0B40 21r40r02           1252 	ld	hl,#(_alphabet + 0x01b8)
   0B43 36 77              1253 	ld	(hl),#0x77
   0B45 21r41r02           1254 	ld	hl,#(_alphabet + 0x01b9)
   0B48 36 77              1255 	ld	(hl),#0x77
   0B4A 21r42r02           1256 	ld	hl,#(_alphabet + 0x01ba)
   0B4D 36 7B              1257 	ld	(hl),#0x7B
   0B4F 21r43r02           1258 	ld	hl,#(_alphabet + 0x01bb)
   0B52 36 7B              1259 	ld	(hl),#0x7B
   0B54 21r44r02           1260 	ld	hl,#(_alphabet + 0x01bc)
   0B57 36 7D              1261 	ld	(hl),#0x7D
   0B59 21r45r02           1262 	ld	hl,#(_alphabet + 0x01bd)
   0B5C 36 7D              1263 	ld	(hl),#0x7D
   0B5E 21r46r02           1264 	ld	hl,#(_alphabet + 0x01be)
   0B61 36 FF              1265 	ld	(hl),#0xFF
   0B63 21r47r02           1266 	ld	hl,#(_alphabet + 0x01bf)
   0B66 36 FF              1267 	ld	(hl),#0xFF
   0B68 21r48r02           1268 	ld	hl,#(_alphabet + 0x01c0)
   0B6B 36 87              1269 	ld	(hl),#0x87
   0B6D 21r49r02           1270 	ld	hl,#(_alphabet + 0x01c1)
   0B70 36 87              1271 	ld	(hl),#0x87
   0B72 21r4Ar02           1272 	ld	hl,#(_alphabet + 0x01c2)
   0B75 36 7B              1273 	ld	(hl),#0x7B
   0B77 21r4Br02           1274 	ld	hl,#(_alphabet + 0x01c3)
   0B7A 36 7B              1275 	ld	(hl),#0x7B
   0B7C 21r4Cr02           1276 	ld	hl,#(_alphabet + 0x01c4)
   0B7F 36 7F              1277 	ld	(hl),#0x7F
   0B81 21r4Dr02           1278 	ld	hl,#(_alphabet + 0x01c5)
   0B84 36 7F              1279 	ld	(hl),#0x7F
   0B86 21r4Er02           1280 	ld	hl,#(_alphabet + 0x01c6)
   0B89 36 83              1281 	ld	(hl),#0x83
   0B8B 21r4Fr02           1282 	ld	hl,#(_alphabet + 0x01c7)
   0B8E 36 83              1283 	ld	(hl),#0x83
   0B90 21r50r02           1284 	ld	hl,#(_alphabet + 0x01c8)
   0B93 36 FD              1285 	ld	(hl),#0xFD
   0B95 21r51r02           1286 	ld	hl,#(_alphabet + 0x01c9)
   0B98 36 FD              1287 	ld	(hl),#0xFD
   0B9A 21r52r02           1288 	ld	hl,#(_alphabet + 0x01ca)
   0B9D 36 7D              1289 	ld	(hl),#0x7D
   0B9F 21r53r02           1290 	ld	hl,#(_alphabet + 0x01cb)
   0BA2 36 7D              1291 	ld	(hl),#0x7D
   0BA4 21r54r02           1292 	ld	hl,#(_alphabet + 0x01cc)
   0BA7 36 83              1293 	ld	(hl),#0x83
   0BA9 21r55r02           1294 	ld	hl,#(_alphabet + 0x01cd)
   0BAC 36 83              1295 	ld	(hl),#0x83
   0BAE 21r56r02           1296 	ld	hl,#(_alphabet + 0x01ce)
   0BB1 36 FF              1297 	ld	(hl),#0xFF
   0BB3 21r57r02           1298 	ld	hl,#(_alphabet + 0x01cf)
   0BB6 36 FF              1299 	ld	(hl),#0xFF
   0BB8 21r58r02           1300 	ld	hl,#(_alphabet + 0x01d0)
   0BBB 36 01              1301 	ld	(hl),#0x01
   0BBD 21r59r02           1302 	ld	hl,#(_alphabet + 0x01d1)
   0BC0 36 01              1303 	ld	(hl),#0x01
   0BC2 21r5Ar02           1304 	ld	hl,#(_alphabet + 0x01d2)
   0BC5 36 EF              1305 	ld	(hl),#0xEF
   0BC7 21r5Br02           1306 	ld	hl,#(_alphabet + 0x01d3)
   0BCA 36 EF              1307 	ld	(hl),#0xEF
   0BCC 21r5Cr02           1308 	ld	hl,#(_alphabet + 0x01d4)
   0BCF 36 EF              1309 	ld	(hl),#0xEF
   0BD1 21r5Dr02           1310 	ld	hl,#(_alphabet + 0x01d5)
   0BD4 36 EF              1311 	ld	(hl),#0xEF
   0BD6 21r5Er02           1312 	ld	hl,#(_alphabet + 0x01d6)
   0BD9 36 EF              1313 	ld	(hl),#0xEF
   0BDB 21r5Fr02           1314 	ld	hl,#(_alphabet + 0x01d7)
   0BDE 36 EF              1315 	ld	(hl),#0xEF
   0BE0 21r60r02           1316 	ld	hl,#(_alphabet + 0x01d8)
   0BE3 36 EF              1317 	ld	(hl),#0xEF
   0BE5 21r61r02           1318 	ld	hl,#(_alphabet + 0x01d9)
   0BE8 36 EF              1319 	ld	(hl),#0xEF
   0BEA 21r62r02           1320 	ld	hl,#(_alphabet + 0x01da)
   0BED 36 EF              1321 	ld	(hl),#0xEF
   0BEF 21r63r02           1322 	ld	hl,#(_alphabet + 0x01db)
   0BF2 36 EF              1323 	ld	(hl),#0xEF
   0BF4 21r64r02           1324 	ld	hl,#(_alphabet + 0x01dc)
   0BF7 36 EF              1325 	ld	(hl),#0xEF
   0BF9 21r65r02           1326 	ld	hl,#(_alphabet + 0x01dd)
   0BFC 36 EF              1327 	ld	(hl),#0xEF
   0BFE 21r66r02           1328 	ld	hl,#(_alphabet + 0x01de)
   0C01 36 FF              1329 	ld	(hl),#0xFF
   0C03 21r67r02           1330 	ld	hl,#(_alphabet + 0x01df)
   0C06 36 FF              1331 	ld	(hl),#0xFF
   0C08 21r68r02           1332 	ld	hl,#(_alphabet + 0x01e0)
   0C0B 36 7D              1333 	ld	(hl),#0x7D
   0C0D 21r69r02           1334 	ld	hl,#(_alphabet + 0x01e1)
   0C10 36 7D              1335 	ld	(hl),#0x7D
   0C12 21r6Ar02           1336 	ld	hl,#(_alphabet + 0x01e2)
   0C15 36 7D              1337 	ld	(hl),#0x7D
   0C17 21r6Br02           1338 	ld	hl,#(_alphabet + 0x01e3)
   0C1A 36 7D              1339 	ld	(hl),#0x7D
   0C1C 21r6Cr02           1340 	ld	hl,#(_alphabet + 0x01e4)
   0C1F 36 7D              1341 	ld	(hl),#0x7D
   0C21 21r6Dr02           1342 	ld	hl,#(_alphabet + 0x01e5)
   0C24 36 7D              1343 	ld	(hl),#0x7D
   0C26 21r6Er02           1344 	ld	hl,#(_alphabet + 0x01e6)
   0C29 36 7D              1345 	ld	(hl),#0x7D
   0C2B 21r6Fr02           1346 	ld	hl,#(_alphabet + 0x01e7)
   0C2E 36 7D              1347 	ld	(hl),#0x7D
   0C30 21r70r02           1348 	ld	hl,#(_alphabet + 0x01e8)
   0C33 36 7D              1349 	ld	(hl),#0x7D
   0C35 21r71r02           1350 	ld	hl,#(_alphabet + 0x01e9)
   0C38 36 7D              1351 	ld	(hl),#0x7D
   0C3A 21r72r02           1352 	ld	hl,#(_alphabet + 0x01ea)
   0C3D 36 7D              1353 	ld	(hl),#0x7D
   0C3F 21r73r02           1354 	ld	hl,#(_alphabet + 0x01eb)
   0C42 36 7D              1355 	ld	(hl),#0x7D
   0C44 21r74r02           1356 	ld	hl,#(_alphabet + 0x01ec)
   0C47 36 83              1357 	ld	(hl),#0x83
   0C49 21r75r02           1358 	ld	hl,#(_alphabet + 0x01ed)
   0C4C 36 83              1359 	ld	(hl),#0x83
   0C4E 21r76r02           1360 	ld	hl,#(_alphabet + 0x01ee)
   0C51 36 FF              1361 	ld	(hl),#0xFF
   0C53 21r77r02           1362 	ld	hl,#(_alphabet + 0x01ef)
   0C56 36 FF              1363 	ld	(hl),#0xFF
   0C58 21r78r02           1364 	ld	hl,#(_alphabet + 0x01f0)
   0C5B 36 7D              1365 	ld	(hl),#0x7D
   0C5D 21r79r02           1366 	ld	hl,#(_alphabet + 0x01f1)
   0C60 36 7D              1367 	ld	(hl),#0x7D
   0C62 21r7Ar02           1368 	ld	hl,#(_alphabet + 0x01f2)
   0C65 36 7D              1369 	ld	(hl),#0x7D
   0C67 21r7Br02           1370 	ld	hl,#(_alphabet + 0x01f3)
   0C6A 36 7D              1371 	ld	(hl),#0x7D
   0C6C 21r7Cr02           1372 	ld	hl,#(_alphabet + 0x01f4)
   0C6F 36 BB              1373 	ld	(hl),#0xBB
   0C71 21r7Dr02           1374 	ld	hl,#(_alphabet + 0x01f5)
   0C74 36 BB              1375 	ld	(hl),#0xBB
   0C76 21r7Er02           1376 	ld	hl,#(_alphabet + 0x01f6)
   0C79 36 BB              1377 	ld	(hl),#0xBB
   0C7B 21r7Fr02           1378 	ld	hl,#(_alphabet + 0x01f7)
   0C7E 36 BB              1379 	ld	(hl),#0xBB
   0C80 21r80r02           1380 	ld	hl,#(_alphabet + 0x01f8)
   0C83 36 D7              1381 	ld	(hl),#0xD7
   0C85 21r81r02           1382 	ld	hl,#(_alphabet + 0x01f9)
   0C88 36 D7              1383 	ld	(hl),#0xD7
   0C8A 21r82r02           1384 	ld	hl,#(_alphabet + 0x01fa)
   0C8D 36 D7              1385 	ld	(hl),#0xD7
   0C8F 21r83r02           1386 	ld	hl,#(_alphabet + 0x01fb)
   0C92 36 D7              1387 	ld	(hl),#0xD7
   0C94 21r84r02           1388 	ld	hl,#(_alphabet + 0x01fc)
   0C97 36 EF              1389 	ld	(hl),#0xEF
   0C99 21r85r02           1390 	ld	hl,#(_alphabet + 0x01fd)
   0C9C 36 EF              1391 	ld	(hl),#0xEF
   0C9E 21r86r02           1392 	ld	hl,#(_alphabet + 0x01fe)
   0CA1 36 FF              1393 	ld	(hl),#0xFF
   0CA3 21r87r02           1394 	ld	hl,#(_alphabet + 0x01ff)
   0CA6 36 FF              1395 	ld	(hl),#0xFF
   0CA8 21r88r02           1396 	ld	hl,#(_alphabet + 0x0200)
   0CAB 36 7D              1397 	ld	(hl),#0x7D
   0CAD 21r89r02           1398 	ld	hl,#(_alphabet + 0x0201)
   0CB0 36 7D              1399 	ld	(hl),#0x7D
   0CB2 21r8Ar02           1400 	ld	hl,#(_alphabet + 0x0202)
   0CB5 36 6D              1401 	ld	(hl),#0x6D
   0CB7 21r8Br02           1402 	ld	hl,#(_alphabet + 0x0203)
   0CBA 36 6D              1403 	ld	(hl),#0x6D
   0CBC 21r8Cr02           1404 	ld	hl,#(_alphabet + 0x0204)
   0CBF 36 55              1405 	ld	(hl),#0x55
   0CC1 21r8Dr02           1406 	ld	hl,#(_alphabet + 0x0205)
   0CC4 36 55              1407 	ld	(hl),#0x55
   0CC6 21r8Er02           1408 	ld	hl,#(_alphabet + 0x0206)
   0CC9 36 55              1409 	ld	(hl),#0x55
   0CCB 21r8Fr02           1410 	ld	hl,#(_alphabet + 0x0207)
   0CCE 36 55              1411 	ld	(hl),#0x55
   0CD0 21r90r02           1412 	ld	hl,#(_alphabet + 0x0208)
   0CD3 36 39              1413 	ld	(hl),#0x39
   0CD5 21r91r02           1414 	ld	hl,#(_alphabet + 0x0209)
   0CD8 36 39              1415 	ld	(hl),#0x39
   0CDA 21r92r02           1416 	ld	hl,#(_alphabet + 0x020a)
   0CDD 36 39              1417 	ld	(hl),#0x39
   0CDF 21r93r02           1418 	ld	hl,#(_alphabet + 0x020b)
   0CE2 36 39              1419 	ld	(hl),#0x39
   0CE4 21r94r02           1420 	ld	hl,#(_alphabet + 0x020c)
   0CE7 36 7D              1421 	ld	(hl),#0x7D
   0CE9 21r95r02           1422 	ld	hl,#(_alphabet + 0x020d)
   0CEC 36 7D              1423 	ld	(hl),#0x7D
   0CEE 21r96r02           1424 	ld	hl,#(_alphabet + 0x020e)
   0CF1 36 FF              1425 	ld	(hl),#0xFF
   0CF3 21r97r02           1426 	ld	hl,#(_alphabet + 0x020f)
   0CF6 36 FF              1427 	ld	(hl),#0xFF
   0CF8 21r98r02           1428 	ld	hl,#(_alphabet + 0x0210)
   0CFB 36 39              1429 	ld	(hl),#0x39
   0CFD 21r99r02           1430 	ld	hl,#(_alphabet + 0x0211)
   0D00 36 39              1431 	ld	(hl),#0x39
   0D02 21r9Ar02           1432 	ld	hl,#(_alphabet + 0x0212)
   0D05 36 BB              1433 	ld	(hl),#0xBB
   0D07 21r9Br02           1434 	ld	hl,#(_alphabet + 0x0213)
   0D0A 36 BB              1435 	ld	(hl),#0xBB
   0D0C 21r9Cr02           1436 	ld	hl,#(_alphabet + 0x0214)
   0D0F 36 D7              1437 	ld	(hl),#0xD7
   0D11 21r9Dr02           1438 	ld	hl,#(_alphabet + 0x0215)
   0D14 36 D7              1439 	ld	(hl),#0xD7
   0D16 21r9Er02           1440 	ld	hl,#(_alphabet + 0x0216)
   0D19 36 EF              1441 	ld	(hl),#0xEF
   0D1B 21r9Fr02           1442 	ld	hl,#(_alphabet + 0x0217)
   0D1E 36 EF              1443 	ld	(hl),#0xEF
   0D20 21rA0r02           1444 	ld	hl,#(_alphabet + 0x0218)
   0D23 36 D7              1445 	ld	(hl),#0xD7
   0D25 21rA1r02           1446 	ld	hl,#(_alphabet + 0x0219)
   0D28 36 D7              1447 	ld	(hl),#0xD7
   0D2A 21rA2r02           1448 	ld	hl,#(_alphabet + 0x021a)
   0D2D 36 BB              1449 	ld	(hl),#0xBB
   0D2F 21rA3r02           1450 	ld	hl,#(_alphabet + 0x021b)
   0D32 36 BB              1451 	ld	(hl),#0xBB
   0D34 21rA4r02           1452 	ld	hl,#(_alphabet + 0x021c)
   0D37 36 39              1453 	ld	(hl),#0x39
   0D39 21rA5r02           1454 	ld	hl,#(_alphabet + 0x021d)
   0D3C 36 39              1455 	ld	(hl),#0x39
   0D3E 21rA6r02           1456 	ld	hl,#(_alphabet + 0x021e)
   0D41 36 FF              1457 	ld	(hl),#0xFF
   0D43 21rA7r02           1458 	ld	hl,#(_alphabet + 0x021f)
   0D46 36 FF              1459 	ld	(hl),#0xFF
   0D48 21rA8r02           1460 	ld	hl,#(_alphabet + 0x0220)
   0D4B 36 7D              1461 	ld	(hl),#0x7D
   0D4D 21rA9r02           1462 	ld	hl,#(_alphabet + 0x0221)
   0D50 36 7D              1463 	ld	(hl),#0x7D
   0D52 21rAAr02           1464 	ld	hl,#(_alphabet + 0x0222)
   0D55 36 BB              1465 	ld	(hl),#0xBB
   0D57 21rABr02           1466 	ld	hl,#(_alphabet + 0x0223)
   0D5A 36 BB              1467 	ld	(hl),#0xBB
   0D5C 21rACr02           1468 	ld	hl,#(_alphabet + 0x0224)
   0D5F 36 D7              1469 	ld	(hl),#0xD7
   0D61 21rADr02           1470 	ld	hl,#(_alphabet + 0x0225)
   0D64 36 D7              1471 	ld	(hl),#0xD7
   0D66 21rAEr02           1472 	ld	hl,#(_alphabet + 0x0226)
   0D69 36 EF              1473 	ld	(hl),#0xEF
   0D6B 21rAFr02           1474 	ld	hl,#(_alphabet + 0x0227)
   0D6E 36 EF              1475 	ld	(hl),#0xEF
   0D70 21rB0r02           1476 	ld	hl,#(_alphabet + 0x0228)
   0D73 36 EF              1477 	ld	(hl),#0xEF
   0D75 21rB1r02           1478 	ld	hl,#(_alphabet + 0x0229)
   0D78 36 EF              1479 	ld	(hl),#0xEF
   0D7A 21rB2r02           1480 	ld	hl,#(_alphabet + 0x022a)
   0D7D 36 EF              1481 	ld	(hl),#0xEF
   0D7F 21rB3r02           1482 	ld	hl,#(_alphabet + 0x022b)
   0D82 36 EF              1483 	ld	(hl),#0xEF
   0D84 21rB4r02           1484 	ld	hl,#(_alphabet + 0x022c)
   0D87 36 EF              1485 	ld	(hl),#0xEF
   0D89 21rB5r02           1486 	ld	hl,#(_alphabet + 0x022d)
   0D8C 36 EF              1487 	ld	(hl),#0xEF
   0D8E 21rB6r02           1488 	ld	hl,#(_alphabet + 0x022e)
   0D91 36 FF              1489 	ld	(hl),#0xFF
   0D93 21rB7r02           1490 	ld	hl,#(_alphabet + 0x022f)
   0D96 36 FF              1491 	ld	(hl),#0xFF
   0D98 21rB8r02           1492 	ld	hl,#(_alphabet + 0x0230)
   0D9B 36 01              1493 	ld	(hl),#0x01
   0D9D 21rB9r02           1494 	ld	hl,#(_alphabet + 0x0231)
   0DA0 36 01              1495 	ld	(hl),#0x01
   0DA2 21rBAr02           1496 	ld	hl,#(_alphabet + 0x0232)
   0DA5 36 FB              1497 	ld	(hl),#0xFB
   0DA7 21rBBr02           1498 	ld	hl,#(_alphabet + 0x0233)
   0DAA 36 FB              1499 	ld	(hl),#0xFB
   0DAC 21rBCr02           1500 	ld	hl,#(_alphabet + 0x0234)
   0DAF 36 F7              1501 	ld	(hl),#0xF7
   0DB1 21rBDr02           1502 	ld	hl,#(_alphabet + 0x0235)
   0DB4 36 F7              1503 	ld	(hl),#0xF7
   0DB6 21rBEr02           1504 	ld	hl,#(_alphabet + 0x0236)
   0DB9 36 EF              1505 	ld	(hl),#0xEF
   0DBB 21rBFr02           1506 	ld	hl,#(_alphabet + 0x0237)
   0DBE 36 EF              1507 	ld	(hl),#0xEF
   0DC0 21rC0r02           1508 	ld	hl,#(_alphabet + 0x0238)
   0DC3 36 DF              1509 	ld	(hl),#0xDF
   0DC5 21rC1r02           1510 	ld	hl,#(_alphabet + 0x0239)
   0DC8 36 DF              1511 	ld	(hl),#0xDF
   0DCA 21rC2r02           1512 	ld	hl,#(_alphabet + 0x023a)
   0DCD 36 BF              1513 	ld	(hl),#0xBF
   0DCF 21rC3r02           1514 	ld	hl,#(_alphabet + 0x023b)
   0DD2 36 BF              1515 	ld	(hl),#0xBF
   0DD4 21rC4r02           1516 	ld	hl,#(_alphabet + 0x023c)
   0DD7 36 01              1517 	ld	(hl),#0x01
   0DD9 21rC5r02           1518 	ld	hl,#(_alphabet + 0x023d)
   0DDC 36 01              1519 	ld	(hl),#0x01
   0DDE 21rC6r02           1520 	ld	hl,#(_alphabet + 0x023e)
   0DE1 36 FF              1521 	ld	(hl),#0xFF
   0DE3 21rC7r02           1522 	ld	hl,#(_alphabet + 0x023f)
   0DE6 36 FF              1523 	ld	(hl),#0xFF
   0DE8 21rC8r02           1524 	ld	hl,#(_alphabet + 0x0240)
   0DEB 36 FF              1525 	ld	(hl),#0xFF
   0DED 21rC9r02           1526 	ld	hl,#(_alphabet + 0x0241)
   0DF0 36 FF              1527 	ld	(hl),#0xFF
   0DF2 21rCAr02           1528 	ld	hl,#(_alphabet + 0x0242)
   0DF5 36 FF              1529 	ld	(hl),#0xFF
   0DF7 21rCBr02           1530 	ld	hl,#(_alphabet + 0x0243)
   0DFA 36 FF              1531 	ld	(hl),#0xFF
   0DFC 21rCCr02           1532 	ld	hl,#(_alphabet + 0x0244)
   0DFF 36 FF              1533 	ld	(hl),#0xFF
   0E01 21rCDr02           1534 	ld	hl,#(_alphabet + 0x0245)
   0E04 36 FF              1535 	ld	(hl),#0xFF
   0E06 21rCEr02           1536 	ld	hl,#(_alphabet + 0x0246)
   0E09 36 FF              1537 	ld	(hl),#0xFF
   0E0B 21rCFr02           1538 	ld	hl,#(_alphabet + 0x0247)
   0E0E 36 FF              1539 	ld	(hl),#0xFF
   0E10 21rD0r02           1540 	ld	hl,#(_alphabet + 0x0248)
   0E13 36 FF              1541 	ld	(hl),#0xFF
   0E15 21rD1r02           1542 	ld	hl,#(_alphabet + 0x0249)
   0E18 36 FF              1543 	ld	(hl),#0xFF
   0E1A 21rD2r02           1544 	ld	hl,#(_alphabet + 0x024a)
   0E1D 36 FF              1545 	ld	(hl),#0xFF
   0E1F 21rD3r02           1546 	ld	hl,#(_alphabet + 0x024b)
   0E22 36 FF              1547 	ld	(hl),#0xFF
   0E24 21rD4r02           1548 	ld	hl,#(_alphabet + 0x024c)
   0E27 36 FF              1549 	ld	(hl),#0xFF
   0E29 21rD5r02           1550 	ld	hl,#(_alphabet + 0x024d)
   0E2C 36 FF              1551 	ld	(hl),#0xFF
   0E2E 21rD6r02           1552 	ld	hl,#(_alphabet + 0x024e)
   0E31 36 FF              1553 	ld	(hl),#0xFF
   0E33 21rD7r02           1554 	ld	hl,#(_alphabet + 0x024f)
   0E36 36 FF              1555 	ld	(hl),#0xFF
   0E38 21rD8r02           1556 	ld	hl,#(_alphabet + 0x0250)
   0E3B 36 FF              1557 	ld	(hl),#0xFF
   0E3D 21rD9r02           1558 	ld	hl,#(_alphabet + 0x0251)
   0E40 36 FF              1559 	ld	(hl),#0xFF
   0E42 21rDAr02           1560 	ld	hl,#(_alphabet + 0x0252)
   0E45 36 FF              1561 	ld	(hl),#0xFF
   0E47 21rDBr02           1562 	ld	hl,#(_alphabet + 0x0253)
   0E4A 36 FF              1563 	ld	(hl),#0xFF
   0E4C 21rDCr02           1564 	ld	hl,#(_alphabet + 0x0254)
   0E4F 36 9F              1565 	ld	(hl),#0x9F
   0E51 21rDDr02           1566 	ld	hl,#(_alphabet + 0x0255)
   0E54 36 9F              1567 	ld	(hl),#0x9F
   0E56 21rDEr02           1568 	ld	hl,#(_alphabet + 0x0256)
   0E59 36 6D              1569 	ld	(hl),#0x6D
   0E5B 21rDFr02           1570 	ld	hl,#(_alphabet + 0x0257)
   0E5E 36 6D              1571 	ld	(hl),#0x6D
   0E60 21rE0r02           1572 	ld	hl,#(_alphabet + 0x0258)
   0E63 36 F3              1573 	ld	(hl),#0xF3
   0E65 21rE1r02           1574 	ld	hl,#(_alphabet + 0x0259)
   0E68 36 F3              1575 	ld	(hl),#0xF3
   0E6A 21rE2r02           1576 	ld	hl,#(_alphabet + 0x025a)
   0E6D 36 FF              1577 	ld	(hl),#0xFF
   0E6F 21rE3r02           1578 	ld	hl,#(_alphabet + 0x025b)
   0E72 36 FF              1579 	ld	(hl),#0xFF
   0E74 21rE4r02           1580 	ld	hl,#(_alphabet + 0x025c)
   0E77 36 FF              1581 	ld	(hl),#0xFF
   0E79 21rE5r02           1582 	ld	hl,#(_alphabet + 0x025d)
   0E7C 36 FF              1583 	ld	(hl),#0xFF
   0E7E 21rE6r02           1584 	ld	hl,#(_alphabet + 0x025e)
   0E81 36 FF              1585 	ld	(hl),#0xFF
   0E83 21rE7r02           1586 	ld	hl,#(_alphabet + 0x025f)
   0E86 36 FF              1587 	ld	(hl),#0xFF
   0E88 21rE8r02           1588 	ld	hl,#(_alphabet + 0x0260)
   0E8B 36 FF              1589 	ld	(hl),#0xFF
   0E8D 21rE9r02           1590 	ld	hl,#(_alphabet + 0x0261)
   0E90 36 FF              1591 	ld	(hl),#0xFF
   0E92 21rEAr02           1592 	ld	hl,#(_alphabet + 0x0262)
   0E95 36 FF              1593 	ld	(hl),#0xFF
   0E97 21rEBr02           1594 	ld	hl,#(_alphabet + 0x0263)
   0E9A 36 FF              1595 	ld	(hl),#0xFF
   0E9C 21rECr02           1596 	ld	hl,#(_alphabet + 0x0264)
   0E9F 36 FF              1597 	ld	(hl),#0xFF
   0EA1 21rEDr02           1598 	ld	hl,#(_alphabet + 0x0265)
   0EA4 36 FF              1599 	ld	(hl),#0xFF
   0EA6 21rEEr02           1600 	ld	hl,#(_alphabet + 0x0266)
   0EA9 36 FF              1601 	ld	(hl),#0xFF
   0EAB 21rEFr02           1602 	ld	hl,#(_alphabet + 0x0267)
   0EAE 36 FF              1603 	ld	(hl),#0xFF
   0EB0 21rF0r02           1604 	ld	hl,#(_alphabet + 0x0268)
   0EB3 36 FF              1605 	ld	(hl),#0xFF
   0EB5 21rF1r02           1606 	ld	hl,#(_alphabet + 0x0269)
   0EB8 36 FF              1607 	ld	(hl),#0xFF
   0EBA 21rF2r02           1608 	ld	hl,#(_alphabet + 0x026a)
   0EBD 36 FF              1609 	ld	(hl),#0xFF
   0EBF 21rF3r02           1610 	ld	hl,#(_alphabet + 0x026b)
   0EC2 36 FF              1611 	ld	(hl),#0xFF
   0EC4 21rF4r02           1612 	ld	hl,#(_alphabet + 0x026c)
   0EC7 36 01              1613 	ld	(hl),#0x01
   0EC9 21rF5r02           1614 	ld	hl,#(_alphabet + 0x026d)
   0ECC 36 01              1615 	ld	(hl),#0x01
   0ECE 21rF6r02           1616 	ld	hl,#(_alphabet + 0x026e)
   0ED1 36 FF              1617 	ld	(hl),#0xFF
   0ED3 21rF7r02           1618 	ld	hl,#(_alphabet + 0x026f)
   0ED6 36 FF              1619 	ld	(hl),#0xFF
   0ED8 21rF8r02           1620 	ld	hl,#(_alphabet + 0x0270)
   0EDB 36 EF              1621 	ld	(hl),#0xEF
   0EDD 21rF9r02           1622 	ld	hl,#(_alphabet + 0x0271)
   0EE0 36 EF              1623 	ld	(hl),#0xEF
   0EE2 21rFAr02           1624 	ld	hl,#(_alphabet + 0x0272)
   0EE5 36 EF              1625 	ld	(hl),#0xEF
   0EE7 21rFBr02           1626 	ld	hl,#(_alphabet + 0x0273)
   0EEA 36 EF              1627 	ld	(hl),#0xEF
   0EEC 21rFCr02           1628 	ld	hl,#(_alphabet + 0x0274)
   0EEF 36 EF              1629 	ld	(hl),#0xEF
   0EF1 21rFDr02           1630 	ld	hl,#(_alphabet + 0x0275)
   0EF4 36 EF              1631 	ld	(hl),#0xEF
   0EF6 21rFEr02           1632 	ld	hl,#(_alphabet + 0x0276)
   0EF9 36 EF              1633 	ld	(hl),#0xEF
   0EFB 21rFFr02           1634 	ld	hl,#(_alphabet + 0x0277)
   0EFE 36 EF              1635 	ld	(hl),#0xEF
   0F00 21r00r03           1636 	ld	hl,#(_alphabet + 0x0278)
   0F03 36 EF              1637 	ld	(hl),#0xEF
   0F05 21r01r03           1638 	ld	hl,#(_alphabet + 0x0279)
   0F08 36 EF              1639 	ld	(hl),#0xEF
   0F0A 21r02r03           1640 	ld	hl,#(_alphabet + 0x027a)
   0F0D 36 FF              1641 	ld	(hl),#0xFF
   0F0F 21r03r03           1642 	ld	hl,#(_alphabet + 0x027b)
   0F12 36 FF              1643 	ld	(hl),#0xFF
   0F14 21r04r03           1644 	ld	hl,#(_alphabet + 0x027c)
   0F17 36 EF              1645 	ld	(hl),#0xEF
   0F19 21r05r03           1646 	ld	hl,#(_alphabet + 0x027d)
   0F1C 36 EF              1647 	ld	(hl),#0xEF
   0F1E 21r06r03           1648 	ld	hl,#(_alphabet + 0x027e)
   0F21 36 FF              1649 	ld	(hl),#0xFF
   0F23 21r07r03           1650 	ld	hl,#(_alphabet + 0x027f)
   0F26 36 FF              1651 	ld	(hl),#0xFF
   0F28 21r08r03           1652 	ld	hl,#(_alphabet + 0x0280)
   0F2B 36 C3              1653 	ld	(hl),#0xC3
   0F2D 21r09r03           1654 	ld	hl,#(_alphabet + 0x0281)
   0F30 36 C3              1655 	ld	(hl),#0xC3
   0F32 21r0Ar03           1656 	ld	hl,#(_alphabet + 0x0282)
   0F35 36 BD              1657 	ld	(hl),#0xBD
   0F37 21r0Br03           1658 	ld	hl,#(_alphabet + 0x0283)
   0F3A 36 BD              1659 	ld	(hl),#0xBD
   0F3C 21r0Cr03           1660 	ld	hl,#(_alphabet + 0x0284)
   0F3F 36 BD              1661 	ld	(hl),#0xBD
   0F41 21r0Dr03           1662 	ld	hl,#(_alphabet + 0x0285)
   0F44 36 BD              1663 	ld	(hl),#0xBD
   0F46 21r0Er03           1664 	ld	hl,#(_alphabet + 0x0286)
   0F49 36 E3              1665 	ld	(hl),#0xE3
   0F4B 21r0Fr03           1666 	ld	hl,#(_alphabet + 0x0287)
   0F4E 36 E3              1667 	ld	(hl),#0xE3
   0F50 21r10r03           1668 	ld	hl,#(_alphabet + 0x0288)
   0F53 36 EF              1669 	ld	(hl),#0xEF
   0F55 21r11r03           1670 	ld	hl,#(_alphabet + 0x0289)
   0F58 36 EF              1671 	ld	(hl),#0xEF
   0F5A 21r12r03           1672 	ld	hl,#(_alphabet + 0x028a)
   0F5D 36 FF              1673 	ld	(hl),#0xFF
   0F5F 21r13r03           1674 	ld	hl,#(_alphabet + 0x028b)
   0F62 36 FF              1675 	ld	(hl),#0xFF
   0F64 21r14r03           1676 	ld	hl,#(_alphabet + 0x028c)
   0F67 36 EF              1677 	ld	(hl),#0xEF
   0F69 21r15r03           1678 	ld	hl,#(_alphabet + 0x028d)
   0F6C 36 EF              1679 	ld	(hl),#0xEF
   0F6E 21r16r03           1680 	ld	hl,#(_alphabet + 0x028e)
   0F71 36 FF              1681 	ld	(hl),#0xFF
   0F73 21r17r03           1682 	ld	hl,#(_alphabet + 0x028f)
   0F76 36 FF              1683 	ld	(hl),#0xFF
   0F78 21r18r03           1684 	ld	hl,#(_alphabet + 0x0290)
   0F7B 36 E7              1685 	ld	(hl),#0xE7
   0F7D 21r19r03           1686 	ld	hl,#(_alphabet + 0x0291)
   0F80 36 E7              1687 	ld	(hl),#0xE7
   0F82 21r1Ar03           1688 	ld	hl,#(_alphabet + 0x0292)
   0F85 36 E7              1689 	ld	(hl),#0xE7
   0F87 21r1Br03           1690 	ld	hl,#(_alphabet + 0x0293)
   0F8A 36 E7              1691 	ld	(hl),#0xE7
   0F8C 21r1Cr03           1692 	ld	hl,#(_alphabet + 0x0294)
   0F8F 36 F7              1693 	ld	(hl),#0xF7
   0F91 21r1Dr03           1694 	ld	hl,#(_alphabet + 0x0295)
   0F94 36 F7              1695 	ld	(hl),#0xF7
   0F96 21r1Er03           1696 	ld	hl,#(_alphabet + 0x0296)
   0F99 36 EF              1697 	ld	(hl),#0xEF
   0F9B 21r1Fr03           1698 	ld	hl,#(_alphabet + 0x0297)
   0F9E 36 EF              1699 	ld	(hl),#0xEF
   0FA0 21r20r03           1700 	ld	hl,#(_alphabet + 0x0298)
   0FA3 36 FF              1701 	ld	(hl),#0xFF
   0FA5 21r21r03           1702 	ld	hl,#(_alphabet + 0x0299)
   0FA8 36 FF              1703 	ld	(hl),#0xFF
   0FAA 21r22r03           1704 	ld	hl,#(_alphabet + 0x029a)
   0FAD 36 FF              1705 	ld	(hl),#0xFF
   0FAF 21r23r03           1706 	ld	hl,#(_alphabet + 0x029b)
   0FB2 36 FF              1707 	ld	(hl),#0xFF
   0FB4 21r24r03           1708 	ld	hl,#(_alphabet + 0x029c)
   0FB7 36 FF              1709 	ld	(hl),#0xFF
   0FB9 21r25r03           1710 	ld	hl,#(_alphabet + 0x029d)
   0FBC 36 FF              1711 	ld	(hl),#0xFF
   0FBE 21r26r03           1712 	ld	hl,#(_alphabet + 0x029e)
   0FC1 36 FF              1713 	ld	(hl),#0xFF
   0FC3 21r27r03           1714 	ld	hl,#(_alphabet + 0x029f)
   0FC6 36 FF              1715 	ld	(hl),#0xFF
   0FC8 21r28r03           1716 	ld	hl,#(_alphabet + 0x02a0)
   0FCB 36 FF              1717 	ld	(hl),#0xFF
   0FCD 21r29r03           1718 	ld	hl,#(_alphabet + 0x02a1)
   0FD0 36 FF              1719 	ld	(hl),#0xFF
   0FD2 21r2Ar03           1720 	ld	hl,#(_alphabet + 0x02a2)
   0FD5 36 FF              1721 	ld	(hl),#0xFF
   0FD7 21r2Br03           1722 	ld	hl,#(_alphabet + 0x02a3)
   0FDA 36 FF              1723 	ld	(hl),#0xFF
   0FDC 21r2Cr03           1724 	ld	hl,#(_alphabet + 0x02a4)
   0FDF 36 FF              1725 	ld	(hl),#0xFF
   0FE1 21r2Dr03           1726 	ld	hl,#(_alphabet + 0x02a5)
   0FE4 36 FF              1727 	ld	(hl),#0xFF
   0FE6 21r2Er03           1728 	ld	hl,#(_alphabet + 0x02a6)
   0FE9 36 FF              1729 	ld	(hl),#0xFF
   0FEB 21r2Fr03           1730 	ld	hl,#(_alphabet + 0x02a7)
   0FEE 36 FF              1731 	ld	(hl),#0xFF
   0FF0 21r30r03           1732 	ld	hl,#(_alphabet + 0x02a8)
   0FF3 36 FF              1733 	ld	(hl),#0xFF
   0FF5 21r31r03           1734 	ld	hl,#(_alphabet + 0x02a9)
   0FF8 36 FF              1735 	ld	(hl),#0xFF
   0FFA 21r32r03           1736 	ld	hl,#(_alphabet + 0x02aa)
   0FFD 36 E7              1737 	ld	(hl),#0xE7
   0FFF 21r33r03           1738 	ld	hl,#(_alphabet + 0x02ab)
   1002 36 E7              1739 	ld	(hl),#0xE7
   1004 21r34r03           1740 	ld	hl,#(_alphabet + 0x02ac)
   1007 36 E7              1741 	ld	(hl),#0xE7
   1009 21r35r03           1742 	ld	hl,#(_alphabet + 0x02ad)
   100C 36 E7              1743 	ld	(hl),#0xE7
   100E 21r36r03           1744 	ld	hl,#(_alphabet + 0x02ae)
   1011 36 FF              1745 	ld	(hl),#0xFF
   1013 21r37r03           1746 	ld	hl,#(_alphabet + 0x02af)
   1016 36 FF              1747 	ld	(hl),#0xFF
   1018 21r38r03           1748 	ld	hl,#(_alphabet + 0x02b0)
   101B 36 FF              1749 	ld	(hl),#0xFF
   101D 21r39r03           1750 	ld	hl,#(_alphabet + 0x02b1)
   1020 36 FF              1751 	ld	(hl),#0xFF
   1022 21r3Ar03           1752 	ld	hl,#(_alphabet + 0x02b2)
   1025 36 FF              1753 	ld	(hl),#0xFF
   1027 21r3Br03           1754 	ld	hl,#(_alphabet + 0x02b3)
   102A 36 FF              1755 	ld	(hl),#0xFF
   102C 21r3Cr03           1756 	ld	hl,#(_alphabet + 0x02b4)
   102F 36 FF              1757 	ld	(hl),#0xFF
   1031 21r3Dr03           1758 	ld	hl,#(_alphabet + 0x02b5)
   1034 36 FF              1759 	ld	(hl),#0xFF
   1036 21r3Er03           1760 	ld	hl,#(_alphabet + 0x02b6)
   1039 36 E7              1761 	ld	(hl),#0xE7
   103B 21r3Fr03           1762 	ld	hl,#(_alphabet + 0x02b7)
   103E 36 E7              1763 	ld	(hl),#0xE7
   1040 21r40r03           1764 	ld	hl,#(_alphabet + 0x02b8)
   1043 36 E7              1765 	ld	(hl),#0xE7
   1045 21r41r03           1766 	ld	hl,#(_alphabet + 0x02b9)
   1048 36 E7              1767 	ld	(hl),#0xE7
   104A 21r42r03           1768 	ld	hl,#(_alphabet + 0x02ba)
   104D 36 F7              1769 	ld	(hl),#0xF7
   104F 21r43r03           1770 	ld	hl,#(_alphabet + 0x02bb)
   1052 36 F7              1771 	ld	(hl),#0xF7
   1054 21r44r03           1772 	ld	hl,#(_alphabet + 0x02bc)
   1057 36 EF              1773 	ld	(hl),#0xEF
   1059 21r45r03           1774 	ld	hl,#(_alphabet + 0x02bd)
   105C 36 EF              1775 	ld	(hl),#0xEF
   105E 21r46r03           1776 	ld	hl,#(_alphabet + 0x02be)
   1061 36 FF              1777 	ld	(hl),#0xFF
   1063 21r47r03           1778 	ld	hl,#(_alphabet + 0x02bf)
   1066 36 FF              1779 	ld	(hl),#0xFF
   1068 21r48r03           1780 	ld	hl,#(_alphabet + 0x02c0)
   106B 36 FF              1781 	ld	(hl),#0xFF
   106D 21r49r03           1782 	ld	hl,#(_alphabet + 0x02c1)
   1070 36 FF              1783 	ld	(hl),#0xFF
   1072 21r4Ar03           1784 	ld	hl,#(_alphabet + 0x02c2)
   1075 36 FF              1785 	ld	(hl),#0xFF
   1077 21r4Br03           1786 	ld	hl,#(_alphabet + 0x02c3)
   107A 36 FF              1787 	ld	(hl),#0xFF
   107C 21r4Cr03           1788 	ld	hl,#(_alphabet + 0x02c4)
   107F 36 FF              1789 	ld	(hl),#0xFF
   1081 21r4Dr03           1790 	ld	hl,#(_alphabet + 0x02c5)
   1084 36 FF              1791 	ld	(hl),#0xFF
   1086 21r4Er03           1792 	ld	hl,#(_alphabet + 0x02c6)
   1089 36 FF              1793 	ld	(hl),#0xFF
   108B 21r4Fr03           1794 	ld	hl,#(_alphabet + 0x02c7)
   108E 36 FF              1795 	ld	(hl),#0xFF
   1090 21r50r03           1796 	ld	hl,#(_alphabet + 0x02c8)
   1093 36 FF              1797 	ld	(hl),#0xFF
   1095 21r51r03           1798 	ld	hl,#(_alphabet + 0x02c9)
   1098 36 FF              1799 	ld	(hl),#0xFF
   109A 21r52r03           1800 	ld	hl,#(_alphabet + 0x02ca)
   109D 36 FF              1801 	ld	(hl),#0xFF
   109F 21r53r03           1802 	ld	hl,#(_alphabet + 0x02cb)
   10A2 36 FF              1803 	ld	(hl),#0xFF
   10A4 21r54r03           1804 	ld	hl,#(_alphabet + 0x02cc)
   10A7 36 AB              1805 	ld	(hl),#0xAB
   10A9 21r55r03           1806 	ld	hl,#(_alphabet + 0x02cd)
   10AC 36 AB              1807 	ld	(hl),#0xAB
   10AE 21r56r03           1808 	ld	hl,#(_alphabet + 0x02ce)
   10B1 36 FF              1809 	ld	(hl),#0xFF
   10B3 21r57r03           1810 	ld	hl,#(_alphabet + 0x02cf)
   10B6 36 FF              1811 	ld	(hl),#0xFF
   10B8 21r58r03           1812 	ld	hl,#(_alphabet + 0x02d0)
   10BB 36 FF              1813 	ld	(hl),#0xFF
   10BD 21r59r03           1814 	ld	hl,#(_alphabet + 0x02d1)
   10C0 36 FF              1815 	ld	(hl),#0xFF
   10C2 21r5Ar03           1816 	ld	hl,#(_alphabet + 0x02d2)
   10C5 36 FF              1817 	ld	(hl),#0xFF
   10C7 21r5Br03           1818 	ld	hl,#(_alphabet + 0x02d3)
   10CA 36 FF              1819 	ld	(hl),#0xFF
   10CC 21r5Cr03           1820 	ld	hl,#(_alphabet + 0x02d4)
   10CF 36 FF              1821 	ld	(hl),#0xFF
   10D1 21r5Dr03           1822 	ld	hl,#(_alphabet + 0x02d5)
   10D4 36 FF              1823 	ld	(hl),#0xFF
   10D6 21r5Er03           1824 	ld	hl,#(_alphabet + 0x02d6)
   10D9 36 EF              1825 	ld	(hl),#0xEF
   10DB 21r5Fr03           1826 	ld	hl,#(_alphabet + 0x02d7)
   10DE 36 EF              1827 	ld	(hl),#0xEF
   10E0 21r60r03           1828 	ld	hl,#(_alphabet + 0x02d8)
   10E3 36 FF              1829 	ld	(hl),#0xFF
   10E5 21r61r03           1830 	ld	hl,#(_alphabet + 0x02d9)
   10E8 36 FF              1831 	ld	(hl),#0xFF
   10EA 21r62r03           1832 	ld	hl,#(_alphabet + 0x02da)
   10ED 36 EF              1833 	ld	(hl),#0xEF
   10EF 21r63r03           1834 	ld	hl,#(_alphabet + 0x02db)
   10F2 36 EF              1835 	ld	(hl),#0xEF
   10F4 21r64r03           1836 	ld	hl,#(_alphabet + 0x02dc)
   10F7 36 FF              1837 	ld	(hl),#0xFF
   10F9 21r65r03           1838 	ld	hl,#(_alphabet + 0x02dd)
   10FC 36 FF              1839 	ld	(hl),#0xFF
   10FE 21r66r03           1840 	ld	hl,#(_alphabet + 0x02de)
   1101 36 FF              1841 	ld	(hl),#0xFF
   1103 21r67r03           1842 	ld	hl,#(_alphabet + 0x02df)
   1106 36 FF              1843 	ld	(hl),#0xFF
                           1844 ;main.c:255: unsigned char arrow_tile[] =
   1108 21r68r03           1845 	ld	hl,#_arrow_tile
   110B 36 FF              1846 	ld	(hl),#0xFF
   110D 21r69r03           1847 	ld	hl,#(_arrow_tile + 0x0001)
   1110 36 FF              1848 	ld	(hl),#0xFF
   1112 21r6Ar03           1849 	ld	hl,#(_arrow_tile + 0x0002)
   1115 36 FF              1850 	ld	(hl),#0xFF
   1117 21r6Br03           1851 	ld	hl,#(_arrow_tile + 0x0003)
   111A 36 FF              1852 	ld	(hl),#0xFF
   111C 21r6Cr03           1853 	ld	hl,#(_arrow_tile + 0x0004)
   111F 36 FF              1854 	ld	(hl),#0xFF
   1121 21r6Dr03           1855 	ld	hl,#(_arrow_tile + 0x0005)
   1124 36 FF              1856 	ld	(hl),#0xFF
   1126 21r6Er03           1857 	ld	hl,#(_arrow_tile + 0x0006)
   1129 36 FF              1858 	ld	(hl),#0xFF
   112B 21r6Fr03           1859 	ld	hl,#(_arrow_tile + 0x0007)
   112E 36 81              1860 	ld	(hl),#0x81
   1130 21r70r03           1861 	ld	hl,#(_arrow_tile + 0x0008)
   1133 36 81              1862 	ld	(hl),#0x81
   1135 21r71r03           1863 	ld	hl,#(_arrow_tile + 0x0009)
   1138 36 81              1864 	ld	(hl),#0x81
   113A 21r72r03           1865 	ld	hl,#(_arrow_tile + 0x000a)
   113D 36 81              1866 	ld	(hl),#0x81
   113F 21r73r03           1867 	ld	hl,#(_arrow_tile + 0x000b)
   1142 36 81              1868 	ld	(hl),#0x81
   1144 21r74r03           1869 	ld	hl,#(_arrow_tile + 0x000c)
   1147 36 C3              1870 	ld	(hl),#0xC3
   1149 21r75r03           1871 	ld	hl,#(_arrow_tile + 0x000d)
   114C 36 C3              1872 	ld	(hl),#0xC3
   114E 21r76r03           1873 	ld	hl,#(_arrow_tile + 0x000e)
   1151 36 E7              1874 	ld	(hl),#0xE7
   1153 21r77r03           1875 	ld	hl,#(_arrow_tile + 0x000f)
   1156 36 E7              1876 	ld	(hl),#0xE7
   1158 21r78r03           1877 	ld	hl,#(_arrow_tile + 0x0010)
   115B 36 FF              1878 	ld	(hl),#0xFF
   115D 21r79r03           1879 	ld	hl,#(_arrow_tile + 0x0011)
   1160 36 FF              1880 	ld	(hl),#0xFF
   1162 21r7Ar03           1881 	ld	hl,#(_arrow_tile + 0x0012)
   1165 36 FF              1882 	ld	(hl),#0xFF
   1167 21r7Br03           1883 	ld	hl,#(_arrow_tile + 0x0013)
   116A 36 FF              1884 	ld	(hl),#0xFF
   116C 21r7Cr03           1885 	ld	hl,#(_arrow_tile + 0x0014)
   116F 36 FF              1886 	ld	(hl),#0xFF
   1171 21r7Dr03           1887 	ld	hl,#(_arrow_tile + 0x0015)
   1174 36 81              1888 	ld	(hl),#0x81
   1176 21r7Er03           1889 	ld	hl,#(_arrow_tile + 0x0016)
   1179 36 81              1890 	ld	(hl),#0x81
   117B 21r7Fr03           1891 	ld	hl,#(_arrow_tile + 0x0017)
   117E 36 81              1892 	ld	(hl),#0x81
   1180 21r80r03           1893 	ld	hl,#(_arrow_tile + 0x0018)
   1183 36 81              1894 	ld	(hl),#0x81
   1185 21r81r03           1895 	ld	hl,#(_arrow_tile + 0x0019)
   1188 36 81              1896 	ld	(hl),#0x81
   118A 21r82r03           1897 	ld	hl,#(_arrow_tile + 0x001a)
   118D 36 C3              1898 	ld	(hl),#0xC3
   118F 21r83r03           1899 	ld	hl,#(_arrow_tile + 0x001b)
   1192 36 C3              1900 	ld	(hl),#0xC3
   1194 21r84r03           1901 	ld	hl,#(_arrow_tile + 0x001c)
   1197 36 E7              1902 	ld	(hl),#0xE7
   1199 21r85r03           1903 	ld	hl,#(_arrow_tile + 0x001d)
   119C 36 E7              1904 	ld	(hl),#0xE7
   119E 21r86r03           1905 	ld	hl,#(_arrow_tile + 0x001e)
   11A1 36 FF              1906 	ld	(hl),#0xFF
   11A3 21r87r03           1907 	ld	hl,#(_arrow_tile + 0x001f)
   11A6 36 FF              1908 	ld	(hl),#0xFF
                           1909 ;main.c:283: unsigned char text_map[] =
   11A8 21r88r03           1910 	ld	hl,#_text_map
   11AB 36 16              1911 	ld	(hl),#0x16
   11AD 21r89r03           1912 	ld	hl,#(_text_map + 0x0001)
   11B0 36 17              1913 	ld	(hl),#0x17
   11B2 21r8Ar03           1914 	ld	hl,#(_text_map + 0x0002)
   11B5 36 29              1915 	ld	(hl),#0x29
   11B7 21r8Br03           1916 	ld	hl,#(_text_map + 0x0003)
   11BA 36 04              1917 	ld	(hl),#0x04
   11BC 21r8Cr03           1918 	ld	hl,#(_text_map + 0x0004)
   11BF 36 04              1919 	ld	(hl),#0x04
   11C1 21r8Dr03           1920 	ld	hl,#(_text_map + 0x0005)
   11C4 36 04              1921 	ld	(hl),#0x04
   11C6 21r8Er03           1922 	ld	hl,#(_text_map + 0x0006)
   11C9 36 04              1923 	ld	(hl),#0x04
   11CB 21r8Fr03           1924 	ld	hl,#(_text_map + 0x0007)
   11CE 36 04              1925 	ld	(hl),#0x04
   11D0 21r90r03           1926 	ld	hl,#(_text_map + 0x0008)
   11D3 36 04              1927 	ld	(hl),#0x04
   11D5 21r91r03           1928 	ld	hl,#(_text_map + 0x0009)
   11D8 36 04              1929 	ld	(hl),#0x04
   11DA 21r92r03           1930 	ld	hl,#(_text_map + 0x000a)
   11DD 36 04              1931 	ld	(hl),#0x04
   11DF 21r93r03           1932 	ld	hl,#(_text_map + 0x000b)
   11E2 36 04              1933 	ld	(hl),#0x04
   11E4 21r94r03           1934 	ld	hl,#(_text_map + 0x000c)
   11E7 36 04              1935 	ld	(hl),#0x04
   11E9 21r95r03           1936 	ld	hl,#(_text_map + 0x000d)
   11EC 36 04              1937 	ld	(hl),#0x04
   11EE 21r96r03           1938 	ld	hl,#(_text_map + 0x000e)
   11F1 36 04              1939 	ld	(hl),#0x04
   11F3 21r97r03           1940 	ld	hl,#(_text_map + 0x000f)
   11F6 36 04              1941 	ld	(hl),#0x04
   11F8 21r98r03           1942 	ld	hl,#(_text_map + 0x0010)
   11FB 36 04              1943 	ld	(hl),#0x04
   11FD 21r99r03           1944 	ld	hl,#(_text_map + 0x0011)
   1200 36 04              1945 	ld	(hl),#0x04
   1202 21r9Ar03           1946 	ld	hl,#(_text_map + 0x0012)
   1205 36 04              1947 	ld	(hl),#0x04
   1207 21r9Br03           1948 	ld	hl,#(_text_map + 0x0013)
   120A 36 04              1949 	ld	(hl),#0x04
   120C 21r9Cr03           1950 	ld	hl,#(_text_map + 0x0014)
   120F 36 04              1951 	ld	(hl),#0x04
   1211 21r9Dr03           1952 	ld	hl,#(_text_map + 0x0015)
   1214 36 04              1953 	ld	(hl),#0x04
   1216 21r9Er03           1954 	ld	hl,#(_text_map + 0x0016)
   1219 36 04              1955 	ld	(hl),#0x04
   121B 21r9Fr03           1956 	ld	hl,#(_text_map + 0x0017)
   121E 36 04              1957 	ld	(hl),#0x04
   1220 21rA0r03           1958 	ld	hl,#(_text_map + 0x0018)
   1223 36 04              1959 	ld	(hl),#0x04
   1225 21rA1r03           1960 	ld	hl,#(_text_map + 0x0019)
   1228 36 04              1961 	ld	(hl),#0x04
   122A 21rA2r03           1962 	ld	hl,#(_text_map + 0x001a)
   122D 36 04              1963 	ld	(hl),#0x04
   122F 21rA3r03           1964 	ld	hl,#(_text_map + 0x001b)
   1232 36 04              1965 	ld	(hl),#0x04
   1234 21rA4r03           1966 	ld	hl,#(_text_map + 0x001c)
   1237 36 04              1967 	ld	(hl),#0x04
   1239 21rA5r03           1968 	ld	hl,#(_text_map + 0x001d)
   123C 36 04              1969 	ld	(hl),#0x04
   123E 21rA6r03           1970 	ld	hl,#(_text_map + 0x001e)
   1241 36 04              1971 	ld	(hl),#0x04
   1243 21rA7r03           1972 	ld	hl,#(_text_map + 0x001f)
   1246 36 04              1973 	ld	(hl),#0x04
                           1974 ;main.c:302: UINT8 input_seq_ctr = 0;
   1248 21rB8r03           1975 	ld	hl,#_input_seq_ctr
   124B 36 00              1976 	ld	(hl),#0x00
                           1977 ;main.c:306: UINT8 flag_a[] =
   124D 21rB9r03           1978 	ld	hl,#_flag_a
   1250 36 12              1979 	ld	(hl),#0x12
   1252 21rBAr03           1980 	ld	hl,#(_flag_a + 0x0001)
   1255 36 64              1981 	ld	(hl),#0x64
   1257 21rBBr03           1982 	ld	hl,#(_flag_a + 0x0002)
   125A 36 88              1983 	ld	(hl),#0x88
   125C 21rBCr03           1984 	ld	hl,#(_flag_a + 0x0003)
   125F 36 F7              1985 	ld	(hl),#0xF7
   1261 21rBDr03           1986 	ld	hl,#(_flag_a + 0x0004)
   1264 36 77              1987 	ld	(hl),#0x77
   1266 21rBEr03           1988 	ld	hl,#(_flag_a + 0x0005)
   1269 36 95              1989 	ld	(hl),#0x95
   126B 21rBFr03           1990 	ld	hl,#(_flag_a + 0x0006)
   126E 36 8A              1991 	ld	(hl),#0x8A
   1270 21rC0r03           1992 	ld	hl,#(_flag_a + 0x0007)
   1273 36 5A              1993 	ld	(hl),#0x5A
                           1994 ;main.c:310: UINT8 flag_b[] =
   1275 21rC1r03           1995 	ld	hl,#_flag_b
   1278 36 E1              1996 	ld	(hl),#0xE1
   127A 21rC2r03           1997 	ld	hl,#(_flag_b + 0x0001)
   127D 36 D5              1998 	ld	(hl),#0xD5
   127F 21rC3r03           1999 	ld	hl,#(_flag_b + 0x0002)
   1282 36 FA              2000 	ld	(hl),#0xFA
   1284 21rC4r03           2001 	ld	hl,#(_flag_b + 0x0003)
   1287 36 93              2002 	ld	(hl),#0x93
   1289 21rC5r03           2003 	ld	hl,#(_flag_b + 0x0004)
   128C 36 3E              2004 	ld	(hl),#0x3E
   128E 21rC6r03           2005 	ld	hl,#(_flag_b + 0x0005)
   1291 36 13              2006 	ld	(hl),#0x13
   1293 21rC7r03           2007 	ld	hl,#(_flag_b + 0x0006)
   1296 36 30              2008 	ld	(hl),#0x30
   1298 21rC8r03           2009 	ld	hl,#(_flag_b + 0x0007)
   129B 36 5F              2010 	ld	(hl),#0x5F
                           2011 ;--------------------------------------------------------
                           2012 ; Home
                           2013 ;--------------------------------------------------------
                           2014 	.area _HOME
                           2015 	.area _HOME
                           2016 ;--------------------------------------------------------
                           2017 ; code
                           2018 ;--------------------------------------------------------
                           2019 	.area _CODE
                           2020 ;main.c:328: UINT8 divide_UINT8(UINT8 a, UINT8 b)
                           2021 ;	---------------------------------
                           2022 ; Function divide_UINT8
                           2023 ; ---------------------------------
   0000                    2024 _divide_UINT8::
                           2025 ;main.c:332: while (a >= b) {
   0000 06 00              2026 	ld	b,#0x00
   0002                    2027 00101$:
   0002 F8 02              2028 	ldhl	sp,#2
   0004 2A                 2029 	ld	a,(hl+)
   0005 96                 2030 	sub	a, (hl)
   0006 38 08              2031 	jr	C,00103$
                           2032 ;main.c:333: a -= b;
   0008 2B                 2033 	dec	hl
   0009 2A                 2034 	ld	a,(hl+)
   000A 96                 2035 	sub	a, (hl)
   000B 2B                 2036 	dec	hl
   000C 77                 2037 	ld	(hl),a
                           2038 ;main.c:334: result++;
   000D 04                 2039 	inc	b
   000E 18 F2              2040 	jr	00101$
   0010                    2041 00103$:
                           2042 ;main.c:336: return result;
   0010 58                 2043 	ld	e,b
   0011 C9                 2044 	ret
   0012                    2045 _agent:
   0012 00                 2046 	.db #0x00	; 0
   0013 07                 2047 	.db #0x07	; 7
   0014 00                 2048 	.db #0x00	; 0
   0015 0F                 2049 	.db #0x0F	; 15
   0016 00                 2050 	.db #0x00	; 0
   0017 0F                 2051 	.db #0x0F	; 15
   0018 00                 2052 	.db #0x00	; 0
   0019 7F                 2053 	.db #0x7F	; 127
   001A 00                 2054 	.db #0x00	; 0
   001B 6F                 2055 	.db #0x6F	; 111	'o'
   001C 01                 2056 	.db #0x01	; 1
   001D 6E                 2057 	.db #0x6E	; 110	'n'
   001E 01                 2058 	.db #0x01	; 1
   001F EE                 2059 	.db #0xEE	; 238
   0020 00                 2060 	.db #0x00	; 0
   0021 0F                 2061 	.db #0x0F	; 15
   0022 00                 2062 	.db #0x00	; 0
   0023 03                 2063 	.db #0x03	; 3
   0024 01                 2064 	.db #0x01	; 1
   0025 00                 2065 	.db #0x00	; 0
   0026 00                 2066 	.db #0x00	; 0
   0027 01                 2067 	.db #0x01	; 1
   0028 00                 2068 	.db #0x00	; 0
   0029 07                 2069 	.db #0x07	; 7
   002A 00                 2070 	.db #0x00	; 0
   002B 0F                 2071 	.db #0x0F	; 15
   002C 01                 2072 	.db #0x01	; 1
   002D 0E                 2073 	.db #0x0E	; 14
   002E 00                 2074 	.db #0x00	; 0
   002F 1F                 2075 	.db #0x1F	; 31
   0030 01                 2076 	.db #0x01	; 1
   0031 1E                 2077 	.db #0x1E	; 30
   0032 00                 2078 	.db #0x00	; 0
   0033 F8                 2079 	.db #0xF8	; 248
   0034 00                 2080 	.db #0x00	; 0
   0035 FC                 2081 	.db #0xFC	; 252
   0036 00                 2082 	.db #0x00	; 0
   0037 FC                 2083 	.db #0xFC	; 252
   0038 3C                 2084 	.db #0x3C	; 60
   0039 C0                 2085 	.db #0xC0	; 192
   003A 3C                 2086 	.db #0x3C	; 60
   003B C8                 2087 	.db #0xC8	; 200
   003C BC                 2088 	.db #0xBC	; 188
   003D 50                 2089 	.db #0x50	; 80	'P'
   003E BC                 2090 	.db #0xBC	; 188
   003F 50                 2091 	.db #0x50	; 80	'P'
   0040 6C                 2092 	.db #0x6C	; 108	'l'
   0041 90                 2093 	.db #0x90	; 144
   0042 38                 2094 	.db #0x38	; 56	'8'
   0043 C0                 2095 	.db #0xC0	; 192
   0044 F0                 2096 	.db #0xF0	; 240
   0045 00                 2097 	.db #0x00	; 0
   0046 00                 2098 	.db #0x00	; 0
   0047 C0                 2099 	.db #0xC0	; 192
   0048 00                 2100 	.db #0x00	; 0
   0049 F0                 2101 	.db #0xF0	; 240
   004A 00                 2102 	.db #0x00	; 0
   004B F8                 2103 	.db #0xF8	; 248
   004C 00                 2104 	.db #0x00	; 0
   004D F8                 2105 	.db #0xF8	; 248
   004E 00                 2106 	.db #0x00	; 0
   004F F8                 2107 	.db #0xF8	; 248
   0050 00                 2108 	.db #0x00	; 0
   0051 F8                 2109 	.db #0xF8	; 248
   0052 00                 2110 	.db #0x00	; 0
   0053 1F                 2111 	.db #0x1F	; 31
   0054 1D                 2112 	.db #0x1D	; 29
   0055 02                 2113 	.db #0x02	; 2
   0056 1C                 2114 	.db #0x1C	; 28
   0057 03                 2115 	.db #0x03	; 3
   0058 1C                 2116 	.db #0x1C	; 28
   0059 03                 2117 	.db #0x03	; 3
   005A 1C                 2118 	.db #0x1C	; 28
   005B 03                 2119 	.db #0x03	; 3
   005C 1E                 2120 	.db #0x1E	; 30
   005D 01                 2121 	.db #0x01	; 1
   005E 1E                 2122 	.db #0x1E	; 30
   005F 01                 2123 	.db #0x01	; 1
   0060 1E                 2124 	.db #0x1E	; 30
   0061 01                 2125 	.db #0x01	; 1
   0062 00                 2126 	.db #0x00	; 0
   0063 0F                 2127 	.db #0x0F	; 15
   0064 00                 2128 	.db #0x00	; 0
   0065 0F                 2129 	.db #0x0F	; 15
   0066 0F                 2130 	.db #0x0F	; 15
   0067 00                 2131 	.db #0x00	; 0
   0068 00                 2132 	.db #0x00	; 0
   0069 1E                 2133 	.db #0x1E	; 30
   006A 00                 2134 	.db #0x00	; 0
   006B 1E                 2135 	.db #0x1E	; 30
   006C 00                 2136 	.db #0x00	; 0
   006D 3E                 2137 	.db #0x3E	; 62
   006E 00                 2138 	.db #0x00	; 0
   006F 3E                 2139 	.db #0x3E	; 62
   0070 00                 2140 	.db #0x00	; 0
   0071 3F                 2141 	.db #0x3F	; 63
   0072 00                 2142 	.db #0x00	; 0
   0073 F8                 2143 	.db #0xF8	; 248
   0074 00                 2144 	.db #0x00	; 0
   0075 F8                 2145 	.db #0xF8	; 248
   0076 00                 2146 	.db #0x00	; 0
   0077 FC                 2147 	.db #0xFC	; 252
   0078 00                 2148 	.db #0x00	; 0
   0079 FC                 2149 	.db #0xFC	; 252
   007A 02                 2150 	.db #0x02	; 2
   007B FC                 2151 	.db #0xFC	; 252
   007C 02                 2152 	.db #0x02	; 2
   007D FC                 2153 	.db #0xFC	; 252
   007E 02                 2154 	.db #0x02	; 2
   007F FC                 2155 	.db #0xFC	; 252
   0080 02                 2156 	.db #0x02	; 2
   0081 FC                 2157 	.db #0xFC	; 252
   0082 00                 2158 	.db #0x00	; 0
   0083 3C                 2159 	.db #0x3C	; 60
   0084 00                 2160 	.db #0x00	; 0
   0085 3C                 2161 	.db #0x3C	; 60
   0086 3C                 2162 	.db #0x3C	; 60
   0087 00                 2163 	.db #0x00	; 0
   0088 00                 2164 	.db #0x00	; 0
   0089 3C                 2165 	.db #0x3C	; 60
   008A 00                 2166 	.db #0x00	; 0
   008B 3C                 2167 	.db #0x3C	; 60
   008C 00                 2168 	.db #0x00	; 0
   008D 3C                 2169 	.db #0x3C	; 60
   008E 00                 2170 	.db #0x00	; 0
   008F 3E                 2171 	.db #0x3E	; 62
   0090 00                 2172 	.db #0x00	; 0
   0091 3F                 2173 	.db #0x3F	; 63
   0092                    2174 _button:
   0092 FF                 2175 	.db #0xFF	; 255
   0093 FF                 2176 	.db #0xFF	; 255
   0094 DF                 2177 	.db #0xDF	; 223
   0095 EF                 2178 	.db #0xEF	; 239
   0096 DF                 2179 	.db #0xDF	; 223
   0097 E7                 2180 	.db #0xE7	; 231
   0098 DF                 2181 	.db #0xDF	; 223
   0099 E3                 2182 	.db #0xE3	; 227
   009A DF                 2183 	.db #0xDF	; 223
   009B E7                 2184 	.db #0xE7	; 231
   009C DF                 2185 	.db #0xDF	; 223
   009D EF                 2186 	.db #0xEF	; 239
   009E FF                 2187 	.db #0xFF	; 255
   009F FF                 2188 	.db #0xFF	; 255
   00A0 FF                 2189 	.db #0xFF	; 255
   00A1 FF                 2190 	.db #0xFF	; 255
   00A2 FF                 2191 	.db #0xFF	; 255
   00A3 FF                 2192 	.db #0xFF	; 255
   00A4 F7                 2193 	.db #0xF7	; 247
   00A5 EF                 2194 	.db #0xEF	; 239
   00A6 F7                 2195 	.db #0xF7	; 247
   00A7 CF                 2196 	.db #0xCF	; 207
   00A8 F7                 2197 	.db #0xF7	; 247
   00A9 8F                 2198 	.db #0x8F	; 143
   00AA F7                 2199 	.db #0xF7	; 247
   00AB CF                 2200 	.db #0xCF	; 207
   00AC F7                 2201 	.db #0xF7	; 247
   00AD EF                 2202 	.db #0xEF	; 239
   00AE FF                 2203 	.db #0xFF	; 255
   00AF FF                 2204 	.db #0xFF	; 255
   00B0 FF                 2205 	.db #0xFF	; 255
   00B1 FF                 2206 	.db #0xFF	; 255
   00B2 FF                 2207 	.db #0xFF	; 255
   00B3 FF                 2208 	.db #0xFF	; 255
   00B4 FF                 2209 	.db #0xFF	; 255
   00B5 EF                 2210 	.db #0xEF	; 239
   00B6 FF                 2211 	.db #0xFF	; 255
   00B7 C7                 2212 	.db #0xC7	; 199
   00B8 FF                 2213 	.db #0xFF	; 255
   00B9 83                 2214 	.db #0x83	; 131
   00BA 83                 2215 	.db #0x83	; 131
   00BB FF                 2216 	.db #0xFF	; 255
   00BC FF                 2217 	.db #0xFF	; 255
   00BD FF                 2218 	.db #0xFF	; 255
   00BE FF                 2219 	.db #0xFF	; 255
   00BF FF                 2220 	.db #0xFF	; 255
   00C0 FF                 2221 	.db #0xFF	; 255
   00C1 FF                 2222 	.db #0xFF	; 255
   00C2 FF                 2223 	.db #0xFF	; 255
   00C3 FF                 2224 	.db #0xFF	; 255
   00C4 FF                 2225 	.db #0xFF	; 255
   00C5 FF                 2226 	.db #0xFF	; 255
   00C6 83                 2227 	.db #0x83	; 131
   00C7 FF                 2228 	.db #0xFF	; 255
   00C8 FF                 2229 	.db #0xFF	; 255
   00C9 83                 2230 	.db #0x83	; 131
   00CA FF                 2231 	.db #0xFF	; 255
   00CB C7                 2232 	.db #0xC7	; 199
   00CC FF                 2233 	.db #0xFF	; 255
   00CD EF                 2234 	.db #0xEF	; 239
   00CE FF                 2235 	.db #0xFF	; 255
   00CF FF                 2236 	.db #0xFF	; 255
   00D0 FF                 2237 	.db #0xFF	; 255
   00D1 FF                 2238 	.db #0xFF	; 255
   00D2 FF                 2239 	.db #0xFF	; 255
   00D3 FF                 2240 	.db #0xFF	; 255
   00D4 FF                 2241 	.db #0xFF	; 255
   00D5 C7                 2242 	.db #0xC7	; 199
   00D6 EF                 2243 	.db #0xEF	; 239
   00D7 93                 2244 	.db #0x93	; 147
   00D8 C7                 2245 	.db #0xC7	; 199
   00D9 BB                 2246 	.db #0xBB	; 187
   00DA D7                 2247 	.db #0xD7	; 215
   00DB AB                 2248 	.db #0xAB	; 171
   00DC FF                 2249 	.db #0xFF	; 255
   00DD C7                 2250 	.db #0xC7	; 199
   00DE FF                 2251 	.db #0xFF	; 255
   00DF FF                 2252 	.db #0xFF	; 255
   00E0 FF                 2253 	.db #0xFF	; 255
   00E1 FF                 2254 	.db #0xFF	; 255
   00E2 FF                 2255 	.db #0xFF	; 255
   00E3 FF                 2256 	.db #0xFF	; 255
   00E4 FF                 2257 	.db #0xFF	; 255
   00E5 C7                 2258 	.db #0xC7	; 199
   00E6 CF                 2259 	.db #0xCF	; 207
   00E7 B3                 2260 	.db #0xB3	; 179
   00E8 C7                 2261 	.db #0xC7	; 199
   00E9 BB                 2262 	.db #0xBB	; 187
   00EA C7                 2263 	.db #0xC7	; 199
   00EB BB                 2264 	.db #0xBB	; 187
   00EC FF                 2265 	.db #0xFF	; 255
   00ED C7                 2266 	.db #0xC7	; 199
   00EE FF                 2267 	.db #0xFF	; 255
   00EF FF                 2268 	.db #0xFF	; 255
   00F0 FF                 2269 	.db #0xFF	; 255
   00F1 FF                 2270 	.db #0xFF	; 255
   00F2                    2271 _solution_seq:
   00F2 08                 2272 	.db #0x08	; 8
   00F3 02                 2273 	.db #0x02	; 2
   00F4 10                 2274 	.db #0x10	; 16
   00F5 04                 2275 	.db #0x04	; 4
   00F6 20                 2276 	.db #0x20	; 32
   00F7 10                 2277 	.db #0x10	; 16
   00F8 04                 2278 	.db #0x04	; 4
   00F9 08                 2279 	.db #0x08	; 8
   00FA 08                 2280 	.db #0x08	; 8
   00FB 10                 2281 	.db #0x10	; 16
   00FC 04                 2282 	.db #0x04	; 4
   00FD 01                 2283 	.db #0x01	; 1
   00FE 02                 2284 	.db #0x02	; 2
   00FF 01                 2285 	.db #0x01	; 1
   0100 20                 2286 	.db #0x20	; 32
   0101 08                 2287 	.db #0x08	; 8
                           2288 ;main.c:347: void set_text_map(char *text, UINT8 len)
                           2289 ;	---------------------------------
                           2290 ; Function set_text_map
                           2291 ; ---------------------------------
   0102                    2292 _set_text_map::
   0102 E8 FB              2293 	add	sp, #-5
                           2294 ;main.c:356: memset(text_map, EMPTY_TILE_ADDR, text_map_width*text_map_height);
   0104 11r88r03           2295 	ld	de,#_text_map
   0107 21 20 00           2296 	ld	hl,#0x0020
   010A E5                 2297 	push	hl
   010B 2E 24              2298 	ld	l, #0x24
   010D E5                 2299 	push	hl
   010E D5                 2300 	push	de
   010F CDr00r00           2301 	call	_memset
   0112 E8 06              2302 	add	sp, #6
                           2303 ;main.c:359: if (!text || len > 0x20U || len <= 0x0U) {
   0114 F8 08              2304 	ldhl	sp,#8
   0116 3A                 2305 	ld	a,(hl-)
   0117 B6                 2306 	or	a,(hl)
   0118 CAr65r02           2307 	jp	Z,00141$
   011B 23                 2308 	inc	hl
   011C 23                 2309 	inc	hl
   011D 46                 2310 	ld	b,(hl)
   011E 0E 00              2311 	ld	c,#0x00
   0120 3E 20              2312 	ld	a,#0x20
   0122 B8                 2313 	cp	a, b
   0123 3E 00              2314 	ld	a,#0x00
   0125 99                 2315 	sbc	a, c
   0126 DAr65r02           2316 	jp	C,00141$
   0129 7E                 2317 	ld	a,(hl)
   012A B7                 2318 	or	a, a
                           2319 ;main.c:360: return;
                           2320 ;main.c:366: for (i = 0; i < len; ++i) {
   012B CAr65r02           2321 	jp	Z,00141$
   012E F8 00              2322 	ldhl	sp,#0
   0130 36 00              2323 	ld	(hl),#0x00
   0132                    2324 00139$:
   0132 F8 00              2325 	ldhl	sp,#0
   0134 7E                 2326 	ld	a,(hl)
   0135 F8 09              2327 	ldhl	sp,#9
   0137 96                 2328 	sub	a, (hl)
   0138 D2r57r02           2329 	jp	NC,00137$
                           2330 ;main.c:368: if (text[i] >= 'A' && text[i] <= 'Z') {
   013B 2B                 2331 	dec	hl
   013C 2B                 2332 	dec	hl
   013D 5E                 2333 	ld	e,(hl)
   013E 23                 2334 	inc	hl
   013F 56                 2335 	ld	d,(hl)
   0140 F8 00              2336 	ldhl	sp,#0
   0142 6E                 2337 	ld	l,(hl)
   0143 26 00              2338 	ld	h,#0x00
   0145 19                 2339 	add	hl,de
   0146 7D                 2340 	ld	a,l
   0147 54                 2341 	ld	d,h
   0148 F8 03              2342 	ldhl	sp,#3
   014A 22                 2343 	ld	(hl+),a
   014B 72                 2344 	ld	(hl),d
   014C 2B                 2345 	dec	hl
   014D 5E                 2346 	ld	e,(hl)
   014E 23                 2347 	inc	hl
   014F 56                 2348 	ld	d,(hl)
   0150 1A                 2349 	ld	a,(de)
   0151 47                 2350 	ld	b,a
                           2351 ;main.c:369: text_map[i] = text[i] - 'A' + 0xAU; // eg. character A - ascii value of A + index of A in VRAM
   0152 11r88r03           2352 	ld	de,#_text_map
   0155 F8 00              2353 	ldhl	sp,#0
   0157 6E                 2354 	ld	l,(hl)
   0158 26 00              2355 	ld	h,#0x00
   015A 19                 2356 	add	hl,de
   015B 7D                 2357 	ld	a,l
   015C 54                 2358 	ld	d,h
   015D F8 01              2359 	ldhl	sp,#1
   015F 22                 2360 	ld	(hl+),a
   0160 72                 2361 	ld	(hl),d
                           2362 ;main.c:368: if (text[i] >= 'A' && text[i] <= 'Z') {
   0161 3E 41              2363 	ld	a,#0x41
   0163 5F                 2364 	ld	e,a
   0164 78                 2365 	ld	a,b
   0165 57                 2366 	ld	d,a
   0166 78                 2367 	ld	a,b
   0167 EE 80              2368 	xor	a, #0x80
   0169 D6 C1              2369 	sub	a, #0xC1
   016B 38 24              2370 	jr	C,00106$
   016D 78                 2371 	ld	a,b
   016E 5F                 2372 	ld	e,a
   016F 3E 5A              2373 	ld	a,#0x5A
   0171 57                 2374 	ld	d,a
   0172 3E 5A              2375 	ld	a,#0x5A
   0174 90                 2376 	sub	a, b
   0175 CB 7B              2377 	bit	7, e
   0177 28 07              2378 	jr	Z,00212$
   0179 CB 7A              2379 	bit	7, d
   017B 20 08              2380 	jr	NZ,00213$
   017D BF                 2381 	cp	a, a
   017E 18 05              2382 	jr	00213$
   0180                    2383 00212$:
   0180 CB 7A              2384 	bit	7, d
   0182 28 01              2385 	jr	Z,00213$
   0184 37                 2386 	scf
   0185                    2387 00213$:
   0185 38 0A              2388 	jr	C,00106$
                           2389 ;main.c:369: text_map[i] = text[i] - 'A' + 0xAU; // eg. character A - ascii value of A + index of A in VRAM
   0187 78                 2390 	ld	a,b
   0188 C6 C9              2391 	add	a, #0xC9
   018A 47                 2392 	ld	b,a
   018B F8 01              2393 	ldhl	sp,#1
   018D 2A                 2394 	ld	a,(hl+)
   018E 66                 2395 	ld	h,(hl)
   018F 6F                 2396 	ld	l,a
   0190 70                 2397 	ld	(hl),b
   0191                    2398 00106$:
                           2399 ;main.c:373: if (text[i] >= '0' && text[i] <= '9') {
   0191 F8 04              2400 	ldhl	sp,#4
   0193 2B                 2401 	dec	hl
   0194 5E                 2402 	ld	e,(hl)
   0195 23                 2403 	inc	hl
   0196 56                 2404 	ld	d,(hl)
   0197 1A                 2405 	ld	a,(de)
   0198 47                 2406 	ld	b,a
   0199 3E 30              2407 	ld	a,#0x30
   019B 5F                 2408 	ld	e,a
   019C 78                 2409 	ld	a,b
   019D 57                 2410 	ld	d,a
   019E 78                 2411 	ld	a,b
   019F EE 80              2412 	xor	a, #0x80
   01A1 D6 B0              2413 	sub	a, #0xB0
   01A3 38 24              2414 	jr	C,00109$
   01A5 78                 2415 	ld	a,b
   01A6 5F                 2416 	ld	e,a
   01A7 3E 39              2417 	ld	a,#0x39
   01A9 57                 2418 	ld	d,a
   01AA 3E 39              2419 	ld	a,#0x39
   01AC 90                 2420 	sub	a, b
   01AD CB 7B              2421 	bit	7, e
   01AF 28 07              2422 	jr	Z,00214$
   01B1 CB 7A              2423 	bit	7, d
   01B3 20 08              2424 	jr	NZ,00215$
   01B5 BF                 2425 	cp	a, a
   01B6 18 05              2426 	jr	00215$
   01B8                    2427 00214$:
   01B8 CB 7A              2428 	bit	7, d
   01BA 28 01              2429 	jr	Z,00215$
   01BC 37                 2430 	scf
   01BD                    2431 00215$:
   01BD 38 0A              2432 	jr	C,00109$
                           2433 ;main.c:374: text_map[i] = text[i] - '0';
   01BF 78                 2434 	ld	a,b
   01C0 C6 D0              2435 	add	a,#0xD0
   01C2 47                 2436 	ld	b,a
   01C3 F8 01              2437 	ldhl	sp,#1
   01C5 2A                 2438 	ld	a,(hl+)
   01C6 66                 2439 	ld	h,(hl)
   01C7 6F                 2440 	ld	l,a
   01C8 70                 2441 	ld	(hl),b
   01C9                    2442 00109$:
                           2443 ;main.c:378: if (text[i] == '~') {
   01C9 F8 04              2444 	ldhl	sp,#4
   01CB 2B                 2445 	dec	hl
   01CC 5E                 2446 	ld	e,(hl)
   01CD 23                 2447 	inc	hl
   01CE 56                 2448 	ld	d,(hl)
   01CF 1A                 2449 	ld	a,(de)
   01D0 47                 2450 	ld	b,a
   01D1 D6 7E              2451 	sub	a, #0x7E
   01D3 20 0A              2452 	jr	NZ,00135$
                           2453 ;main.c:379: text_map[i] = 0x25U;
   01D5 F8 01              2454 	ldhl	sp,#1
   01D7 2A                 2455 	ld	a,(hl+)
   01D8 66                 2456 	ld	h,(hl)
   01D9 6F                 2457 	ld	l,a
   01DA 36 25              2458 	ld	(hl),#0x25
   01DC C3r51r02           2459 	jp	00140$
   01DF                    2460 00135$:
                           2461 ;main.c:380: } else if (text[i] == '_') {
   01DF 78                 2462 	ld	a,b
   01E0 D6 5F              2463 	sub	a, #0x5F
   01E2 20 0A              2464 	jr	NZ,00132$
                           2465 ;main.c:381: text_map[i] = 0x26U;
   01E4 F8 01              2466 	ldhl	sp,#1
   01E6 2A                 2467 	ld	a,(hl+)
   01E7 66                 2468 	ld	h,(hl)
   01E8 6F                 2469 	ld	l,a
   01E9 36 26              2470 	ld	(hl),#0x26
   01EB C3r51r02           2471 	jp	00140$
   01EE                    2472 00132$:
                           2473 ;main.c:382: } else if (text[i] == '!') {
   01EE 78                 2474 	ld	a,b
   01EF D6 21              2475 	sub	a, #0x21
   01F1 20 0A              2476 	jr	NZ,00129$
                           2477 ;main.c:383: text_map[i] = 0x27U;
   01F3 F8 01              2478 	ldhl	sp,#1
   01F5 2A                 2479 	ld	a,(hl+)
   01F6 66                 2480 	ld	h,(hl)
   01F7 6F                 2481 	ld	l,a
   01F8 36 27              2482 	ld	(hl),#0x27
   01FA C3r51r02           2483 	jp	00140$
   01FD                    2484 00129$:
                           2485 ;main.c:384: } else if (text[i] == '?') {
   01FD 78                 2486 	ld	a,b
   01FE D6 3F              2487 	sub	a, #0x3F
   0200 20 0A              2488 	jr	NZ,00126$
                           2489 ;main.c:385: text_map[i] = 0x28U;
   0202 F8 01              2490 	ldhl	sp,#1
   0204 2A                 2491 	ld	a,(hl+)
   0205 66                 2492 	ld	h,(hl)
   0206 6F                 2493 	ld	l,a
   0207 36 28              2494 	ld	(hl),#0x28
   0209 C3r51r02           2495 	jp	00140$
   020C                    2496 00126$:
                           2497 ;main.c:386: } else if (text[i] == '\'') {
   020C 78                 2498 	ld	a,b
   020D D6 27              2499 	sub	a, #0x27
   020F 20 0A              2500 	jr	NZ,00123$
                           2501 ;main.c:387: text_map[i] = 0x29U;
   0211 F8 01              2502 	ldhl	sp,#1
   0213 2A                 2503 	ld	a,(hl+)
   0214 66                 2504 	ld	h,(hl)
   0215 6F                 2505 	ld	l,a
   0216 36 29              2506 	ld	(hl),#0x29
   0218 C3r51r02           2507 	jp	00140$
   021B                    2508 00123$:
                           2509 ;main.c:388: } else if (text[i] == '.') {
   021B 78                 2510 	ld	a,b
   021C D6 2E              2511 	sub	a, #0x2E
   021E 20 09              2512 	jr	NZ,00120$
                           2513 ;main.c:389: text_map[i] = 0x2AU;
   0220 F8 01              2514 	ldhl	sp,#1
   0222 2A                 2515 	ld	a,(hl+)
   0223 66                 2516 	ld	h,(hl)
   0224 6F                 2517 	ld	l,a
   0225 36 2A              2518 	ld	(hl),#0x2A
   0227 18 28              2519 	jr	00140$
   0229                    2520 00120$:
                           2521 ;main.c:390: } else if (text[i] == ',') {
   0229 78                 2522 	ld	a,b
   022A D6 2C              2523 	sub	a, #0x2C
   022C 20 09              2524 	jr	NZ,00117$
                           2525 ;main.c:391: text_map[i] = 0x2BU;
   022E F8 01              2526 	ldhl	sp,#1
   0230 2A                 2527 	ld	a,(hl+)
   0231 66                 2528 	ld	h,(hl)
   0232 6F                 2529 	ld	l,a
   0233 36 2B              2530 	ld	(hl),#0x2B
   0235 18 1A              2531 	jr	00140$
   0237                    2532 00117$:
                           2533 ;main.c:392: } else if (text[i] == '') {
   0237 78                 2534 	ld	a,b
   0238 D6 E2              2535 	sub	a, #0xE2
   023A 20 09              2536 	jr	NZ,00114$
                           2537 ;main.c:393: text_map[i] = 0x2CU;
   023C F8 01              2538 	ldhl	sp,#1
   023E 2A                 2539 	ld	a,(hl+)
   023F 66                 2540 	ld	h,(hl)
   0240 6F                 2541 	ld	l,a
   0241 36 2C              2542 	ld	(hl),#0x2C
   0243 18 0C              2543 	jr	00140$
   0245                    2544 00114$:
                           2545 ;main.c:394: } else if (text[i] == ':') {
   0245 78                 2546 	ld	a,b
   0246 D6 3A              2547 	sub	a, #0x3A
   0248 20 07              2548 	jr	NZ,00140$
                           2549 ;main.c:395: text_map[i] = 0x2DU;
   024A F8 01              2550 	ldhl	sp,#1
   024C 2A                 2551 	ld	a,(hl+)
   024D 66                 2552 	ld	h,(hl)
   024E 6F                 2553 	ld	l,a
   024F 36 2D              2554 	ld	(hl),#0x2D
   0251                    2555 00140$:
                           2556 ;main.c:366: for (i = 0; i < len; ++i) {
   0251 F8 00              2557 	ldhl	sp,#0
   0253 34                 2558 	inc	(hl)
   0254 C3r32r01           2559 	jp	00139$
   0257                    2560 00137$:
                           2561 ;main.c:400: text_map[len] = arrow_address_1;
   0257 11r88r03           2562 	ld	de,#_text_map
   025A F8 09              2563 	ldhl	sp,#9
   025C 6E                 2564 	ld	l,(hl)
   025D 26 00              2565 	ld	h,#0x00
   025F 19                 2566 	add	hl,de
   0260 4D                 2567 	ld	c,l
   0261 44                 2568 	ld	b,h
   0262 3E 2E              2569 	ld	a,#0x2E
   0264 02                 2570 	ld	(bc),a
   0265                    2571 00141$:
   0265 E8 05              2572 	add	sp, #5
   0267 C9                 2573 	ret
                           2574 ;main.c:405: void clear_window(void)
                           2575 ;	---------------------------------
                           2576 ; Function clear_window
                           2577 ; ---------------------------------
   0268                    2578 _clear_window::
                           2579 ;main.c:408: memset(text_map, EMPTY_TILE_ADDR, text_map_width * text_map_height);
   0268 11r88r03           2580 	ld	de,#_text_map
   026B 21 20 00           2581 	ld	hl,#0x0020
   026E E5                 2582 	push	hl
   026F 2E 24              2583 	ld	l, #0x24
   0271 E5                 2584 	push	hl
   0272 D5                 2585 	push	de
   0273 CDr00r00           2586 	call	_memset
   0276 E8 06              2587 	add	sp, #6
                           2588 ;main.c:409: set_win_tiles(0x2U, 0x2U, text_map_width, text_map_height, text_map);
   0278 11r88r03           2589 	ld	de,#_text_map
   027B D5                 2590 	push	de
   027C 21 10 02           2591 	ld	hl,#0x0210
   027F E5                 2592 	push	hl
   0280 2E 02              2593 	ld	l, #0x02
   0282 E5                 2594 	push	hl
   0283 CDr00r00           2595 	call	_set_win_tiles
   0286 E8 06              2596 	add	sp, #6
   0288 C9                 2597 	ret
                           2598 ;main.c:412: void show_text(char *text)
                           2599 ;	---------------------------------
                           2600 ; Function show_text
                           2601 ; ---------------------------------
   0289                    2602 _show_text::
   0289 E8 FD              2603 	add	sp, #-3
                           2604 ;main.c:415: UINT8 cursor_state = 0;
   028B F8 02              2605 	ldhl	sp,#2
   028D 36 00              2606 	ld	(hl),#0x00
                           2607 ;main.c:416: UINT8 text_len = strlen(text);
   028F F8 05              2608 	ldhl	sp,#5
   0291 2A                 2609 	ld	a,(hl+)
   0292 66                 2610 	ld	h,(hl)
   0293 6F                 2611 	ld	l,a
   0294 E5                 2612 	push	hl
   0295 CDr00r00           2613 	call	_strlen
   0298 E8 02              2614 	add	sp, #2
   029A 43                 2615 	ld	b,e
                           2616 ;main.c:417: UINT8 cursor_index = text_len;
   029B 48                 2617 	ld	c,b
                           2618 ;main.c:419: clear_window();
   029C C5                 2619 	push	bc
   029D CDr68r02           2620 	call	_clear_window
   02A0 C1                 2621 	pop	bc
                           2622 ;main.c:420: set_text_map(text, text_len);
   02A1 C5                 2623 	push	bc
   02A2 C5                 2624 	push	bc
   02A3 33                 2625 	inc	sp
   02A4 F8 08              2626 	ldhl	sp,#8
   02A6 2A                 2627 	ld	a,(hl+)
   02A7 66                 2628 	ld	h,(hl)
   02A8 6F                 2629 	ld	l,a
   02A9 E5                 2630 	push	hl
   02AA CDr02r01           2631 	call	_set_text_map
   02AD E8 03              2632 	add	sp, #3
   02AF C1                 2633 	pop	bc
                           2634 ;main.c:423: text_len++;
   02B0 04                 2635 	inc	b
                           2636 ;main.c:424: scroll_text(text_len);
   02B1 C5                 2637 	push	bc
   02B2 C5                 2638 	push	bc
   02B3 33                 2639 	inc	sp
   02B4 CDr31r03           2640 	call	_scroll_text
   02B7 33                 2641 	inc	sp
   02B8 C1                 2642 	pop	bc
                           2643 ;main.c:428: x = 2 + (cursor_index % 16);
   02B9 79                 2644 	ld	a,c
   02BA E6 0F              2645 	and	a, #0x0F
   02BC C6 02              2646 	add	a, #0x02
   02BE F8 00              2647 	ldhl	sp,#0
   02C0 77                 2648 	ld	(hl),a
                           2649 ;main.c:430: y = 2 + divide_UINT8(cursor_index, 16);
   02C1 C5                 2650 	push	bc
   02C2 3E 10              2651 	ld	a,#0x10
   02C4 F5                 2652 	push	af
   02C5 33                 2653 	inc	sp
   02C6 79                 2654 	ld	a,c
   02C7 F5                 2655 	push	af
   02C8 33                 2656 	inc	sp
   02C9 CDr00r00           2657 	call	_divide_UINT8
   02CC E8 02              2658 	add	sp, #2
   02CE 7B                 2659 	ld	a,e
   02CF C1                 2660 	pop	bc
   02D0 C6 02              2661 	add	a, #0x02
   02D2 F8 01              2662 	ldhl	sp,#1
   02D4 77                 2663 	ld	(hl),a
                           2664 ;main.c:432: while (!joypad()) {
   02D5 3Er88              2665 	ld	a,#<(_text_map)
   02D7 81                 2666 	add	a, c
   02D8 4F                 2667 	ld	c,a
   02D9 3Es03              2668 	ld	a,#>(_text_map)
   02DB CE 00              2669 	adc	a, #0x00
   02DD 47                 2670 	ld	b,a
   02DE                    2671 00104$:
   02DE C5                 2672 	push	bc
   02DF CDr00r00           2673 	call	_joypad
   02E2 7B                 2674 	ld	a,e
   02E3 C1                 2675 	pop	bc
   02E4 B7                 2676 	or	a, a
   02E5 C2r2Er03           2677 	jp	NZ,00107$
                           2678 ;main.c:433: if (cursor_state == 0) {
   02E8 F8 02              2679 	ldhl	sp,#2
   02EA 7E                 2680 	ld	a,(hl)
   02EB B7                 2681 	or	a, a
   02EC 20 05              2682 	jr	NZ,00102$
                           2683 ;main.c:434: text_map[cursor_index] = arrow_address_2;
   02EE 3E 2F              2684 	ld	a,#0x2F
   02F0 02                 2685 	ld	(bc),a
   02F1 18 03              2686 	jr	00103$
   02F3                    2687 00102$:
                           2688 ;main.c:436: text_map[cursor_index] = arrow_address_1;
   02F3 3E 2E              2689 	ld	a,#0x2E
   02F5 02                 2690 	ld	(bc),a
   02F6                    2691 00103$:
                           2692 ;main.c:439: set_win_tiles(x, y, 1, 1, &text_map[cursor_index]);
   02F6 59                 2693 	ld	e, c
   02F7 50                 2694 	ld	d, b
   02F8 C5                 2695 	push	bc
   02F9 D5                 2696 	push	de
   02FA 21 01 01           2697 	ld	hl,#0x0101
   02FD E5                 2698 	push	hl
   02FE F8 07              2699 	ldhl	sp,#7
   0300 7E                 2700 	ld	a,(hl)
   0301 F5                 2701 	push	af
   0302 33                 2702 	inc	sp
   0303 2B                 2703 	dec	hl
   0304 7E                 2704 	ld	a,(hl)
   0305 F5                 2705 	push	af
   0306 33                 2706 	inc	sp
   0307 CDr00r00           2707 	call	_set_win_tiles
   030A E8 06              2708 	add	sp, #6
   030C C1                 2709 	pop	bc
                           2710 ;main.c:440: cursor_state = !cursor_state;
   030D F8 02              2711 	ldhl	sp,#2
   030F 7E                 2712 	ld	a,(hl)
   0310 D6 01              2713 	sub	a,#0x01
   0312 3E 00              2714 	ld	a,#0x00
   0314 17                 2715 	rla
   0315 77                 2716 	ld	(hl),a
                           2717 ;main.c:441: delay(50);
   0316 C5                 2718 	push	bc
   0317 21 32 00           2719 	ld	hl,#0x0032
   031A E5                 2720 	push	hl
   031B CDr00r00           2721 	call	_delay
   031E E8 02              2722 	add	sp, #2
   0320 C1                 2723 	pop	bc
                           2724 ;main.c:442: sleep(4);
   0321 C5                 2725 	push	bc
   0322 3E 04              2726 	ld	a,#0x04
   0324 F5                 2727 	push	af
   0325 33                 2728 	inc	sp
   0326 CDr8Ar03           2729 	call	_sleep
   0329 33                 2730 	inc	sp
   032A C1                 2731 	pop	bc
   032B C3rDEr02           2732 	jp	00104$
   032E                    2733 00107$:
   032E E8 03              2734 	add	sp, #3
   0330 C9                 2735 	ret
                           2736 ;main.c:451: void scroll_text(UINT8 len)
                           2737 ;	---------------------------------
                           2738 ; Function scroll_text
                           2739 ; ---------------------------------
   0331                    2740 _scroll_text::
   0331 E8 FD              2741 	add	sp, #-3
                           2742 ;main.c:454: for (counter = 0; counter < len; ++counter) {
   0333 06 00              2743 	ld	b,#0x00
   0335                    2744 00103$:
   0335 78                 2745 	ld	a,b
   0336 F8 05              2746 	ldhl	sp,#5
   0338 96                 2747 	sub	a, (hl)
   0339 D2r87r03           2748 	jp	NC,00105$
                           2749 ;main.c:455: x = 2 + (counter % 16);
   033C 78                 2750 	ld	a,b
   033D E6 0F              2751 	and	a, #0x0F
   033F C6 02              2752 	add	a, #0x02
   0341 F8 00              2753 	ldhl	sp,#0
   0343 77                 2754 	ld	(hl),a
                           2755 ;main.c:456: y = 2 + divide_UINT8(counter, 16);
   0344 C5                 2756 	push	bc
   0345 3E 10              2757 	ld	a,#0x10
   0347 F5                 2758 	push	af
   0348 33                 2759 	inc	sp
   0349 C5                 2760 	push	bc
   034A 33                 2761 	inc	sp
   034B CDr00r00           2762 	call	_divide_UINT8
   034E E8 02              2763 	add	sp, #2
   0350 C1                 2764 	pop	bc
   0351 4B                 2765 	ld	c,e
   0352 0C                 2766 	inc	c
   0353 0C                 2767 	inc	c
                           2768 ;main.c:460: set_win_tiles(x, y, 1, 1, &text_map[counter]);
   0354 11r88r03           2769 	ld	de,#_text_map
   0357 68                 2770 	ld	l,b
   0358 26 00              2771 	ld	h,#0x00
   035A 19                 2772 	add	hl,de
   035B 7D                 2773 	ld	a,l
   035C 54                 2774 	ld	d,h
   035D F8 01              2775 	ldhl	sp,#1
   035F 22                 2776 	ld	(hl+),a
   0360 72                 2777 	ld	(hl),d
   0361 2B                 2778 	dec	hl
   0362 5E                 2779 	ld	e,(hl)
   0363 23                 2780 	inc	hl
   0364 56                 2781 	ld	d,(hl)
   0365 C5                 2782 	push	bc
   0366 D5                 2783 	push	de
   0367 21 01 01           2784 	ld	hl,#0x0101
   036A E5                 2785 	push	hl
   036B 79                 2786 	ld	a,c
   036C F5                 2787 	push	af
   036D 33                 2788 	inc	sp
   036E F8 07              2789 	ldhl	sp,#7
   0370 7E                 2790 	ld	a,(hl)
   0371 F5                 2791 	push	af
   0372 33                 2792 	inc	sp
   0373 CDr00r00           2793 	call	_set_win_tiles
   0376 E8 06              2794 	add	sp, #6
   0378 C1                 2795 	pop	bc
                           2796 ;main.c:461: sleep(4);
   0379 C5                 2797 	push	bc
   037A 3E 04              2798 	ld	a,#0x04
   037C F5                 2799 	push	af
   037D 33                 2800 	inc	sp
   037E CDr8Ar03           2801 	call	_sleep
   0381 33                 2802 	inc	sp
   0382 C1                 2803 	pop	bc
                           2804 ;main.c:454: for (counter = 0; counter < len; ++counter) {
   0383 04                 2805 	inc	b
   0384 C3r35r03           2806 	jp	00103$
   0387                    2807 00105$:
   0387 E8 03              2808 	add	sp, #3
   0389 C9                 2809 	ret
                           2810 ;main.c:465: void sleep(UINT8 cycles)
                           2811 ;	---------------------------------
                           2812 ; Function sleep
                           2813 ; ---------------------------------
   038A                    2814 _sleep::
                           2815 ;main.c:468: for(counter = 0; counter < cycles; ++counter){
   038A 06 00              2816 	ld	b,#0x00
   038C                    2817 00103$:
   038C 78                 2818 	ld	a,b
   038D F8 02              2819 	ldhl	sp,#2
   038F 96                 2820 	sub	a, (hl)
   0390 D0                 2821 	ret	NC
                           2822 ;main.c:469: wait_vbl_done();
   0391 C5                 2823 	push	bc
   0392 CDr00r00           2824 	call	_wait_vbl_done
   0395 C1                 2825 	pop	bc
                           2826 ;main.c:468: for(counter = 0; counter < cycles; ++counter){
   0396 04                 2827 	inc	b
   0397 18 F3              2828 	jr	00103$
   0399 C9                 2829 	ret
                           2830 ;main.c:473: void process_button_press(void)
                           2831 ;	---------------------------------
                           2832 ; Function process_button_press
                           2833 ; ---------------------------------
   039A                    2834 _process_button_press::
   039A E8 FE              2835 	add	sp, #-2
                           2836 ;main.c:475: UINT8 input = joypad();
   039C CDr00r00           2837 	call	_joypad
   039F 43                 2838 	ld	b,e
                           2839 ;main.c:476: if (input) {
   03A0 78                 2840 	ld	a,b
   03A1 B7                 2841 	or	a, a
   03A2 CArDBr03           2842 	jp	Z,00105$
                           2843 ;main.c:477: if (number_of_bits_set(input) > 1) {
   03A5 C5                 2844 	push	bc
   03A6 C5                 2845 	push	bc
   03A7 33                 2846 	inc	sp
   03A8 CDrDEr03           2847 	call	_number_of_bits_set
   03AB 33                 2848 	inc	sp
   03AC 4B                 2849 	ld	c,e
   03AD F1                 2850 	pop	af
   03AE 47                 2851 	ld	b,a
   03AF 3E 01              2852 	ld	a,#0x01
   03B1 91                 2853 	sub	a, c
   03B2 30 07              2854 	jr	NC,00102$
                           2855 ;main.c:478: input = return_lsb_set(input);
   03B4 C5                 2856 	push	bc
   03B5 33                 2857 	inc	sp
   03B6 CDrFEr03           2858 	call	_return_lsb_set
   03B9 33                 2859 	inc	sp
   03BA 43                 2860 	ld	b,e
   03BB                    2861 00102$:
                           2862 ;main.c:481: input_seq[input_seq_ctr] = input;
   03BB 11rA8r03           2863 	ld	de,#_input_seq
   03BE 21rB8r03           2864 	ld	hl,#_input_seq_ctr
   03C1 6E                 2865 	ld	l,(hl)
   03C2 26 00              2866 	ld	h,#0x00
   03C4 19                 2867 	add	hl,de
   03C5 33                 2868 	inc	sp
   03C6 33                 2869 	inc	sp
   03C7 E5                 2870 	push	hl
   03C8 E1                 2871 	pop	hl
   03C9 E5                 2872 	push	hl
   03CA 70                 2873 	ld	(hl),b
                           2874 ;main.c:482: input_seq_ctr++;
   03CB 21rB8r03           2875 	ld	hl,#_input_seq_ctr
   03CE 34                 2876 	inc	(hl)
                           2877 ;main.c:483: display_button_press();
   03CF CDr22r04           2878 	call	_display_button_press
                           2879 ;main.c:487: delay(50);
   03D2 21 32 00           2880 	ld	hl,#0x0032
   03D5 E5                 2881 	push	hl
   03D6 CDr00r00           2882 	call	_delay
   03D9 E8 02              2883 	add	sp, #2
   03DB                    2884 00105$:
   03DB E8 02              2885 	add	sp, #2
   03DD C9                 2886 	ret
                           2887 ;main.c:492: UINT8 number_of_bits_set(UINT8 x)
                           2888 ;	---------------------------------
                           2889 ; Function number_of_bits_set
                           2890 ; ---------------------------------
   03DE                    2891 _number_of_bits_set::
                           2892 ;main.c:496: UINT8 mask = 0x1U;
   03DE 06 01              2893 	ld	b,#0x01
                           2894 ;main.c:498: if (x == 0x0U) {
   03E0 F8 02              2895 	ldhl	sp,#2
   03E2 7E                 2896 	ld	a,(hl)
                           2897 ;main.c:499: return result;
   03E3 B7                 2898 	or	a,a
   03E4 20 02              2899 	jr	NZ,00102$
   03E6 5F                 2900 	ld	e,a
   03E7 C9                 2901 	ret
   03E8                    2902 00102$:
                           2903 ;main.c:502: for (i = 0x0U; i < 0x8U; ++i) {
   03E8 16 08              2904 	ld	d,#0x08
   03EA 0E 00              2905 	ld	c,#0x00
   03EC                    2906 00108$:
                           2907 ;main.c:503: if (mask & x) {
   03EC 78                 2908 	ld	a,b
   03ED F8 02              2909 	ldhl	sp,#2
   03EF A6                 2910 	and	a,(hl)
   03F0 28 01              2911 	jr	Z,00104$
                           2912 ;main.c:504: result++;
   03F2 0C                 2913 	inc	c
   03F3                    2914 00104$:
                           2915 ;main.c:506: mask = mask << 0x1;
   03F3 CB 20              2916 	sla	b
   03F5 7A                 2917 	ld	a,d
   03F6 C6 FF              2918 	add	a,#0xFF
   03F8 57                 2919 	ld	d,a
                           2920 ;main.c:502: for (i = 0x0U; i < 0x8U; ++i) {
   03F9 B7                 2921 	or	a, a
   03FA 20 F0              2922 	jr	NZ,00108$
                           2923 ;main.c:509: return result;
   03FC 59                 2924 	ld	e,c
   03FD C9                 2925 	ret
                           2926 ;main.c:515: UINT8 return_lsb_set(UINT8 x)
                           2927 ;	---------------------------------
                           2928 ; Function return_lsb_set
                           2929 ; ---------------------------------
   03FE                    2930 _return_lsb_set::
                           2931 ;main.c:517: UINT8 mask = 0x1U;
   03FE 1E 01              2932 	ld	e,#0x01
                           2933 ;main.c:519: if (x == 0x0U) {
   0400 F8 02              2934 	ldhl	sp,#2
   0402 7E                 2935 	ld	a,(hl)
                           2936 ;main.c:520: return 0x0U;
   0403 B7                 2937 	or	a,a
   0404 20 02              2938 	jr	NZ,00103$
   0406 5F                 2939 	ld	e,a
   0407 C9                 2940 	ret
                           2941 ;main.c:523: while (!(mask & x)) {
   0408                    2942 00103$:
   0408 7B                 2943 	ld	a,e
   0409 F8 02              2944 	ldhl	sp,#2
   040B A6                 2945 	and	a,(hl)
   040C 20 04              2946 	jr	NZ,00105$
                           2947 ;main.c:524: mask = mask << 0x1;
   040E CB 23              2948 	sla	e
   0410 18 F6              2949 	jr	00103$
   0412                    2950 00105$:
                           2951 ;main.c:527: return mask;
   0412 C9                 2952 	ret
                           2953 ;main.c:532: UINT8 log2(UINT8 x)
                           2954 ;	---------------------------------
                           2955 ; Function log2
                           2956 ; ---------------------------------
   0413                    2957 _log2::
                           2958 ;main.c:535: UINT8 mask = 0x1U;
   0413 16 01              2959 	ld	d,#0x01
                           2960 ;main.c:537: while (mask != x) {
   0415 1E 00              2961 	ld	e,#0x00
   0417                    2962 00101$:
   0417 F8 02              2963 	ldhl	sp,#2
   0419 7E                 2964 	ld	a,(hl)
   041A 92                 2965 	sub	a, d
   041B C8                 2966 	ret	Z
                           2967 ;main.c:538: result++;
   041C 1C                 2968 	inc	e
                           2969 ;main.c:539: mask = mask << 0x1;
   041D CB 22              2970 	sla	d
   041F 18 F6              2971 	jr	00101$
                           2972 ;main.c:542: return result;
   0421 C9                 2973 	ret
                           2974 ;main.c:547: void display_button_press(void)
                           2975 ;	---------------------------------
                           2976 ; Function display_button_press
                           2977 ; ---------------------------------
   0422                    2978 _display_button_press::
   0422 E8 FE              2979 	add	sp, #-2
                           2980 ;main.c:554: input_index = input_seq_ctr - 1;
   0424 21rB8r03           2981 	ld	hl,#_input_seq_ctr
   0427 7E                 2982 	ld	a,(hl)
   0428 C6 FF              2983 	add	a,#0xFF
   042A F8 00              2984 	ldhl	sp,#0
   042C 77                 2985 	ld	(hl),a
                           2986 ;main.c:555: button_pressed = input_seq[input_index];
   042D 11rA8r03           2987 	ld	de,#_input_seq
   0430 6E                 2988 	ld	l,(hl)
   0431 26 00              2989 	ld	h,#0x00
   0433 19                 2990 	add	hl,de
   0434 4D                 2991 	ld	c,l
   0435 44                 2992 	ld	b,h
   0436 0A                 2993 	ld	a,(bc)
                           2994 ;main.c:556: button_address = button_address_start + log2(button_pressed);
   0437 F5                 2995 	push	af
   0438 33                 2996 	inc	sp
   0439 CDr13r04           2997 	call	_log2
   043C 33                 2998 	inc	sp
   043D 7B                 2999 	ld	a,e
   043E C6 30              3000 	add	a, #0x30
   0440 F8 01              3001 	ldhl	sp,#1
   0442 77                 3002 	ld	(hl),a
                           3003 ;main.c:557: text_map[input_index] = button_address;
   0443 11r88r03           3004 	ld	de,#_text_map
   0446 2B                 3005 	dec	hl
   0447 6E                 3006 	ld	l,(hl)
   0448 26 00              3007 	ld	h,#0x00
   044A 19                 3008 	add	hl,de
   044B 4D                 3009 	ld	c,l
   044C 44                 3010 	ld	b,h
   044D F8 01              3011 	ldhl	sp,#1
   044F 7E                 3012 	ld	a,(hl)
   0450 02                 3013 	ld	(bc),a
                           3014 ;main.c:558: x = 2 + (input_index % 16);
   0451 2B                 3015 	dec	hl
   0452 7E                 3016 	ld	a,(hl)
   0453 E6 0F              3017 	and	a, #0x0F
   0455 57                 3018 	ld	d,a
   0456 14                 3019 	inc	d
   0457 14                 3020 	inc	d
                           3021 ;main.c:559: set_win_tiles(x, 0x2U, 0x1U, 0x1U, &text_map[input_index]);
   0458 C5                 3022 	push	bc
   0459 21 01 01           3023 	ld	hl,#0x0101
   045C E5                 3024 	push	hl
   045D 3E 02              3025 	ld	a,#0x02
   045F F5                 3026 	push	af
   0460 33                 3027 	inc	sp
   0461 D5                 3028 	push	de
   0462 33                 3029 	inc	sp
   0463 CDr00r00           3030 	call	_set_win_tiles
   0466 E8 06              3031 	add	sp, #6
   0468 E8 02              3032 	add	sp, #2
   046A C9                 3033 	ret
                           3034 ;main.c:562: void check_sequence(void)
                           3035 ;	---------------------------------
                           3036 ; Function check_sequence
                           3037 ; ---------------------------------
   046B                    3038 _check_sequence::
   046B E8 FD              3039 	add	sp, #-3
                           3040 ;main.c:567: for (i = 0; i < SEQ_LEN; ++i) {
   046D F8 01              3041 	ldhl	sp,#1
   046F 36 00              3042 	ld	(hl),#0x00
   0471 2B                 3043 	dec	hl
   0472 36 00              3044 	ld	(hl),#0x00
   0474                    3045 00107$:
                           3046 ;main.c:569: key_b[0] = 0x72ae38ba;
   0474 21rD9r03           3047 	ld	hl,#_key_b
   0477 36 BA              3048 	ld	(hl),#0xBA
   0479 23                 3049 	inc	hl
   047A 36 38              3050 	ld	(hl),#0x38
   047C 23                 3051 	inc	hl
   047D 36 AE              3052 	ld	(hl),#0xAE
   047F 23                 3053 	inc	hl
   0480 36 72              3054 	ld	(hl),#0x72
                           3055 ;main.c:571: if (input_seq[i] & solution_seq[i]) {
   0482 11rA8r03           3056 	ld	de,#_input_seq
   0485 F8 00              3057 	ldhl	sp,#0
   0487 6E                 3058 	ld	l,(hl)
   0488 26 00              3059 	ld	h,#0x00
   048A 19                 3060 	add	hl,de
   048B 4D                 3061 	ld	c,l
   048C 44                 3062 	ld	b,h
   048D 0A                 3063 	ld	a,(bc)
   048E F8 02              3064 	ldhl	sp,#2
   0490 77                 3065 	ld	(hl),a
   0491 11rF2r00           3066 	ld	de,#_solution_seq
   0494 2B                 3067 	dec	hl
   0495 2B                 3068 	dec	hl
   0496 6E                 3069 	ld	l,(hl)
   0497 26 00              3070 	ld	h,#0x00
   0499 19                 3071 	add	hl,de
   049A 4D                 3072 	ld	c,l
   049B 44                 3073 	ld	b,h
   049C 0A                 3074 	ld	a,(bc)
   049D F8 02              3075 	ldhl	sp,#2
   049F A6                 3076 	and	a,(hl)
   04A0 28 10              3077 	jr	Z,00108$
                           3078 ;main.c:572: pass++;
   04A2 2B                 3079 	dec	hl
   04A3 34                 3080 	inc	(hl)
                           3081 ;main.c:575: key_b[1] = 0xa106f553;
   04A4 21rDDr03           3082 	ld	hl,#(_key_b + 0x0004)
   04A7 36 53              3083 	ld	(hl),#0x53
   04A9 23                 3084 	inc	hl
   04AA 36 F5              3085 	ld	(hl),#0xF5
   04AC 23                 3086 	inc	hl
   04AD 36 06              3087 	ld	(hl),#0x06
   04AF 23                 3088 	inc	hl
   04B0 36 A1              3089 	ld	(hl),#0xA1
   04B2                    3090 00108$:
                           3091 ;main.c:567: for (i = 0; i < SEQ_LEN; ++i) {
   04B2 F8 00              3092 	ldhl	sp,#0
   04B4 34                 3093 	inc	(hl)
   04B5 46                 3094 	ld	b,(hl)
   04B6 0E 00              3095 	ld	c,#0x00
   04B8 78                 3096 	ld	a,b
   04B9 D6 10              3097 	sub	a, #0x10
   04BB 79                 3098 	ld	a,c
   04BC DE 00              3099 	sbc	a, #0x00
   04BE DAr74r04           3100 	jp	C,00107$
                           3101 ;main.c:579: if (pass == SEQ_LEN) {
   04C1 23                 3102 	inc	hl
   04C2 5E                 3103 	ld	e,(hl)
   04C3 16 00              3104 	ld	d,#0x00
   04C5 7B                 3105 	ld	a,e
   04C6 D6 10              3106 	sub	a, #0x10
   04C8 20 17              3107 	jr	NZ,00105$
   04CA 7A                 3108 	ld	a,d
   04CB B7                 3109 	or	a, a
   04CC 20 13              3110 	jr	NZ,00105$
                           3111 ;main.c:581: key_b[2] = 0x1ea97c53;
   04CE 21rE1r03           3112 	ld	hl,#(_key_b + 0x0008)
   04D1 36 53              3113 	ld	(hl),#0x53
   04D3 23                 3114 	inc	hl
   04D4 36 7C              3115 	ld	(hl),#0x7C
   04D6 23                 3116 	inc	hl
   04D7 36 A9              3117 	ld	(hl),#0xA9
   04D9 23                 3118 	inc	hl
   04DA 36 1E              3119 	ld	(hl),#0x1E
                           3120 ;main.c:583: pass_level_1();
   04DC CDrE7r04           3121 	call	_pass_level_1
   04DF 18 03              3122 	jr	00109$
   04E1                    3123 00105$:
                           3124 ;main.c:585: fail_level_1();
   04E1 CDrBCr05           3125 	call	_fail_level_1
   04E4                    3126 00109$:
   04E4 E8 03              3127 	add	sp, #3
   04E6 C9                 3128 	ret
                           3129 ;main.c:589: void pass_level_1(void)
                           3130 ;	---------------------------------
                           3131 ; Function pass_level_1
                           3132 ; ---------------------------------
   04E7                    3133 _pass_level_1::
   04E7 E8 DF              3134 	add	sp, #-33
                           3135 ;main.c:594: key_b[3] = 0xcfa8e0b3;
   04E9 21rE5r03           3136 	ld	hl,#(_key_b + 0x000c)
   04EC 36 B3              3137 	ld	(hl),#0xB3
   04EE 23                 3138 	inc	hl
   04EF 36 E0              3139 	ld	(hl),#0xE0
   04F1 23                 3140 	inc	hl
   04F2 36 A8              3141 	ld	(hl),#0xA8
   04F4 23                 3142 	inc	hl
   04F5 36 CF              3143 	ld	(hl),#0xCF
                           3144 ;main.c:597: decrypt((UINT32 *)flag_a, key_a);
   04F7 11rB9r03           3145 	ld	de,#_flag_a
   04FA 21rC9r03           3146 	ld	hl,#_key_a
   04FD E5                 3147 	push	hl
   04FE D5                 3148 	push	de
   04FF CDrF6r05           3149 	call	_decrypt
   0502 E8 04              3150 	add	sp, #4
                           3151 ;main.c:598: decrypt((UINT32 *)flag_b, key_b);
   0504 11rC1r03           3152 	ld	de,#_flag_b
   0507 21rD9r03           3153 	ld	hl,#_key_b
   050A E5                 3154 	push	hl
   050B D5                 3155 	push	de
   050C CDrF6r05           3156 	call	_decrypt
   050F E8 04              3157 	add	sp, #4
                           3158 ;main.c:601: remove_flag_padding();
   0511 CDr7Fr09           3159 	call	_remove_flag_padding
                           3160 ;main.c:604: strcpy((char *)flag_string, "1ST FLAG IS     ");
   0514 F8 00              3161 	ldhl	sp,#0
   0516 4D                 3162 	ld	c,l
   0517 44                 3163 	ld	b,h
   0518 59                 3164 	ld	e, c
   0519 50                 3165 	ld	d, b
   051A C5                 3166 	push	bc
   051B 21r94r05           3167 	ld	hl,#___str_0
   051E E5                 3168 	push	hl
   051F D5                 3169 	push	de
   0520 CDr00r00           3170 	call	_strcpy
   0523 E8 04              3171 	add	sp, #4
   0525 C1                 3172 	pop	bc
                           3173 ;main.c:605: memcpy(flag_string + 0x10U, flag_a, FLAG_LEN);
   0526 21 10 00           3174 	ld	hl,#0x0010
   0529 09                 3175 	add	hl,bc
   052A 7D                 3176 	ld	a,l
   052B 54                 3177 	ld	d,h
   052C F8 1F              3178 	ldhl	sp,#31
   052E 22                 3179 	ld	(hl+),a
   052F 72                 3180 	ld	(hl),d
   0530 2B                 3181 	dec	hl
   0531 5E                 3182 	ld	e,(hl)
   0532 23                 3183 	inc	hl
   0533 56                 3184 	ld	d,(hl)
   0534 C5                 3185 	push	bc
   0535 21 08 00           3186 	ld	hl,#0x0008
   0538 E5                 3187 	push	hl
   0539 21rB9r03           3188 	ld	hl,#_flag_a
   053C E5                 3189 	push	hl
   053D D5                 3190 	push	de
   053E CDr00r00           3191 	call	_memcpy
   0541 E8 06              3192 	add	sp, #6
   0543 C1                 3193 	pop	bc
                           3194 ;main.c:606: flag_string[0x18U] = '\0';
   0544 21 18 00           3195 	ld	hl,#0x0018
   0547 09                 3196 	add	hl,bc
   0548 7D                 3197 	ld	a,l
   0549 54                 3198 	ld	d,h
   054A F8 1F              3199 	ldhl	sp,#31
   054C 22                 3200 	ld	(hl+),a
   054D 72                 3201 	ld	(hl),d
   054E 2B                 3202 	dec	hl
   054F 2A                 3203 	ld	a,(hl+)
   0550 66                 3204 	ld	h,(hl)
   0551 6F                 3205 	ld	l,a
   0552 36 00              3206 	ld	(hl),#0x00
                           3207 ;main.c:607: strcat((char *)flag_string, flag_b);
   0554 59                 3208 	ld	e, c
   0555 50                 3209 	ld	d, b
   0556 C5                 3210 	push	bc
   0557 21rC1r03           3211 	ld	hl,#_flag_b
   055A E5                 3212 	push	hl
   055B D5                 3213 	push	de
   055C CDr00r00           3214 	call	_strcat
   055F E8 04              3215 	add	sp, #4
   0561 C1                 3216 	pop	bc
                           3217 ;main.c:608: strcat((char *)flag_string, ".");
   0562 59                 3218 	ld	e, c
   0563 50                 3219 	ld	d, b
   0564 C5                 3220 	push	bc
   0565 21rA5r05           3221 	ld	hl,#___str_1
   0568 E5                 3222 	push	hl
   0569 D5                 3223 	push	de
   056A CDr00r00           3224 	call	_strcat
   056D E8 04              3225 	add	sp, #4
   056F C1                 3226 	pop	bc
                           3227 ;main.c:610: show_text("THAT WORKED.");
   0570 11rA7r05           3228 	ld	de,#___str_2
   0573 C5                 3229 	push	bc
   0574 D5                 3230 	push	de
   0575 CDr89r02           3231 	call	_show_text
   0578 E8 02              3232 	add	sp, #2
   057A C1                 3233 	pop	bc
                           3234 ;main.c:611: show_text("I\'M IN.");
   057B 11rB4r05           3235 	ld	de,#___str_3
   057E C5                 3236 	push	bc
   057F D5                 3237 	push	de
   0580 CDr89r02           3238 	call	_show_text
   0583 E8 02              3239 	add	sp, #2
   0585 C1                 3240 	pop	bc
                           3241 ;main.c:612: show_text((char *)flag_string);
   0586 C5                 3242 	push	bc
   0587 CDr89r02           3243 	call	_show_text
   058A E8 02              3244 	add	sp, #2
                           3245 ;main.c:613: clear_window();
   058C CDr68r02           3246 	call	_clear_window
                           3247 ;main.c:616: while (1) {}
   058F                    3248 00102$:
   058F 18 FE              3249 	jr	00102$
   0591 E8 21              3250 	add	sp, #33
   0593 C9                 3251 	ret
   0594                    3252 ___str_0:
   0594 31 53 54 20 46 4C  3253 	.ascii "1ST FLAG IS     "
        41 47 20 49 53 20
        20 20 20 20
   05A4 00                 3254 	.db 0x00
   05A5                    3255 ___str_1:
   05A5 2E                 3256 	.ascii "."
   05A6 00                 3257 	.db 0x00
   05A7                    3258 ___str_2:
   05A7 54 48 41 54 20 57  3259 	.ascii "THAT WORKED."
        4F 52 4B 45 44 2E
   05B3 00                 3260 	.db 0x00
   05B4                    3261 ___str_3:
   05B4 49 27 4D 20 49 4E  3262 	.ascii "I'M IN."
        2E
   05BB 00                 3263 	.db 0x00
                           3264 ;main.c:619: void fail_level_1(void)
                           3265 ;	---------------------------------
                           3266 ; Function fail_level_1
                           3267 ; ---------------------------------
   05BC                    3268 _fail_level_1::
                           3269 ;main.c:621: show_text("NO GOOD.");
   05BC 11rD1r05           3270 	ld	de,#___str_4
   05BF D5                 3271 	push	de
   05C0 CDr89r02           3272 	call	_show_text
   05C3 E8 02              3273 	add	sp, #2
                           3274 ;main.c:622: show_text("LET ME TRY SOME THING ELSE.");
   05C5 11rDAr05           3275 	ld	de,#___str_5
   05C8 D5                 3276 	push	de
   05C9 CDr89r02           3277 	call	_show_text
   05CC E8 02              3278 	add	sp, #2
                           3279 ;main.c:623: clear_window();
   05CE C3r68r02           3280 	jp	_clear_window
   05D1                    3281 ___str_4:
   05D1 4E 4F 20 47 4F 4F  3282 	.ascii "NO GOOD."
        44 2E
   05D9 00                 3283 	.db 0x00
   05DA                    3284 ___str_5:
   05DA 4C 45 54 20 4D 45  3285 	.ascii "LET ME TRY SOME THING ELSE."
        20 54 52 59 20 53
        4F 4D 45 20 54 48
        49 4E 47 20 45 4C
        53 45 2E
   05F5 00                 3286 	.db 0x00
                           3287 ;main.c:626: void decrypt(UINT32 *v, UINT32 *k)
                           3288 ;	---------------------------------
                           3289 ; Function decrypt
                           3290 ; ---------------------------------
   05F6                    3291 _decrypt::
   05F6 E8 D2              3292 	add	sp, #-46
                           3293 ;main.c:628: UINT32 v0=v[0], v1=v[1], sum=0xC6EF3720, i;  /* set up */
   05F8 F8 30              3294 	ldhl	sp,#48
   05FA 2A                 3295 	ld	a,(hl+)
   05FB 5E                 3296 	ld	e, (hl)
   05FC F8 2C              3297 	ldhl	sp,#44
   05FE 22                 3298 	ld	(hl+),a
   05FF 73                 3299 	ld	(hl),e
   0600 2B                 3300 	dec	hl
   0601 5E                 3301 	ld	e,(hl)
   0602 23                 3302 	inc	hl
   0603 56                 3303 	ld	d,(hl)
   0604 1A                 3304 	ld	a,(de)
   0605 F8 0C              3305 	ldhl	sp,#12
   0607 22                 3306 	ld	(hl+),a
   0608 13                 3307 	inc	de
   0609 1A                 3308 	ld	a,(de)
   060A 22                 3309 	ld	(hl+),a
   060B 13                 3310 	inc	de
   060C 1A                 3311 	ld	a,(de)
   060D 22                 3312 	ld	(hl+),a
   060E 13                 3313 	inc	de
   060F 1A                 3314 	ld	a,(de)
   0610 77                 3315 	ld	(hl),a
   0611 F8 2D              3316 	ldhl	sp,#45
   0613 2B                 3317 	dec	hl
   0614 5E                 3318 	ld	e,(hl)
   0615 23                 3319 	inc	hl
   0616 56                 3320 	ld	d,(hl)
   0617 21 04 00           3321 	ld	hl,#0x0004
   061A 19                 3322 	add	hl,de
   061B 7D                 3323 	ld	a,l
   061C 54                 3324 	ld	d,h
   061D F8 2A              3325 	ldhl	sp,#42
   061F 22                 3326 	ld	(hl+),a
   0620 72                 3327 	ld	(hl),d
   0621 2B                 3328 	dec	hl
   0622 5E                 3329 	ld	e,(hl)
   0623 23                 3330 	inc	hl
   0624 56                 3331 	ld	d,(hl)
   0625 1A                 3332 	ld	a,(de)
   0626 F8 00              3333 	ldhl	sp,#0
   0628 22                 3334 	ld	(hl+),a
   0629 13                 3335 	inc	de
   062A 1A                 3336 	ld	a,(de)
   062B 22                 3337 	ld	(hl+),a
   062C 13                 3338 	inc	de
   062D 1A                 3339 	ld	a,(de)
   062E 22                 3340 	ld	(hl+),a
   062F 13                 3341 	inc	de
   0630 1A                 3342 	ld	a,(de)
   0631 77                 3343 	ld	(hl),a
                           3344 ;main.c:630: UINT32 k0=k[0], k1=k[1], k2=k[2], k3=k[3];   /* cache key */
   0632 F8 33              3345 	ldhl	sp,#51
   0634 2B                 3346 	dec	hl
   0635 4E                 3347 	ld	c,(hl)
   0636 23                 3348 	inc	hl
   0637 46                 3349 	ld	b,(hl)
   0638 59                 3350 	ld	e, c
   0639 50                 3351 	ld	d, b
   063A 1A                 3352 	ld	a,(de)
   063B F8 14              3353 	ldhl	sp,#20
   063D 22                 3354 	ld	(hl+),a
   063E 13                 3355 	inc	de
   063F 1A                 3356 	ld	a,(de)
   0640 22                 3357 	ld	(hl+),a
   0641 13                 3358 	inc	de
   0642 1A                 3359 	ld	a,(de)
   0643 22                 3360 	ld	(hl+),a
   0644 13                 3361 	inc	de
   0645 1A                 3362 	ld	a,(de)
   0646 77                 3363 	ld	(hl),a
   0647 21 04 00           3364 	ld	hl,#0x0004
   064A 09                 3365 	add	hl,bc
   064B 7D                 3366 	ld	a,l
   064C 54                 3367 	ld	d,h
   064D F8 28              3368 	ldhl	sp,#40
   064F 22                 3369 	ld	(hl+),a
   0650 72                 3370 	ld	(hl),d
   0651 2B                 3371 	dec	hl
   0652 5E                 3372 	ld	e,(hl)
   0653 23                 3373 	inc	hl
   0654 56                 3374 	ld	d,(hl)
   0655 1A                 3375 	ld	a,(de)
   0656 F8 10              3376 	ldhl	sp,#16
   0658 22                 3377 	ld	(hl+),a
   0659 13                 3378 	inc	de
   065A 1A                 3379 	ld	a,(de)
   065B 22                 3380 	ld	(hl+),a
   065C 13                 3381 	inc	de
   065D 1A                 3382 	ld	a,(de)
   065E 22                 3383 	ld	(hl+),a
   065F 13                 3384 	inc	de
   0660 1A                 3385 	ld	a,(de)
   0661 77                 3386 	ld	(hl),a
   0662 21 08 00           3387 	ld	hl,#0x0008
   0665 09                 3388 	add	hl,bc
   0666 7D                 3389 	ld	a,l
   0667 54                 3390 	ld	d,h
   0668 F8 28              3391 	ldhl	sp,#40
   066A 22                 3392 	ld	(hl+),a
   066B 72                 3393 	ld	(hl),d
   066C 2B                 3394 	dec	hl
   066D 5E                 3395 	ld	e,(hl)
   066E 23                 3396 	inc	hl
   066F 56                 3397 	ld	d,(hl)
   0670 1A                 3398 	ld	a,(de)
   0671 F8 1C              3399 	ldhl	sp,#28
   0673 22                 3400 	ld	(hl+),a
   0674 13                 3401 	inc	de
   0675 1A                 3402 	ld	a,(de)
   0676 22                 3403 	ld	(hl+),a
   0677 13                 3404 	inc	de
   0678 1A                 3405 	ld	a,(de)
   0679 22                 3406 	ld	(hl+),a
   067A 13                 3407 	inc	de
   067B 1A                 3408 	ld	a,(de)
   067C 77                 3409 	ld	(hl),a
   067D 21 0C 00           3410 	ld	hl,#0x000C
   0680 09                 3411 	add	hl,bc
   0681 4D                 3412 	ld	c,l
   0682 44                 3413 	ld	b,h
   0683 59                 3414 	ld	e, c
   0684 50                 3415 	ld	d, b
   0685 1A                 3416 	ld	a,(de)
   0686 F8 18              3417 	ldhl	sp,#24
   0688 22                 3418 	ld	(hl+),a
   0689 13                 3419 	inc	de
   068A 1A                 3420 	ld	a,(de)
   068B 22                 3421 	ld	(hl+),a
   068C 13                 3422 	inc	de
   068D 1A                 3423 	ld	a,(de)
   068E 22                 3424 	ld	(hl+),a
   068F 13                 3425 	inc	de
   0690 1A                 3426 	ld	a,(de)
   0691 77                 3427 	ld	(hl),a
                           3428 ;main.c:631: for (i=0; i<32; i++) {                         /* basic cycle start */
   0692 F8 04              3429 	ldhl	sp,#4
   0694 36 20              3430 	ld	(hl),#0x20
   0696 AF                 3431 	xor	a, a
   0697 23                 3432 	inc	hl
   0698 22                 3433 	ld	(hl+),a
   0699 22                 3434 	ld	(hl+),a
   069A 22                 3435 	ld	(hl+),a
   069B 36 20              3436 	ld	(hl),#0x20
   069D 23                 3437 	inc	hl
   069E 36 37              3438 	ld	(hl),#0x37
   06A0 23                 3439 	inc	hl
   06A1 36 EF              3440 	ld	(hl),#0xEF
   06A3 23                 3441 	inc	hl
   06A4 36 C6              3442 	ld	(hl),#0xC6
   06A6                    3443 00104$:
                           3444 ;main.c:632: v1 -= ((v0<<4) + k2) ^ (v0 + sum) ^ ((v0>>5) + k3);
   06A6 F5                 3445 	push	af
   06A7 F8 0E              3446 	ldhl	sp,#14
   06A9 7E                 3447 	ld	a,(hl)
   06AA F8 26              3448 	ldhl	sp,#38
   06AC 77                 3449 	ld	(hl),a
   06AD F8 0F              3450 	ldhl	sp,#15
   06AF 7E                 3451 	ld	a,(hl)
   06B0 F8 27              3452 	ldhl	sp,#39
   06B2 77                 3453 	ld	(hl),a
   06B3 F8 10              3454 	ldhl	sp,#16
   06B5 7E                 3455 	ld	a,(hl)
   06B6 F8 28              3456 	ldhl	sp,#40
   06B8 77                 3457 	ld	(hl),a
   06B9 F8 11              3458 	ldhl	sp,#17
   06BB 7E                 3459 	ld	a,(hl)
   06BC F8 29              3460 	ldhl	sp,#41
   06BE 77                 3461 	ld	(hl),a
   06BF F1                 3462 	pop	af
   06C0 3E 04              3463 	ld	a,#0x04
   06C2                    3464 00116$:
   06C2 F8 24              3465 	ldhl	sp,#36
   06C4 CB 26              3466 	sla	(hl)
   06C6 23                 3467 	inc	hl
   06C7 CB 16              3468 	rl	(hl)
   06C9 23                 3469 	inc	hl
   06CA CB 16              3470 	rl	(hl)
   06CC 23                 3471 	inc	hl
   06CD CB 16              3472 	rl	(hl)
   06CF 3D                 3473 	dec	a
   06D0 20 F0              3474 	jr	NZ,00116$
   06D2 2B                 3475 	dec	hl
   06D3 2B                 3476 	dec	hl
   06D4 2B                 3477 	dec	hl
   06D5 5E                 3478 	ld	e,(hl)
   06D6 23                 3479 	inc	hl
   06D7 56                 3480 	ld	d,(hl)
   06D8 7B                 3481 	ld	a,e
   06D9 F8 1C              3482 	ldhl	sp,#28
   06DB 86                 3483 	add	a, (hl)
   06DC 5F                 3484 	ld	e,a
   06DD 7A                 3485 	ld	a,d
   06DE 23                 3486 	inc	hl
   06DF 8E                 3487 	adc	a, (hl)
   06E0 F5                 3488 	push	af
   06E1 F8 27              3489 	ldhl	sp,#39
   06E3 32                 3490 	ld	(hl-),a
   06E4 73                 3491 	ld	(hl),e
   06E5 F8 29              3492 	ldhl	sp,#41
   06E7 2B                 3493 	dec	hl
   06E8 5E                 3494 	ld	e,(hl)
   06E9 23                 3495 	inc	hl
   06EA 56                 3496 	ld	d,(hl)
   06EB F8 20              3497 	ldhl	sp,#32
   06ED F1                 3498 	pop	af
   06EE 7B                 3499 	ld	a,e
   06EF 8E                 3500 	adc	a, (hl)
   06F0 5F                 3501 	ld	e,a
   06F1 7A                 3502 	ld	a,d
   06F2 23                 3503 	inc	hl
   06F3 8E                 3504 	adc	a, (hl)
   06F4 F8 27              3505 	ldhl	sp,#39
   06F6 32                 3506 	ld	(hl-),a
   06F7 73                 3507 	ld	(hl),e
   06F8 F8 0D              3508 	ldhl	sp,#13
   06FA 2B                 3509 	dec	hl
   06FB 5E                 3510 	ld	e,(hl)
   06FC 23                 3511 	inc	hl
   06FD 56                 3512 	ld	d,(hl)
   06FE 7B                 3513 	ld	a,e
   06FF F8 08              3514 	ldhl	sp,#8
   0701 86                 3515 	add	a, (hl)
   0702 5F                 3516 	ld	e,a
   0703 7A                 3517 	ld	a,d
   0704 23                 3518 	inc	hl
   0705 8E                 3519 	adc	a, (hl)
   0706 F5                 3520 	push	af
   0707 F8 23              3521 	ldhl	sp,#35
   0709 32                 3522 	ld	(hl-),a
   070A 73                 3523 	ld	(hl),e
   070B F8 11              3524 	ldhl	sp,#17
   070D 2B                 3525 	dec	hl
   070E 5E                 3526 	ld	e,(hl)
   070F 23                 3527 	inc	hl
   0710 56                 3528 	ld	d,(hl)
   0711 F8 0C              3529 	ldhl	sp,#12
   0713 F1                 3530 	pop	af
   0714 7B                 3531 	ld	a,e
   0715 8E                 3532 	adc	a, (hl)
   0716 5F                 3533 	ld	e,a
   0717 7A                 3534 	ld	a,d
   0718 23                 3535 	inc	hl
   0719 8E                 3536 	adc	a, (hl)
   071A F8 23              3537 	ldhl	sp,#35
   071C 32                 3538 	ld	(hl-),a
   071D 73                 3539 	ld	(hl),e
   071E 2B                 3540 	dec	hl
   071F 2B                 3541 	dec	hl
   0720 7E                 3542 	ld	a,(hl)
   0721 F8 24              3543 	ldhl	sp,#36
   0723 AE                 3544 	xor	a, (hl)
   0724 F8 20              3545 	ldhl	sp,#32
   0726 22                 3546 	ld	(hl+),a
   0727 7E                 3547 	ld	a,(hl)
   0728 F8 25              3548 	ldhl	sp,#37
   072A AE                 3549 	xor	a, (hl)
   072B F8 21              3550 	ldhl	sp,#33
   072D 22                 3551 	ld	(hl+),a
   072E 7E                 3552 	ld	a,(hl)
   072F F8 26              3553 	ldhl	sp,#38
   0731 AE                 3554 	xor	a, (hl)
   0732 F8 22              3555 	ldhl	sp,#34
   0734 22                 3556 	ld	(hl+),a
   0735 7E                 3557 	ld	a,(hl)
   0736 F8 27              3558 	ldhl	sp,#39
   0738 AE                 3559 	xor	a, (hl)
   0739 F8 23              3560 	ldhl	sp,#35
   073B 77                 3561 	ld	(hl),a
   073C F5                 3562 	push	af
   073D F8 0E              3563 	ldhl	sp,#14
   073F 7E                 3564 	ld	a,(hl)
   0740 F8 26              3565 	ldhl	sp,#38
   0742 77                 3566 	ld	(hl),a
   0743 F8 0F              3567 	ldhl	sp,#15
   0745 7E                 3568 	ld	a,(hl)
   0746 F8 27              3569 	ldhl	sp,#39
   0748 77                 3570 	ld	(hl),a
   0749 F8 10              3571 	ldhl	sp,#16
   074B 7E                 3572 	ld	a,(hl)
   074C F8 28              3573 	ldhl	sp,#40
   074E 77                 3574 	ld	(hl),a
   074F F8 11              3575 	ldhl	sp,#17
   0751 7E                 3576 	ld	a,(hl)
   0752 F8 29              3577 	ldhl	sp,#41
   0754 77                 3578 	ld	(hl),a
   0755 F1                 3579 	pop	af
   0756 3E 05              3580 	ld	a,#0x05
   0758                    3581 00118$:
   0758 F8 27              3582 	ldhl	sp,#39
   075A CB 3E              3583 	srl	(hl)
   075C 2B                 3584 	dec	hl
   075D CB 1E              3585 	rr	(hl)
   075F 2B                 3586 	dec	hl
   0760 CB 1E              3587 	rr	(hl)
   0762 2B                 3588 	dec	hl
   0763 CB 1E              3589 	rr	(hl)
   0765 3D                 3590 	dec	a
   0766 20 F0              3591 	jr	NZ,00118$
   0768 5E                 3592 	ld	e,(hl)
   0769 23                 3593 	inc	hl
   076A 56                 3594 	ld	d,(hl)
   076B 7B                 3595 	ld	a,e
   076C F8 18              3596 	ldhl	sp,#24
   076E 86                 3597 	add	a, (hl)
   076F 5F                 3598 	ld	e,a
   0770 7A                 3599 	ld	a,d
   0771 23                 3600 	inc	hl
   0772 8E                 3601 	adc	a, (hl)
   0773 F5                 3602 	push	af
   0774 F8 27              3603 	ldhl	sp,#39
   0776 32                 3604 	ld	(hl-),a
   0777 73                 3605 	ld	(hl),e
   0778 F8 29              3606 	ldhl	sp,#41
   077A 2B                 3607 	dec	hl
   077B 5E                 3608 	ld	e,(hl)
   077C 23                 3609 	inc	hl
   077D 56                 3610 	ld	d,(hl)
   077E F8 1C              3611 	ldhl	sp,#28
   0780 F1                 3612 	pop	af
   0781 7B                 3613 	ld	a,e
   0782 8E                 3614 	adc	a, (hl)
   0783 5F                 3615 	ld	e,a
   0784 7A                 3616 	ld	a,d
   0785 23                 3617 	inc	hl
   0786 8E                 3618 	adc	a, (hl)
   0787 F8 27              3619 	ldhl	sp,#39
   0789 32                 3620 	ld	(hl-),a
   078A 73                 3621 	ld	(hl),e
   078B F8 20              3622 	ldhl	sp,#32
   078D 7E                 3623 	ld	a,(hl)
   078E F8 24              3624 	ldhl	sp,#36
   0790 AE                 3625 	xor	a, (hl)
   0791 F8 20              3626 	ldhl	sp,#32
   0793 22                 3627 	ld	(hl+),a
   0794 7E                 3628 	ld	a,(hl)
   0795 F8 25              3629 	ldhl	sp,#37
   0797 AE                 3630 	xor	a, (hl)
   0798 F8 21              3631 	ldhl	sp,#33
   079A 22                 3632 	ld	(hl+),a
   079B 7E                 3633 	ld	a,(hl)
   079C F8 26              3634 	ldhl	sp,#38
   079E AE                 3635 	xor	a, (hl)
   079F F8 22              3636 	ldhl	sp,#34
   07A1 22                 3637 	ld	(hl+),a
   07A2 7E                 3638 	ld	a,(hl)
   07A3 F8 27              3639 	ldhl	sp,#39
   07A5 AE                 3640 	xor	a, (hl)
   07A6 F8 23              3641 	ldhl	sp,#35
   07A8 77                 3642 	ld	(hl),a
   07A9 D1                 3643 	pop	de
   07AA D5                 3644 	push	de
   07AB 7B                 3645 	ld	a,e
   07AC F8 20              3646 	ldhl	sp,#32
   07AE 96                 3647 	sub	a, (hl)
   07AF 5F                 3648 	ld	e,a
   07B0 7A                 3649 	ld	a,d
   07B1 23                 3650 	inc	hl
   07B2 9E                 3651 	sbc	a, (hl)
   07B3 F5                 3652 	push	af
   07B4 F8 03              3653 	ldhl	sp,#3
   07B6 32                 3654 	ld	(hl-),a
   07B7 73                 3655 	ld	(hl),e
   07B8 F8 05              3656 	ldhl	sp,#5
   07BA 2B                 3657 	dec	hl
   07BB 5E                 3658 	ld	e,(hl)
   07BC 23                 3659 	inc	hl
   07BD 56                 3660 	ld	d,(hl)
   07BE F8 24              3661 	ldhl	sp,#36
   07C0 F1                 3662 	pop	af
   07C1 7B                 3663 	ld	a,e
   07C2 9E                 3664 	sbc	a, (hl)
   07C3 5F                 3665 	ld	e,a
   07C4 7A                 3666 	ld	a,d
   07C5 23                 3667 	inc	hl
   07C6 9E                 3668 	sbc	a, (hl)
   07C7 F8 03              3669 	ldhl	sp,#3
   07C9 32                 3670 	ld	(hl-),a
   07CA 73                 3671 	ld	(hl),e
                           3672 ;main.c:633: v0 -= ((v1<<4) + k0) ^ (v1 + sum) ^ ((v1>>5) + k1);
   07CB F5                 3673 	push	af
   07CC 2B                 3674 	dec	hl
   07CD 2B                 3675 	dec	hl
   07CE 7E                 3676 	ld	a,(hl)
   07CF F8 22              3677 	ldhl	sp,#34
   07D1 77                 3678 	ld	(hl),a
   07D2 F8 03              3679 	ldhl	sp,#3
   07D4 7E                 3680 	ld	a,(hl)
   07D5 F8 23              3681 	ldhl	sp,#35
   07D7 77                 3682 	ld	(hl),a
   07D8 F8 04              3683 	ldhl	sp,#4
   07DA 7E                 3684 	ld	a,(hl)
   07DB F8 24              3685 	ldhl	sp,#36
   07DD 77                 3686 	ld	(hl),a
   07DE F8 05              3687 	ldhl	sp,#5
   07E0 7E                 3688 	ld	a,(hl)
   07E1 F8 25              3689 	ldhl	sp,#37
   07E3 77                 3690 	ld	(hl),a
   07E4 F1                 3691 	pop	af
   07E5 3E 04              3692 	ld	a,#0x04
   07E7                    3693 00120$:
   07E7 F8 20              3694 	ldhl	sp,#32
   07E9 CB 26              3695 	sla	(hl)
   07EB 23                 3696 	inc	hl
   07EC CB 16              3697 	rl	(hl)
   07EE 23                 3698 	inc	hl
   07EF CB 16              3699 	rl	(hl)
   07F1 23                 3700 	inc	hl
   07F2 CB 16              3701 	rl	(hl)
   07F4 3D                 3702 	dec	a
   07F5 20 F0              3703 	jr	NZ,00120$
   07F7 2B                 3704 	dec	hl
   07F8 2B                 3705 	dec	hl
   07F9 2B                 3706 	dec	hl
   07FA 5E                 3707 	ld	e,(hl)
   07FB 23                 3708 	inc	hl
   07FC 56                 3709 	ld	d,(hl)
   07FD 7B                 3710 	ld	a,e
   07FE F8 14              3711 	ldhl	sp,#20
   0800 86                 3712 	add	a, (hl)
   0801 5F                 3713 	ld	e,a
   0802 7A                 3714 	ld	a,d
   0803 23                 3715 	inc	hl
   0804 8E                 3716 	adc	a, (hl)
   0805 F5                 3717 	push	af
   0806 F8 23              3718 	ldhl	sp,#35
   0808 32                 3719 	ld	(hl-),a
   0809 73                 3720 	ld	(hl),e
   080A F8 25              3721 	ldhl	sp,#37
   080C 2B                 3722 	dec	hl
   080D 5E                 3723 	ld	e,(hl)
   080E 23                 3724 	inc	hl
   080F 56                 3725 	ld	d,(hl)
   0810 F8 18              3726 	ldhl	sp,#24
   0812 F1                 3727 	pop	af
   0813 7B                 3728 	ld	a,e
   0814 8E                 3729 	adc	a, (hl)
   0815 5F                 3730 	ld	e,a
   0816 7A                 3731 	ld	a,d
   0817 23                 3732 	inc	hl
   0818 8E                 3733 	adc	a, (hl)
   0819 F8 23              3734 	ldhl	sp,#35
   081B 32                 3735 	ld	(hl-),a
   081C 73                 3736 	ld	(hl),e
   081D D1                 3737 	pop	de
   081E D5                 3738 	push	de
   081F 7B                 3739 	ld	a,e
   0820 F8 08              3740 	ldhl	sp,#8
   0822 86                 3741 	add	a, (hl)
   0823 5F                 3742 	ld	e,a
   0824 7A                 3743 	ld	a,d
   0825 23                 3744 	inc	hl
   0826 8E                 3745 	adc	a, (hl)
   0827 F5                 3746 	push	af
   0828 F8 27              3747 	ldhl	sp,#39
   082A 32                 3748 	ld	(hl-),a
   082B 73                 3749 	ld	(hl),e
   082C F8 05              3750 	ldhl	sp,#5
   082E 2B                 3751 	dec	hl
   082F 5E                 3752 	ld	e,(hl)
   0830 23                 3753 	inc	hl
   0831 56                 3754 	ld	d,(hl)
   0832 F8 0C              3755 	ldhl	sp,#12
   0834 F1                 3756 	pop	af
   0835 7B                 3757 	ld	a,e
   0836 8E                 3758 	adc	a, (hl)
   0837 5F                 3759 	ld	e,a
   0838 7A                 3760 	ld	a,d
   0839 23                 3761 	inc	hl
   083A 8E                 3762 	adc	a, (hl)
   083B F8 27              3763 	ldhl	sp,#39
   083D 32                 3764 	ld	(hl-),a
   083E 73                 3765 	ld	(hl),e
   083F F8 20              3766 	ldhl	sp,#32
   0841 7E                 3767 	ld	a,(hl)
   0842 F8 24              3768 	ldhl	sp,#36
   0844 AE                 3769 	xor	a, (hl)
   0845 F8 20              3770 	ldhl	sp,#32
   0847 22                 3771 	ld	(hl+),a
   0848 7E                 3772 	ld	a,(hl)
   0849 F8 25              3773 	ldhl	sp,#37
   084B AE                 3774 	xor	a, (hl)
   084C F8 21              3775 	ldhl	sp,#33
   084E 22                 3776 	ld	(hl+),a
   084F 7E                 3777 	ld	a,(hl)
   0850 F8 26              3778 	ldhl	sp,#38
   0852 AE                 3779 	xor	a, (hl)
   0853 F8 22              3780 	ldhl	sp,#34
   0855 22                 3781 	ld	(hl+),a
   0856 7E                 3782 	ld	a,(hl)
   0857 F8 27              3783 	ldhl	sp,#39
   0859 AE                 3784 	xor	a, (hl)
   085A F8 23              3785 	ldhl	sp,#35
   085C 77                 3786 	ld	(hl),a
   085D F5                 3787 	push	af
   085E F8 02              3788 	ldhl	sp,#2
   0860 7E                 3789 	ld	a,(hl)
   0861 F8 26              3790 	ldhl	sp,#38
   0863 77                 3791 	ld	(hl),a
   0864 F8 03              3792 	ldhl	sp,#3
   0866 7E                 3793 	ld	a,(hl)
   0867 F8 27              3794 	ldhl	sp,#39
   0869 77                 3795 	ld	(hl),a
   086A F8 04              3796 	ldhl	sp,#4
   086C 7E                 3797 	ld	a,(hl)
   086D F8 28              3798 	ldhl	sp,#40
   086F 77                 3799 	ld	(hl),a
   0870 F8 05              3800 	ldhl	sp,#5
   0872 7E                 3801 	ld	a,(hl)
   0873 F8 29              3802 	ldhl	sp,#41
   0875 77                 3803 	ld	(hl),a
   0876 F1                 3804 	pop	af
   0877 3E 05              3805 	ld	a,#0x05
   0879                    3806 00122$:
   0879 F8 27              3807 	ldhl	sp,#39
   087B CB 3E              3808 	srl	(hl)
   087D 2B                 3809 	dec	hl
   087E CB 1E              3810 	rr	(hl)
   0880 2B                 3811 	dec	hl
   0881 CB 1E              3812 	rr	(hl)
   0883 2B                 3813 	dec	hl
   0884 CB 1E              3814 	rr	(hl)
   0886 3D                 3815 	dec	a
   0887 20 F0              3816 	jr	NZ,00122$
   0889 5E                 3817 	ld	e,(hl)
   088A 23                 3818 	inc	hl
   088B 56                 3819 	ld	d,(hl)
   088C 7B                 3820 	ld	a,e
   088D F8 10              3821 	ldhl	sp,#16
   088F 86                 3822 	add	a, (hl)
   0890 5F                 3823 	ld	e,a
   0891 7A                 3824 	ld	a,d
   0892 23                 3825 	inc	hl
   0893 8E                 3826 	adc	a, (hl)
   0894 F5                 3827 	push	af
   0895 F8 27              3828 	ldhl	sp,#39
   0897 32                 3829 	ld	(hl-),a
   0898 73                 3830 	ld	(hl),e
   0899 F8 29              3831 	ldhl	sp,#41
   089B 2B                 3832 	dec	hl
   089C 5E                 3833 	ld	e,(hl)
   089D 23                 3834 	inc	hl
   089E 56                 3835 	ld	d,(hl)
   089F F8 14              3836 	ldhl	sp,#20
   08A1 F1                 3837 	pop	af
   08A2 7B                 3838 	ld	a,e
   08A3 8E                 3839 	adc	a, (hl)
   08A4 5F                 3840 	ld	e,a
   08A5 7A                 3841 	ld	a,d
   08A6 23                 3842 	inc	hl
   08A7 8E                 3843 	adc	a, (hl)
   08A8 F8 27              3844 	ldhl	sp,#39
   08AA 32                 3845 	ld	(hl-),a
   08AB 73                 3846 	ld	(hl),e
   08AC F8 20              3847 	ldhl	sp,#32
   08AE 7E                 3848 	ld	a,(hl)
   08AF F8 24              3849 	ldhl	sp,#36
   08B1 AE                 3850 	xor	a, (hl)
   08B2 F8 20              3851 	ldhl	sp,#32
   08B4 22                 3852 	ld	(hl+),a
   08B5 7E                 3853 	ld	a,(hl)
   08B6 F8 25              3854 	ldhl	sp,#37
   08B8 AE                 3855 	xor	a, (hl)
   08B9 F8 21              3856 	ldhl	sp,#33
   08BB 22                 3857 	ld	(hl+),a
   08BC 7E                 3858 	ld	a,(hl)
   08BD F8 26              3859 	ldhl	sp,#38
   08BF AE                 3860 	xor	a, (hl)
   08C0 F8 22              3861 	ldhl	sp,#34
   08C2 22                 3862 	ld	(hl+),a
   08C3 7E                 3863 	ld	a,(hl)
   08C4 F8 27              3864 	ldhl	sp,#39
   08C6 AE                 3865 	xor	a, (hl)
   08C7 F8 23              3866 	ldhl	sp,#35
   08C9 77                 3867 	ld	(hl),a
   08CA F8 0D              3868 	ldhl	sp,#13
   08CC 2B                 3869 	dec	hl
   08CD 5E                 3870 	ld	e,(hl)
   08CE 23                 3871 	inc	hl
   08CF 56                 3872 	ld	d,(hl)
   08D0 7B                 3873 	ld	a,e
   08D1 F8 20              3874 	ldhl	sp,#32
   08D3 96                 3875 	sub	a, (hl)
   08D4 5F                 3876 	ld	e,a
   08D5 7A                 3877 	ld	a,d
   08D6 23                 3878 	inc	hl
   08D7 9E                 3879 	sbc	a, (hl)
   08D8 F5                 3880 	push	af
   08D9 F8 0F              3881 	ldhl	sp,#15
   08DB 32                 3882 	ld	(hl-),a
   08DC 73                 3883 	ld	(hl),e
   08DD F8 11              3884 	ldhl	sp,#17
   08DF 2B                 3885 	dec	hl
   08E0 5E                 3886 	ld	e,(hl)
   08E1 23                 3887 	inc	hl
   08E2 56                 3888 	ld	d,(hl)
   08E3 F8 24              3889 	ldhl	sp,#36
   08E5 F1                 3890 	pop	af
   08E6 7B                 3891 	ld	a,e
   08E7 9E                 3892 	sbc	a, (hl)
   08E8 5F                 3893 	ld	e,a
   08E9 7A                 3894 	ld	a,d
   08EA 23                 3895 	inc	hl
   08EB 9E                 3896 	sbc	a, (hl)
   08EC F8 0F              3897 	ldhl	sp,#15
   08EE 32                 3898 	ld	(hl-),a
   08EF 73                 3899 	ld	(hl),e
                           3900 ;main.c:634: sum -= delta;
   08F0 F8 09              3901 	ldhl	sp,#9
   08F2 2B                 3902 	dec	hl
   08F3 5E                 3903 	ld	e,(hl)
   08F4 23                 3904 	inc	hl
   08F5 56                 3905 	ld	d,(hl)
   08F6 7B                 3906 	ld	a,e
   08F7 D6 B9              3907 	sub	a, #0xB9
   08F9 5F                 3908 	ld	e,a
   08FA 7A                 3909 	ld	a,d
   08FB DE 79              3910 	sbc	a, #0x79
   08FD F5                 3911 	push	af
   08FE 32                 3912 	ld	(hl-),a
   08FF 73                 3913 	ld	(hl),e
   0900 F8 0D              3914 	ldhl	sp,#13
   0902 2B                 3915 	dec	hl
   0903 5E                 3916 	ld	e,(hl)
   0904 23                 3917 	inc	hl
   0905 56                 3918 	ld	d,(hl)
   0906 F1                 3919 	pop	af
   0907 7B                 3920 	ld	a,e
   0908 DE 37              3921 	sbc	a, #0x37
   090A 5F                 3922 	ld	e,a
   090B 7A                 3923 	ld	a,d
   090C DE 9E              3924 	sbc	a, #0x9E
   090E 32                 3925 	ld	(hl-),a
   090F 73                 3926 	ld	(hl),e
   0910 F8 05              3927 	ldhl	sp,#5
   0912 2B                 3928 	dec	hl
   0913 5E                 3929 	ld	e,(hl)
   0914 23                 3930 	inc	hl
   0915 56                 3931 	ld	d,(hl)
   0916 7B                 3932 	ld	a,e
   0917 D6 01              3933 	sub	a, #0x01
   0919 5F                 3934 	ld	e,a
   091A 7A                 3935 	ld	a,d
   091B DE 00              3936 	sbc	a, #0x00
   091D F5                 3937 	push	af
   091E F8 23              3938 	ldhl	sp,#35
   0920 32                 3939 	ld	(hl-),a
   0921 73                 3940 	ld	(hl),e
   0922 F8 09              3941 	ldhl	sp,#9
   0924 2B                 3942 	dec	hl
   0925 5E                 3943 	ld	e,(hl)
   0926 23                 3944 	inc	hl
   0927 56                 3945 	ld	d,(hl)
   0928 F1                 3946 	pop	af
   0929 7B                 3947 	ld	a,e
   092A DE 00              3948 	sbc	a, #0x00
   092C 5F                 3949 	ld	e,a
   092D 7A                 3950 	ld	a,d
   092E DE 00              3951 	sbc	a, #0x00
   0930 F8 23              3952 	ldhl	sp,#35
   0932 32                 3953 	ld	(hl-),a
   0933 73                 3954 	ld	(hl),e
   0934 2B                 3955 	dec	hl
   0935 2B                 3956 	dec	hl
   0936 54                 3957 	ld	d,h
   0937 5D                 3958 	ld	e,l
   0938 F8 04              3959 	ldhl	sp,#4
   093A 1A                 3960 	ld	a,(de)
   093B 22                 3961 	ld	(hl+),a
   093C 13                 3962 	inc	de
   093D 1A                 3963 	ld	a,(de)
   093E 22                 3964 	ld	(hl+),a
   093F 13                 3965 	inc	de
   0940 1A                 3966 	ld	a,(de)
   0941 22                 3967 	ld	(hl+),a
   0942 13                 3968 	inc	de
   0943 1A                 3969 	ld	a,(de)
   0944 77                 3970 	ld	(hl),a
                           3971 ;main.c:631: for (i=0; i<32; i++) {                         /* basic cycle start */
   0945 F8 23              3972 	ldhl	sp,#35
   0947 3A                 3973 	ld	a,(hl-)
   0948 B6                 3974 	or	a, (hl)
   0949 2B                 3975 	dec	hl
   094A B6                 3976 	or	a, (hl)
   094B 2B                 3977 	dec	hl
   094C B6                 3978 	or	a,(hl)
   094D C2rA6r06           3979 	jp	NZ,00104$
                           3980 ;main.c:636: v[0]=v0; v[1]=v1;
   0950 F8 2D              3981 	ldhl	sp,#45
   0952 2B                 3982 	dec	hl
   0953 5E                 3983 	ld	e,(hl)
   0954 23                 3984 	inc	hl
   0955 56                 3985 	ld	d,(hl)
   0956 F8 0C              3986 	ldhl	sp,#12
   0958 7E                 3987 	ld	a,(hl)
   0959 12                 3988 	ld	(de),a
   095A 13                 3989 	inc	de
   095B 23                 3990 	inc	hl
   095C 7E                 3991 	ld	a,(hl)
   095D 12                 3992 	ld	(de),a
   095E 13                 3993 	inc	de
   095F 23                 3994 	inc	hl
   0960 7E                 3995 	ld	a,(hl)
   0961 12                 3996 	ld	(de),a
   0962 13                 3997 	inc	de
   0963 23                 3998 	inc	hl
   0964 7E                 3999 	ld	a,(hl)
   0965 12                 4000 	ld	(de),a
   0966 F8 2B              4001 	ldhl	sp,#43
   0968 2B                 4002 	dec	hl
   0969 5E                 4003 	ld	e,(hl)
   096A 23                 4004 	inc	hl
   096B 56                 4005 	ld	d,(hl)
   096C F8 00              4006 	ldhl	sp,#0
   096E 7E                 4007 	ld	a,(hl)
   096F 12                 4008 	ld	(de),a
   0970 13                 4009 	inc	de
   0971 23                 4010 	inc	hl
   0972 7E                 4011 	ld	a,(hl)
   0973 12                 4012 	ld	(de),a
   0974 13                 4013 	inc	de
   0975 23                 4014 	inc	hl
   0976 7E                 4015 	ld	a,(hl)
   0977 12                 4016 	ld	(de),a
   0978 13                 4017 	inc	de
   0979 23                 4018 	inc	hl
   097A 7E                 4019 	ld	a,(hl)
   097B 12                 4020 	ld	(de),a
   097C E8 2E              4021 	add	sp, #46
   097E C9                 4022 	ret
                           4023 ;main.c:640: void remove_flag_padding(void)
                           4024 ;	---------------------------------
                           4025 ; Function remove_flag_padding
                           4026 ; ---------------------------------
   097F                    4027 _remove_flag_padding::
   097F E8 FD              4028 	add	sp, #-3
                           4029 ;main.c:644: UINT8 flab_b_len = flag_b[FLAG_LEN - 1];
   0981 01rC8r03           4030 	ld	bc,#_flag_b + 7
   0984 0A                 4031 	ld	a,(bc)
   0985 F8 00              4032 	ldhl	sp,#0
   0987 77                 4033 	ld	(hl),a
                           4034 ;main.c:645: memset(flag_b + flab_b_len, '\0', FLAG_LEN - flab_b_len);
   0988 4E                 4035 	ld	c,(hl)
   0989 06 00              4036 	ld	b,#0x00
   098B 11 08 00           4037 	ld	de,#0x0008
   098E 7B                 4038 	ld	a,e
   098F 91                 4039 	sub	a,c
   0990 5F                 4040 	ld	e,a
   0991 7A                 4041 	ld	a,d
   0992 98                 4042 	sbc	a,b
   0993 23                 4043 	inc	hl
   0994 23                 4044 	inc	hl
   0995 32                 4045 	ld	(hl-),a
   0996 73                 4046 	ld	(hl),e
   0997 11rC1r03           4047 	ld	de,#_flag_b
   099A 2B                 4048 	dec	hl
   099B 6E                 4049 	ld	l,(hl)
   099C 26 00              4050 	ld	h,#0x00
   099E 19                 4051 	add	hl,de
   099F 4D                 4052 	ld	c,l
   09A0 44                 4053 	ld	b,h
   09A1 F8 01              4054 	ldhl	sp,#1
   09A3 2A                 4055 	ld	a,(hl+)
   09A4 66                 4056 	ld	h,(hl)
   09A5 6F                 4057 	ld	l,a
   09A6 E5                 4058 	push	hl
   09A7 21 00 00           4059 	ld	hl,#0x0000
   09AA E5                 4060 	push	hl
   09AB C5                 4061 	push	bc
   09AC CDr00r00           4062 	call	_memset
   09AF E8 06              4063 	add	sp, #6
   09B1 E8 03              4064 	add	sp, #3
   09B3 C9                 4065 	ret
                           4066 ;main.c:648: void main()
                           4067 ;	---------------------------------
                           4068 ; Function main
                           4069 ; ---------------------------------
   09B4                    4070 _main::
                           4071 ;main.c:651: key_a[0] = 0xc2bb5c5b;
   09B4 21rC9r03           4072 	ld	hl,#_key_a
   09B7 36 5B              4073 	ld	(hl),#0x5B
   09B9 23                 4074 	inc	hl
   09BA 36 5C              4075 	ld	(hl),#0x5C
   09BC 23                 4076 	inc	hl
   09BD 36 BB              4077 	ld	(hl),#0xBB
   09BF 23                 4078 	inc	hl
   09C0 36 C2              4079 	ld	(hl),#0xC2
                           4080 ;main.c:653: disable_interrupts();
   09C2 CDr00r00           4081 	call	_disable_interrupts
                           4082 ;main.c:654: DISPLAY_OFF;
   09C5 CDr00r00           4083 	call	_display_off
                           4084 ;main.c:661: set_win_data(0x80U, window_border_len, window_border);
   09C8 11r00r00           4085 	ld	de,#_window_border
   09CB D5                 4086 	push	de
   09CC 21 80 01           4087 	ld	hl,#0x0180
   09CF E5                 4088 	push	hl
   09D0 CDr00r00           4089 	call	_set_win_data
   09D3 E8 04              4090 	add	sp, #4
                           4091 ;main.c:662: set_win_tiles(0, 0, text_box_width, text_box_height, text_box);
   09D5 11r10r00           4092 	ld	de,#_text_box
   09D8 D5                 4093 	push	de
   09D9 21 14 06           4094 	ld	hl,#0x0614
   09DC E5                 4095 	push	hl
   09DD 21 00 00           4096 	ld	hl,#0x0000
   09E0 E5                 4097 	push	hl
   09E1 CDr00r00           4098 	call	_set_win_tiles
   09E4 E8 06              4099 	add	sp, #6
                           4100 ;main.c:663: move_win(7,96);
   09E6 21 07 60           4101 	ld	hl,#0x6007
   09E9 E5                 4102 	push	hl
   09EA CDr00r00           4103 	call	_move_win
   09ED E8 02              4104 	add	sp, #2
                           4105 ;main.c:666: set_win_data(0U, alphabet_len, alphabet);
   09EF 11r88r00           4106 	ld	de,#_alphabet
   09F2 D5                 4107 	push	de
   09F3 21 00 2E           4108 	ld	hl,#0x2E00
   09F6 E5                 4109 	push	hl
   09F7 CDr00r00           4110 	call	_set_win_data
   09FA E8 04              4111 	add	sp, #4
                           4112 ;main.c:667: set_win_tiles(2U, 2U, text_map_width, text_map_height, text_map);
   09FC 11r88r03           4113 	ld	de,#_text_map
   09FF D5                 4114 	push	de
   0A00 21 10 02           4115 	ld	hl,#0x0210
   0A03 E5                 4116 	push	hl
   0A04 2E 02              4117 	ld	l, #0x02
   0A06 E5                 4118 	push	hl
   0A07 CDr00r00           4119 	call	_set_win_tiles
   0A0A E8 06              4120 	add	sp, #6
                           4121 ;main.c:670: set_win_data(button_address_start, button_len, button);
   0A0C 11r92r00           4122 	ld	de,#_button
   0A0F D5                 4123 	push	de
   0A10 21 30 06           4124 	ld	hl,#0x0630
   0A13 E5                 4125 	push	hl
   0A14 CDr00r00           4126 	call	_set_win_data
   0A17 E8 04              4127 	add	sp, #4
                           4128 ;main.c:673: key_a[1] = 0x93373628;
   0A19 21rCDr03           4129 	ld	hl,#(_key_a + 0x0004)
   0A1C 36 28              4130 	ld	(hl),#0x28
   0A1E 23                 4131 	inc	hl
   0A1F 36 36              4132 	ld	(hl),#0x36
   0A21 23                 4133 	inc	hl
   0A22 36 37              4134 	ld	(hl),#0x37
   0A24 23                 4135 	inc	hl
   0A25 36 93              4136 	ld	(hl),#0x93
                           4137 ;main.c:676: set_win_data(arrow_address_1, arrow_tile_len, arrow_tile);
   0A27 11r68r03           4138 	ld	de,#_arrow_tile
   0A2A D5                 4139 	push	de
   0A2B 21 2E 02           4140 	ld	hl,#0x022E
   0A2E E5                 4141 	push	hl
   0A2F CDr00r00           4142 	call	_set_win_data
   0A32 E8 04              4143 	add	sp, #4
                           4144 ;main.c:679: SPRITES_8x16;
   0A34 11 40 FF           4145 	ld	de,#0xFF40
   0A37 1A                 4146 	ld	a,(de)
   0A38 5F                 4147 	ld	e,a
   0A39 16 00              4148 	ld	d,#0x00
   0A3B 7B                 4149 	ld	a,e
   0A3C CB D7              4150 	set	2, a
   0A3E 47                 4151 	ld	b,a
   0A3F 21 40 FF           4152 	ld	hl,#0xFF40
   0A42 70                 4153 	ld	(hl),b
                           4154 ;main.c:680: set_sprite_data(0, agent_len, agent);
   0A43 11r12r00           4155 	ld	de,#_agent
   0A46 D5                 4156 	push	de
   0A47 21 00 08           4157 	ld	hl,#0x0800
   0A4A E5                 4158 	push	hl
   0A4B CDr00r00           4159 	call	_set_sprite_data
   0A4E E8 04              4160 	add	sp, #4
                           4161 ;main.c:681: set_sprite_tile(0, 0);
   0A50 21 00 00           4162 	ld	hl,#0x0000
   0A53 E5                 4163 	push	hl
   0A54 CDr00r00           4164 	call	_set_sprite_tile
   0A57 E8 02              4165 	add	sp, #2
                           4166 ;main.c:682: set_sprite_tile(1, 2);
   0A59 21 01 02           4167 	ld	hl,#0x0201
   0A5C E5                 4168 	push	hl
   0A5D CDr00r00           4169 	call	_set_sprite_tile
   0A60 E8 02              4170 	add	sp, #2
                           4171 ;main.c:683: set_sprite_tile(2, 4);
   0A62 21 02 04           4172 	ld	hl,#0x0402
   0A65 E5                 4173 	push	hl
   0A66 CDr00r00           4174 	call	_set_sprite_tile
   0A69 E8 02              4175 	add	sp, #2
                           4176 ;main.c:684: set_sprite_tile(3, 6);
   0A6B 21 03 06           4177 	ld	hl,#0x0603
   0A6E E5                 4178 	push	hl
   0A6F CDr00r00           4179 	call	_set_sprite_tile
   0A72 E8 02              4180 	add	sp, #2
                           4181 ;main.c:685: move_sprite(0, 0x30U, 0x50U);
   0A74 21 30 50           4182 	ld	hl,#0x5030
   0A77 E5                 4183 	push	hl
   0A78 AF                 4184 	xor	a, a
   0A79 F5                 4185 	push	af
   0A7A 33                 4186 	inc	sp
   0A7B CDr00r00           4187 	call	_move_sprite
   0A7E E8 03              4188 	add	sp, #3
                           4189 ;main.c:686: move_sprite(1, 0x38U, 0x50U);
   0A80 21 38 50           4190 	ld	hl,#0x5038
   0A83 E5                 4191 	push	hl
   0A84 3E 01              4192 	ld	a,#0x01
   0A86 F5                 4193 	push	af
   0A87 33                 4194 	inc	sp
   0A88 CDr00r00           4195 	call	_move_sprite
   0A8B E8 03              4196 	add	sp, #3
                           4197 ;main.c:687: move_sprite(2, 0x30U, 0x60U);
   0A8D 21 30 60           4198 	ld	hl,#0x6030
   0A90 E5                 4199 	push	hl
   0A91 3E 02              4200 	ld	a,#0x02
   0A93 F5                 4201 	push	af
   0A94 33                 4202 	inc	sp
   0A95 CDr00r00           4203 	call	_move_sprite
   0A98 E8 03              4204 	add	sp, #3
                           4205 ;main.c:688: move_sprite(3, 0x38U, 0x60U);
   0A9A 21 38 60           4206 	ld	hl,#0x6038
   0A9D E5                 4207 	push	hl
   0A9E 3E 03              4208 	ld	a,#0x03
   0AA0 F5                 4209 	push	af
   0AA1 33                 4210 	inc	sp
   0AA2 CDr00r00           4211 	call	_move_sprite
   0AA5 E8 03              4212 	add	sp, #3
                           4213 ;main.c:690: SHOW_BKG;
   0AA7 11 40 FF           4214 	ld	de,#0xFF40
   0AAA 1A                 4215 	ld	a,(de)
   0AAB 5F                 4216 	ld	e,a
   0AAC 16 00              4217 	ld	d,#0x00
   0AAE 7B                 4218 	ld	a,e
   0AAF CB C7              4219 	set	0, a
   0AB1 47                 4220 	ld	b,a
   0AB2 21 40 FF           4221 	ld	hl,#0xFF40
   0AB5 70                 4222 	ld	(hl),b
                           4223 ;main.c:691: SHOW_SPRITES;
   0AB6 11 40 FF           4224 	ld	de,#0xFF40
   0AB9 1A                 4225 	ld	a,(de)
   0ABA 5F                 4226 	ld	e,a
   0ABB 16 00              4227 	ld	d,#0x00
   0ABD 7B                 4228 	ld	a,e
   0ABE CB CF              4229 	set	1, a
   0AC0 47                 4230 	ld	b,a
   0AC1 2E 40              4231 	ld	l, #0x40
   0AC3 70                 4232 	ld	(hl),b
                           4233 ;main.c:692: DISPLAY_ON;
   0AC4 11 40 FF           4234 	ld	de,#0xFF40
   0AC7 1A                 4235 	ld	a,(de)
   0AC8 5F                 4236 	ld	e,a
   0AC9 16 00              4237 	ld	d,#0x00
   0ACB 7B                 4238 	ld	a,e
   0ACC CB FF              4239 	set	7, a
   0ACE 47                 4240 	ld	b,a
   0ACF 2E 40              4241 	ld	l, #0x40
   0AD1 70                 4242 	ld	(hl),b
                           4243 ;main.c:693: enable_interrupts();
   0AD2 CDr00r00           4244 	call	_enable_interrupts
                           4245 ;main.c:696: key_a[2] = 0xd0849af3;
   0AD5 21rD1r03           4246 	ld	hl,#(_key_a + 0x0008)
   0AD8 36 F3              4247 	ld	(hl),#0xF3
   0ADA 23                 4248 	inc	hl
   0ADB 36 9A              4249 	ld	(hl),#0x9A
   0ADD 23                 4250 	inc	hl
   0ADE 36 84              4251 	ld	(hl),#0x84
   0AE0 23                 4252 	inc	hl
   0AE1 36 D0              4253 	ld	(hl),#0xD0
                           4254 ;main.c:698: SHOW_WIN;
   0AE3 11 40 FF           4255 	ld	de,#0xFF40
   0AE6 1A                 4256 	ld	a,(de)
   0AE7 5F                 4257 	ld	e,a
   0AE8 16 00              4258 	ld	d,#0x00
   0AEA 7B                 4259 	ld	a,e
   0AEB CB EF              4260 	set	5, a
   0AED 47                 4261 	ld	b,a
   0AEE 21 40 FF           4262 	ld	hl,#0xFF40
   0AF1 70                 4263 	ld	(hl),b
                           4264 ;main.c:699: show_text("MY TARGET IS    INSIDE.");
   0AF2 11r39r0B           4265 	ld	de,#___str_6
   0AF5 D5                 4266 	push	de
   0AF6 CDr89r02           4267 	call	_show_text
   0AF9 E8 02              4268 	add	sp, #2
                           4269 ;main.c:700: show_text("THIS DOOR NEEDS A CODE");
   0AFB 11r51r0B           4270 	ld	de,#___str_7
   0AFE D5                 4271 	push	de
   0AFF CDr89r02           4272 	call	_show_text
   0B02 E8 02              4273 	add	sp, #2
                           4274 ;main.c:701: clear_window();
   0B04 CDr68r02           4275 	call	_clear_window
                           4276 ;main.c:704: while(1) {
   0B07                    4277 00104$:
                           4278 ;main.c:706: sleep(4);
   0B07 3E 04              4279 	ld	a,#0x04
   0B09 F5                 4280 	push	af
   0B0A 33                 4281 	inc	sp
   0B0B CDr8Ar03           4282 	call	_sleep
   0B0E 33                 4283 	inc	sp
                           4284 ;main.c:707: process_button_press();
   0B0F CDr9Ar03           4285 	call	_process_button_press
                           4286 ;main.c:709: if (input_seq_ctr >= SEQ_LEN) {
   0B12 21rB8r03           4287 	ld	hl,#_input_seq_ctr
   0B15 46                 4288 	ld	b,(hl)
   0B16 0E 00              4289 	ld	c,#0x00
   0B18 78                 4290 	ld	a,b
   0B19 D6 10              4291 	sub	a, #0x10
   0B1B 79                 4292 	ld	a,c
   0B1C DE 00              4293 	sbc	a, #0x00
   0B1E 38 E7              4294 	jr	C,00104$
                           4295 ;main.c:711: key_a[3] = 0x04183ac4;
   0B20 21rD5r03           4296 	ld	hl,#(_key_a + 0x000c)
   0B23 36 C4              4297 	ld	(hl),#0xC4
   0B25 23                 4298 	inc	hl
   0B26 36 3A              4299 	ld	(hl),#0x3A
   0B28 23                 4300 	inc	hl
   0B29 36 18              4301 	ld	(hl),#0x18
   0B2B 23                 4302 	inc	hl
   0B2C 36 04              4303 	ld	(hl),#0x04
                           4304 ;main.c:715: check_sequence();
   0B2E CDr6Br04           4305 	call	_check_sequence
                           4306 ;main.c:716: input_seq_ctr = 0;
   0B31 21rB8r03           4307 	ld	hl,#_input_seq_ctr
   0B34 36 00              4308 	ld	(hl),#0x00
   0B36 18 CF              4309 	jr	00104$
   0B38 C9                 4310 	ret
   0B39                    4311 ___str_6:
   0B39 4D 59 20 54 41 52  4312 	.ascii "MY TARGET IS    INSIDE."
        47 45 54 20 49 53
        20 20 20 20 49 4E
        53 49 44 45 2E
   0B50 00                 4313 	.db 0x00
   0B51                    4314 ___str_7:
   0B51 54 48 49 53 20 44  4315 	.ascii "THIS DOOR NEEDS A CODE"
        4F 4F 52 20 4E 45
        45 44 53 20 41 20
        43 4F 44 45
   0B67 E2                 4316 	.db 0xE2
   0B68 80                 4317 	.db 0x80
   0B69 A6                 4318 	.db 0xA6
   0B6A 00                 4319 	.db 0x00
                           4320 	.area _CODE
                           4321 	.area _CABS (ABS)
