                              1 ;--------------------------------------------------------
                              2 ; File Created by SDCC : free open source ANSI-C Compiler
                              3 ; Version 3.5.0 #9253 (Mar 24 2016) (Linux)
                              4 ; This file was generated Sun Jul 16 17:08:55 2017
                              5 ;--------------------------------------------------------
                              6 	.module main
                              7 	.optsdcc -mgbz80
                              8 	
                              9 ;--------------------------------------------------------
                             10 ; Public variables in this module
                             11 ;--------------------------------------------------------
                             12 	.globl _main
                             13 	.globl _move_win
                             14 	.globl _set_win_tiles
                             15 	.globl _set_win_data
                             16 	.globl _display_off
                             17 	.globl _wait_vbl_done
                             18 	.globl _disable_interrupts
                             19 	.globl _enable_interrupts
                             20 	.globl _joypad
                             21 	.globl _delay
                             22 	.globl _strlen
                             23 	.globl _memset
                             24 	.globl _input_seq_ctr
                             25 	.globl _input_seq
                             26 	.globl _text_map
                             27 	.globl _arrow_tile
                             28 	.globl _alphabet
                             29 	.globl _text_box
                             30 	.globl _window_border
                             31 	.globl _solution_seq
                             32 	.globl _girl_tiles
                             33 	.globl _divide_UINT8
                             34 	.globl _set_text_map
                             35 	.globl _clear_window
                             36 	.globl _show_text
                             37 	.globl _scroll_text
                             38 	.globl _sleep
                             39 	.globl _process_button_press
                             40 	.globl _check_sequence
                             41 	.globl _pass_level_1
                             42 	.globl _fail_level_1
                             43 ;--------------------------------------------------------
                             44 ; ram data
                             45 ;--------------------------------------------------------
                             46 	.area _DATA
   0000                      47 _window_border::
   0000                      48 	.ds 144
   0090                      49 _text_box::
   0090                      50 	.ds 120
   0108                      51 _alphabet::
   0108                      52 	.ds 736
   03E8                      53 _arrow_tile::
   03E8                      54 	.ds 32
   0408                      55 _text_map::
   0408                      56 	.ds 32
   0428                      57 _input_seq::
   0428                      58 	.ds 16
   0438                      59 _input_seq_ctr::
   0438                      60 	.ds 1
                             61 ;--------------------------------------------------------
                             62 ; absolute external ram data
                             63 ;--------------------------------------------------------
                             64 	.area _DABS (ABS)
                             65 ;--------------------------------------------------------
                             66 ; global & static initialisations
                             67 ;--------------------------------------------------------
                             68 	.area _HOME
                             69 	.area _GSINIT
                             70 	.area _GSFINAL
                             71 	.area _GSINIT
                             72 ;main.c:68: unsigned char window_border[] =
   0000 21r00r00             73 	ld	hl,#_window_border
   0003 36 1F                74 	ld	(hl),#0x1F
   0005 21r01r00             75 	ld	hl,#(_window_border + 0x0001)
   0008 36 1F                76 	ld	(hl),#0x1F
   000A 21r02r00             77 	ld	hl,#(_window_border + 0x0002)
   000D 36 20                78 	ld	(hl),#0x20
   000F 21r03r00             79 	ld	hl,#(_window_border + 0x0003)
   0012 36 3F                80 	ld	(hl),#0x3F
   0014 21r04r00             81 	ld	hl,#(_window_border + 0x0004)
   0017 36 40                82 	ld	(hl),#0x40
   0019 21r05r00             83 	ld	hl,#(_window_border + 0x0005)
   001C 36 70                84 	ld	(hl),#0x70
   001E 21r06r00             85 	ld	hl,#(_window_border + 0x0006)
   0021 36 87                86 	ld	(hl),#0x87
   0023 21r07r00             87 	ld	hl,#(_window_border + 0x0007)
   0026 36 E0                88 	ld	(hl),#0xE0
   0028 21r08r00             89 	ld	hl,#(_window_border + 0x0008)
   002B 36 8F                90 	ld	(hl),#0x8F
   002D 21r09r00             91 	ld	hl,#(_window_border + 0x0009)
   0030 36 C3                92 	ld	(hl),#0xC3
   0032 21r0Ar00             93 	ld	hl,#(_window_border + 0x000a)
   0035 36 9C                94 	ld	(hl),#0x9C
   0037 21r0Br00             95 	ld	hl,#(_window_border + 0x000b)
   003A 36 C4                96 	ld	(hl),#0xC4
   003C 21r0Cr00             97 	ld	hl,#(_window_border + 0x000c)
   003F 36 98                98 	ld	(hl),#0x98
   0041 21r0Dr00             99 	ld	hl,#(_window_border + 0x000d)
   0044 36 C8               100 	ld	(hl),#0xC8
   0046 21r0Er00            101 	ld	hl,#(_window_border + 0x000e)
   0049 36 98               102 	ld	(hl),#0x98
   004B 21r0Fr00            103 	ld	hl,#(_window_border + 0x000f)
   004E 36 C8               104 	ld	(hl),#0xC8
   0050 21r10r00            105 	ld	hl,#(_window_border + 0x0010)
   0053 36 98               106 	ld	(hl),#0x98
   0055 21r11r00            107 	ld	hl,#(_window_border + 0x0011)
   0058 36 C8               108 	ld	(hl),#0xC8
   005A 21r12r00            109 	ld	hl,#(_window_border + 0x0012)
   005D 36 98               110 	ld	(hl),#0x98
   005F 21r13r00            111 	ld	hl,#(_window_border + 0x0013)
   0062 36 C8               112 	ld	(hl),#0xC8
   0064 21r14r00            113 	ld	hl,#(_window_border + 0x0014)
   0067 36 98               114 	ld	(hl),#0x98
   0069 21r15r00            115 	ld	hl,#(_window_border + 0x0015)
   006C 36 C8               116 	ld	(hl),#0xC8
   006E 21r16r00            117 	ld	hl,#(_window_border + 0x0016)
   0071 36 98               118 	ld	(hl),#0x98
   0073 21r17r00            119 	ld	hl,#(_window_border + 0x0017)
   0076 36 C8               120 	ld	(hl),#0xC8
   0078 21r18r00            121 	ld	hl,#(_window_border + 0x0018)
   007B 36 98               122 	ld	(hl),#0x98
   007D 21r19r00            123 	ld	hl,#(_window_border + 0x0019)
   0080 36 C8               124 	ld	(hl),#0xC8
   0082 21r1Ar00            125 	ld	hl,#(_window_border + 0x001a)
   0085 36 98               126 	ld	(hl),#0x98
   0087 21r1Br00            127 	ld	hl,#(_window_border + 0x001b)
   008A 36 C8               128 	ld	(hl),#0xC8
   008C 21r1Cr00            129 	ld	hl,#(_window_border + 0x001c)
   008F 36 98               130 	ld	(hl),#0x98
   0091 21r1Dr00            131 	ld	hl,#(_window_border + 0x001d)
   0094 36 C8               132 	ld	(hl),#0xC8
   0096 21r1Er00            133 	ld	hl,#(_window_border + 0x001e)
   0099 36 98               134 	ld	(hl),#0x98
   009B 21r1Fr00            135 	ld	hl,#(_window_border + 0x001f)
   009E 36 C8               136 	ld	(hl),#0xC8
   00A0 21r20r00            137 	ld	hl,#(_window_border + 0x0020)
   00A3 36 FF               138 	ld	(hl),#0xFF
   00A5 21r21r00            139 	ld	hl,#(_window_border + 0x0021)
   00A8 36 FF               140 	ld	(hl),#0xFF
   00AA 01r22r00            141 	ld	bc,#_window_border + 34
   00AD AF                  142 	xor	a, a
   00AE 02                  143 	ld	(bc),a
   00AF 21r23r00            144 	ld	hl,#(_window_border + 0x0023)
   00B2 36 FF               145 	ld	(hl),#0xFF
   00B4 01r24r00            146 	ld	bc,#_window_border + 36
   00B7 AF                  147 	xor	a, a
   00B8 02                  148 	ld	(bc),a
   00B9 01r25r00            149 	ld	bc,#_window_border + 37
   00BC AF                  150 	xor	a, a
   00BD 02                  151 	ld	(bc),a
   00BE 21r26r00            152 	ld	hl,#(_window_border + 0x0026)
   00C1 36 FF               153 	ld	(hl),#0xFF
   00C3 01r27r00            154 	ld	bc,#_window_border + 39
   00C6 AF                  155 	xor	a, a
   00C7 02                  156 	ld	(bc),a
   00C8 21r28r00            157 	ld	hl,#(_window_border + 0x0028)
   00CB 36 FF               158 	ld	(hl),#0xFF
   00CD 21r29r00            159 	ld	hl,#(_window_border + 0x0029)
   00D0 36 FF               160 	ld	(hl),#0xFF
   00D2 01r2Ar00            161 	ld	bc,#_window_border + 42
   00D5 AF                  162 	xor	a, a
   00D6 02                  163 	ld	(bc),a
   00D7 01r2Br00            164 	ld	bc,#_window_border + 43
   00DA AF                  165 	xor	a, a
   00DB 02                  166 	ld	(bc),a
   00DC 01r2Cr00            167 	ld	bc,#_window_border + 44
   00DF AF                  168 	xor	a, a
   00E0 02                  169 	ld	(bc),a
   00E1 01r2Dr00            170 	ld	bc,#_window_border + 45
   00E4 AF                  171 	xor	a, a
   00E5 02                  172 	ld	(bc),a
   00E6 01r2Er00            173 	ld	bc,#_window_border + 46
   00E9 AF                  174 	xor	a, a
   00EA 02                  175 	ld	(bc),a
   00EB 01r2Fr00            176 	ld	bc,#_window_border + 47
   00EE AF                  177 	xor	a, a
   00EF 02                  178 	ld	(bc),a
   00F0 21r30r00            179 	ld	hl,#(_window_border + 0x0030)
   00F3 36 98               180 	ld	(hl),#0x98
   00F5 21r31r00            181 	ld	hl,#(_window_border + 0x0031)
   00F8 36 C8               182 	ld	(hl),#0xC8
   00FA 21r32r00            183 	ld	hl,#(_window_border + 0x0032)
   00FD 36 98               184 	ld	(hl),#0x98
   00FF 21r33r00            185 	ld	hl,#(_window_border + 0x0033)
   0102 36 C8               186 	ld	(hl),#0xC8
   0104 21r34r00            187 	ld	hl,#(_window_border + 0x0034)
   0107 36 94               188 	ld	(hl),#0x94
   0109 21r35r00            189 	ld	hl,#(_window_border + 0x0035)
   010C 36 C8               190 	ld	(hl),#0xC8
   010E 21r36r00            191 	ld	hl,#(_window_border + 0x0036)
   0111 36 83               192 	ld	(hl),#0x83
   0113 21r37r00            193 	ld	hl,#(_window_border + 0x0037)
   0116 36 CC               194 	ld	(hl),#0xCC
   0118 21r38r00            195 	ld	hl,#(_window_border + 0x0038)
   011B 36 80               196 	ld	(hl),#0x80
   011D 21r39r00            197 	ld	hl,#(_window_border + 0x0039)
   0120 36 E7               198 	ld	(hl),#0xE7
   0122 21r3Ar00            199 	ld	hl,#(_window_border + 0x003a)
   0125 36 40               200 	ld	(hl),#0x40
   0127 21r3Br00            201 	ld	hl,#(_window_border + 0x003b)
   012A 36 70               202 	ld	(hl),#0x70
   012C 21r3Cr00            203 	ld	hl,#(_window_border + 0x003c)
   012F 36 2F               204 	ld	(hl),#0x2F
   0131 21r3Dr00            205 	ld	hl,#(_window_border + 0x003d)
   0134 36 30               206 	ld	(hl),#0x30
   0136 21r3Er00            207 	ld	hl,#(_window_border + 0x003e)
   0139 36 1F               208 	ld	(hl),#0x1F
   013B 21r3Fr00            209 	ld	hl,#(_window_border + 0x003f)
   013E 36 1F               210 	ld	(hl),#0x1F
   0140 01r40r00            211 	ld	bc,#_window_border + 64
   0143 AF                  212 	xor	a, a
   0144 02                  213 	ld	(bc),a
   0145 01r41r00            214 	ld	bc,#_window_border + 65
   0148 AF                  215 	xor	a, a
   0149 02                  216 	ld	(bc),a
   014A 01r42r00            217 	ld	bc,#_window_border + 66
   014D AF                  218 	xor	a, a
   014E 02                  219 	ld	(bc),a
   014F 01r43r00            220 	ld	bc,#_window_border + 67
   0152 AF                  221 	xor	a, a
   0153 02                  222 	ld	(bc),a
   0154 01r44r00            223 	ld	bc,#_window_border + 68
   0157 AF                  224 	xor	a, a
   0158 02                  225 	ld	(bc),a
   0159 01r45r00            226 	ld	bc,#_window_border + 69
   015C AF                  227 	xor	a, a
   015D 02                  228 	ld	(bc),a
   015E 21r46r00            229 	ld	hl,#(_window_border + 0x0046)
   0161 36 FF               230 	ld	(hl),#0xFF
   0163 01r47r00            231 	ld	bc,#_window_border + 71
   0166 AF                  232 	xor	a, a
   0167 02                  233 	ld	(bc),a
   0168 01r48r00            234 	ld	bc,#_window_border + 72
   016B AF                  235 	xor	a, a
   016C 02                  236 	ld	(bc),a
   016D 21r49r00            237 	ld	hl,#(_window_border + 0x0049)
   0170 36 FF               238 	ld	(hl),#0xFF
   0172 01r4Ar00            239 	ld	bc,#_window_border + 74
   0175 AF                  240 	xor	a, a
   0176 02                  241 	ld	(bc),a
   0177 01r4Br00            242 	ld	bc,#_window_border + 75
   017A AF                  243 	xor	a, a
   017B 02                  244 	ld	(bc),a
   017C 21r4Cr00            245 	ld	hl,#(_window_border + 0x004c)
   017F 36 FF               246 	ld	(hl),#0xFF
   0181 01r4Dr00            247 	ld	bc,#_window_border + 77
   0184 AF                  248 	xor	a, a
   0185 02                  249 	ld	(bc),a
   0186 21r4Er00            250 	ld	hl,#(_window_border + 0x004e)
   0189 36 FF               251 	ld	(hl),#0xFF
   018B 21r4Fr00            252 	ld	hl,#(_window_border + 0x004f)
   018E 36 FF               253 	ld	(hl),#0xFF
   0190 21r50r00            254 	ld	hl,#(_window_border + 0x0050)
   0193 36 13               255 	ld	(hl),#0x13
   0195 21r51r00            256 	ld	hl,#(_window_border + 0x0051)
   0198 36 09               257 	ld	(hl),#0x09
   019A 21r52r00            258 	ld	hl,#(_window_border + 0x0052)
   019D 36 13               259 	ld	(hl),#0x13
   019F 21r53r00            260 	ld	hl,#(_window_border + 0x0053)
   01A2 36 09               261 	ld	(hl),#0x09
   01A4 21r54r00            262 	ld	hl,#(_window_border + 0x0054)
   01A7 36 23               263 	ld	(hl),#0x23
   01A9 21r55r00            264 	ld	hl,#(_window_border + 0x0055)
   01AC 36 19               265 	ld	(hl),#0x19
   01AE 21r56r00            266 	ld	hl,#(_window_border + 0x0056)
   01B1 36 C3               267 	ld	(hl),#0xC3
   01B3 21r57r00            268 	ld	hl,#(_window_border + 0x0057)
   01B6 36 31               269 	ld	(hl),#0x31
   01B8 21r58r00            270 	ld	hl,#(_window_border + 0x0058)
   01BB 36 07               271 	ld	(hl),#0x07
   01BD 21r59r00            272 	ld	hl,#(_window_border + 0x0059)
   01C0 36 E1               273 	ld	(hl),#0xE1
   01C2 21r5Ar00            274 	ld	hl,#(_window_border + 0x005a)
   01C5 36 0E               275 	ld	(hl),#0x0E
   01C7 21r5Br00            276 	ld	hl,#(_window_border + 0x005b)
   01CA 36 02               277 	ld	(hl),#0x02
   01CC 21r5Cr00            278 	ld	hl,#(_window_border + 0x005c)
   01CF 36 FC               279 	ld	(hl),#0xFC
   01D1 21r5Dr00            280 	ld	hl,#(_window_border + 0x005d)
   01D4 36 04               281 	ld	(hl),#0x04
   01D6 21r5Er00            282 	ld	hl,#(_window_border + 0x005e)
   01D9 36 F8               283 	ld	(hl),#0xF8
   01DB 21r5Fr00            284 	ld	hl,#(_window_border + 0x005f)
   01DE 36 F8               285 	ld	(hl),#0xF8
   01E0 21r60r00            286 	ld	hl,#(_window_border + 0x0060)
   01E3 36 13               287 	ld	(hl),#0x13
   01E5 21r61r00            288 	ld	hl,#(_window_border + 0x0061)
   01E8 36 09               289 	ld	(hl),#0x09
   01EA 21r62r00            290 	ld	hl,#(_window_border + 0x0062)
   01ED 36 13               291 	ld	(hl),#0x13
   01EF 21r63r00            292 	ld	hl,#(_window_border + 0x0063)
   01F2 36 09               293 	ld	(hl),#0x09
   01F4 21r64r00            294 	ld	hl,#(_window_border + 0x0064)
   01F7 36 13               295 	ld	(hl),#0x13
   01F9 21r65r00            296 	ld	hl,#(_window_border + 0x0065)
   01FC 36 09               297 	ld	(hl),#0x09
   01FE 21r66r00            298 	ld	hl,#(_window_border + 0x0066)
   0201 36 13               299 	ld	(hl),#0x13
   0203 21r67r00            300 	ld	hl,#(_window_border + 0x0067)
   0206 36 09               301 	ld	(hl),#0x09
   0208 21r68r00            302 	ld	hl,#(_window_border + 0x0068)
   020B 36 13               303 	ld	(hl),#0x13
   020D 21r69r00            304 	ld	hl,#(_window_border + 0x0069)
   0210 36 09               305 	ld	(hl),#0x09
   0212 21r6Ar00            306 	ld	hl,#(_window_border + 0x006a)
   0215 36 13               307 	ld	(hl),#0x13
   0217 21r6Br00            308 	ld	hl,#(_window_border + 0x006b)
   021A 36 09               309 	ld	(hl),#0x09
   021C 21r6Cr00            310 	ld	hl,#(_window_border + 0x006c)
   021F 36 13               311 	ld	(hl),#0x13
   0221 21r6Dr00            312 	ld	hl,#(_window_border + 0x006d)
   0224 36 09               313 	ld	(hl),#0x09
   0226 21r6Er00            314 	ld	hl,#(_window_border + 0x006e)
   0229 36 13               315 	ld	(hl),#0x13
   022B 21r6Fr00            316 	ld	hl,#(_window_border + 0x006f)
   022E 36 09               317 	ld	(hl),#0x09
   0230 21r70r00            318 	ld	hl,#(_window_border + 0x0070)
   0233 36 F8               319 	ld	(hl),#0xF8
   0235 21r71r00            320 	ld	hl,#(_window_border + 0x0071)
   0238 36 F8               321 	ld	(hl),#0xF8
   023A 21r72r00            322 	ld	hl,#(_window_border + 0x0072)
   023D 36 04               323 	ld	(hl),#0x04
   023F 21r73r00            324 	ld	hl,#(_window_border + 0x0073)
   0242 36 FC               325 	ld	(hl),#0xFC
   0244 21r74r00            326 	ld	hl,#(_window_border + 0x0074)
   0247 36 02               327 	ld	(hl),#0x02
   0249 21r75r00            328 	ld	hl,#(_window_border + 0x0075)
   024C 36 0E               329 	ld	(hl),#0x0E
   024E 21r76r00            330 	ld	hl,#(_window_border + 0x0076)
   0251 36 E1               331 	ld	(hl),#0xE1
   0253 21r77r00            332 	ld	hl,#(_window_border + 0x0077)
   0256 36 07               333 	ld	(hl),#0x07
   0258 21r78r00            334 	ld	hl,#(_window_border + 0x0078)
   025B 36 F1               335 	ld	(hl),#0xF1
   025D 21r79r00            336 	ld	hl,#(_window_border + 0x0079)
   0260 36 C3               337 	ld	(hl),#0xC3
   0262 21r7Ar00            338 	ld	hl,#(_window_border + 0x007a)
   0265 36 23               339 	ld	(hl),#0x23
   0267 21r7Br00            340 	ld	hl,#(_window_border + 0x007b)
   026A 36 39               341 	ld	(hl),#0x39
   026C 21r7Cr00            342 	ld	hl,#(_window_border + 0x007c)
   026F 36 13               343 	ld	(hl),#0x13
   0271 21r7Dr00            344 	ld	hl,#(_window_border + 0x007d)
   0274 36 09               345 	ld	(hl),#0x09
   0276 21r7Er00            346 	ld	hl,#(_window_border + 0x007e)
   0279 36 13               347 	ld	(hl),#0x13
   027B 21r7Fr00            348 	ld	hl,#(_window_border + 0x007f)
   027E 36 09               349 	ld	(hl),#0x09
   0280 01r80r00            350 	ld	bc,#_window_border + 128
   0283 AF                  351 	xor	a, a
   0284 02                  352 	ld	(bc),a
   0285 01r81r00            353 	ld	bc,#_window_border + 129
   0288 AF                  354 	xor	a, a
   0289 02                  355 	ld	(bc),a
   028A 01r82r00            356 	ld	bc,#_window_border + 130
   028D AF                  357 	xor	a, a
   028E 02                  358 	ld	(bc),a
   028F 01r83r00            359 	ld	bc,#_window_border + 131
   0292 AF                  360 	xor	a, a
   0293 02                  361 	ld	(bc),a
   0294 01r84r00            362 	ld	bc,#_window_border + 132
   0297 AF                  363 	xor	a, a
   0298 02                  364 	ld	(bc),a
   0299 01r85r00            365 	ld	bc,#_window_border + 133
   029C AF                  366 	xor	a, a
   029D 02                  367 	ld	(bc),a
   029E 01r86r00            368 	ld	bc,#_window_border + 134
   02A1 AF                  369 	xor	a, a
   02A2 02                  370 	ld	(bc),a
   02A3 01r87r00            371 	ld	bc,#_window_border + 135
   02A6 AF                  372 	xor	a, a
   02A7 02                  373 	ld	(bc),a
   02A8 01r88r00            374 	ld	bc,#_window_border + 136
   02AB AF                  375 	xor	a, a
   02AC 02                  376 	ld	(bc),a
   02AD 01r89r00            377 	ld	bc,#_window_border + 137
   02B0 AF                  378 	xor	a, a
   02B1 02                  379 	ld	(bc),a
   02B2 01r8Ar00            380 	ld	bc,#_window_border + 138
   02B5 AF                  381 	xor	a, a
   02B6 02                  382 	ld	(bc),a
   02B7 01r8Br00            383 	ld	bc,#_window_border + 139
   02BA AF                  384 	xor	a, a
   02BB 02                  385 	ld	(bc),a
   02BC 01r8Cr00            386 	ld	bc,#_window_border + 140
   02BF AF                  387 	xor	a, a
   02C0 02                  388 	ld	(bc),a
   02C1 01r8Dr00            389 	ld	bc,#_window_border + 141
   02C4 AF                  390 	xor	a, a
   02C5 02                  391 	ld	(bc),a
   02C6 01r8Er00            392 	ld	bc,#_window_border + 142
   02C9 AF                  393 	xor	a, a
   02CA 02                  394 	ld	(bc),a
   02CB 01r8Fr00            395 	ld	bc,#_window_border + 143
   02CE AF                  396 	xor	a, a
   02CF 02                  397 	ld	(bc),a
                            398 ;main.c:94: unsigned char text_box[] =
   02D0 21r90r00            399 	ld	hl,#_text_box
   02D3 36 80               400 	ld	(hl),#0x80
   02D5 21r91r00            401 	ld	hl,#(_text_box + 0x0001)
   02D8 36 82               402 	ld	(hl),#0x82
   02DA 21r92r00            403 	ld	hl,#(_text_box + 0x0002)
   02DD 36 82               404 	ld	(hl),#0x82
   02DF 21r93r00            405 	ld	hl,#(_text_box + 0x0003)
   02E2 36 82               406 	ld	(hl),#0x82
   02E4 21r94r00            407 	ld	hl,#(_text_box + 0x0004)
   02E7 36 82               408 	ld	(hl),#0x82
   02E9 21r95r00            409 	ld	hl,#(_text_box + 0x0005)
   02EC 36 82               410 	ld	(hl),#0x82
   02EE 21r96r00            411 	ld	hl,#(_text_box + 0x0006)
   02F1 36 82               412 	ld	(hl),#0x82
   02F3 21r97r00            413 	ld	hl,#(_text_box + 0x0007)
   02F6 36 82               414 	ld	(hl),#0x82
   02F8 21r98r00            415 	ld	hl,#(_text_box + 0x0008)
   02FB 36 82               416 	ld	(hl),#0x82
   02FD 21r99r00            417 	ld	hl,#(_text_box + 0x0009)
   0300 36 82               418 	ld	(hl),#0x82
   0302 21r9Ar00            419 	ld	hl,#(_text_box + 0x000a)
   0305 36 82               420 	ld	(hl),#0x82
   0307 21r9Br00            421 	ld	hl,#(_text_box + 0x000b)
   030A 36 82               422 	ld	(hl),#0x82
   030C 21r9Cr00            423 	ld	hl,#(_text_box + 0x000c)
   030F 36 82               424 	ld	(hl),#0x82
   0311 21r9Dr00            425 	ld	hl,#(_text_box + 0x000d)
   0314 36 82               426 	ld	(hl),#0x82
   0316 21r9Er00            427 	ld	hl,#(_text_box + 0x000e)
   0319 36 82               428 	ld	(hl),#0x82
   031B 21r9Fr00            429 	ld	hl,#(_text_box + 0x000f)
   031E 36 82               430 	ld	(hl),#0x82
   0320 21rA0r00            431 	ld	hl,#(_text_box + 0x0010)
   0323 36 82               432 	ld	(hl),#0x82
   0325 21rA1r00            433 	ld	hl,#(_text_box + 0x0011)
   0328 36 82               434 	ld	(hl),#0x82
   032A 21rA2r00            435 	ld	hl,#(_text_box + 0x0012)
   032D 36 82               436 	ld	(hl),#0x82
   032F 21rA3r00            437 	ld	hl,#(_text_box + 0x0013)
   0332 36 87               438 	ld	(hl),#0x87
   0334 21rA4r00            439 	ld	hl,#(_text_box + 0x0014)
   0337 36 81               440 	ld	(hl),#0x81
   0339 21rA5r00            441 	ld	hl,#(_text_box + 0x0015)
   033C 36 88               442 	ld	(hl),#0x88
   033E 21rA6r00            443 	ld	hl,#(_text_box + 0x0016)
   0341 36 88               444 	ld	(hl),#0x88
   0343 21rA7r00            445 	ld	hl,#(_text_box + 0x0017)
   0346 36 88               446 	ld	(hl),#0x88
   0348 21rA8r00            447 	ld	hl,#(_text_box + 0x0018)
   034B 36 88               448 	ld	(hl),#0x88
   034D 21rA9r00            449 	ld	hl,#(_text_box + 0x0019)
   0350 36 88               450 	ld	(hl),#0x88
   0352 21rAAr00            451 	ld	hl,#(_text_box + 0x001a)
   0355 36 88               452 	ld	(hl),#0x88
   0357 21rABr00            453 	ld	hl,#(_text_box + 0x001b)
   035A 36 88               454 	ld	(hl),#0x88
   035C 21rACr00            455 	ld	hl,#(_text_box + 0x001c)
   035F 36 88               456 	ld	(hl),#0x88
   0361 21rADr00            457 	ld	hl,#(_text_box + 0x001d)
   0364 36 88               458 	ld	(hl),#0x88
   0366 21rAEr00            459 	ld	hl,#(_text_box + 0x001e)
   0369 36 88               460 	ld	(hl),#0x88
   036B 21rAFr00            461 	ld	hl,#(_text_box + 0x001f)
   036E 36 88               462 	ld	(hl),#0x88
   0370 21rB0r00            463 	ld	hl,#(_text_box + 0x0020)
   0373 36 88               464 	ld	(hl),#0x88
   0375 21rB1r00            465 	ld	hl,#(_text_box + 0x0021)
   0378 36 88               466 	ld	(hl),#0x88
   037A 21rB2r00            467 	ld	hl,#(_text_box + 0x0022)
   037D 36 88               468 	ld	(hl),#0x88
   037F 21rB3r00            469 	ld	hl,#(_text_box + 0x0023)
   0382 36 88               470 	ld	(hl),#0x88
   0384 21rB4r00            471 	ld	hl,#(_text_box + 0x0024)
   0387 36 88               472 	ld	(hl),#0x88
   0389 21rB5r00            473 	ld	hl,#(_text_box + 0x0025)
   038C 36 88               474 	ld	(hl),#0x88
   038E 21rB6r00            475 	ld	hl,#(_text_box + 0x0026)
   0391 36 88               476 	ld	(hl),#0x88
   0393 21rB7r00            477 	ld	hl,#(_text_box + 0x0027)
   0396 36 86               478 	ld	(hl),#0x86
   0398 21rB8r00            479 	ld	hl,#(_text_box + 0x0028)
   039B 36 81               480 	ld	(hl),#0x81
   039D 21rB9r00            481 	ld	hl,#(_text_box + 0x0029)
   03A0 36 88               482 	ld	(hl),#0x88
   03A2 21rBAr00            483 	ld	hl,#(_text_box + 0x002a)
   03A5 36 88               484 	ld	(hl),#0x88
   03A7 21rBBr00            485 	ld	hl,#(_text_box + 0x002b)
   03AA 36 88               486 	ld	(hl),#0x88
   03AC 21rBCr00            487 	ld	hl,#(_text_box + 0x002c)
   03AF 36 88               488 	ld	(hl),#0x88
   03B1 21rBDr00            489 	ld	hl,#(_text_box + 0x002d)
   03B4 36 88               490 	ld	(hl),#0x88
   03B6 21rBEr00            491 	ld	hl,#(_text_box + 0x002e)
   03B9 36 88               492 	ld	(hl),#0x88
   03BB 21rBFr00            493 	ld	hl,#(_text_box + 0x002f)
   03BE 36 88               494 	ld	(hl),#0x88
   03C0 21rC0r00            495 	ld	hl,#(_text_box + 0x0030)
   03C3 36 88               496 	ld	(hl),#0x88
   03C5 21rC1r00            497 	ld	hl,#(_text_box + 0x0031)
   03C8 36 88               498 	ld	(hl),#0x88
   03CA 21rC2r00            499 	ld	hl,#(_text_box + 0x0032)
   03CD 36 88               500 	ld	(hl),#0x88
   03CF 21rC3r00            501 	ld	hl,#(_text_box + 0x0033)
   03D2 36 88               502 	ld	(hl),#0x88
   03D4 21rC4r00            503 	ld	hl,#(_text_box + 0x0034)
   03D7 36 88               504 	ld	(hl),#0x88
   03D9 21rC5r00            505 	ld	hl,#(_text_box + 0x0035)
   03DC 36 88               506 	ld	(hl),#0x88
   03DE 21rC6r00            507 	ld	hl,#(_text_box + 0x0036)
   03E1 36 88               508 	ld	(hl),#0x88
   03E3 21rC7r00            509 	ld	hl,#(_text_box + 0x0037)
   03E6 36 88               510 	ld	(hl),#0x88
   03E8 21rC8r00            511 	ld	hl,#(_text_box + 0x0038)
   03EB 36 88               512 	ld	(hl),#0x88
   03ED 21rC9r00            513 	ld	hl,#(_text_box + 0x0039)
   03F0 36 88               514 	ld	(hl),#0x88
   03F2 21rCAr00            515 	ld	hl,#(_text_box + 0x003a)
   03F5 36 88               516 	ld	(hl),#0x88
   03F7 21rCBr00            517 	ld	hl,#(_text_box + 0x003b)
   03FA 36 86               518 	ld	(hl),#0x86
   03FC 21rCCr00            519 	ld	hl,#(_text_box + 0x003c)
   03FF 36 81               520 	ld	(hl),#0x81
   0401 21rCDr00            521 	ld	hl,#(_text_box + 0x003d)
   0404 36 88               522 	ld	(hl),#0x88
   0406 21rCEr00            523 	ld	hl,#(_text_box + 0x003e)
   0409 36 88               524 	ld	(hl),#0x88
   040B 21rCFr00            525 	ld	hl,#(_text_box + 0x003f)
   040E 36 88               526 	ld	(hl),#0x88
   0410 21rD0r00            527 	ld	hl,#(_text_box + 0x0040)
   0413 36 88               528 	ld	(hl),#0x88
   0415 21rD1r00            529 	ld	hl,#(_text_box + 0x0041)
   0418 36 88               530 	ld	(hl),#0x88
   041A 21rD2r00            531 	ld	hl,#(_text_box + 0x0042)
   041D 36 88               532 	ld	(hl),#0x88
   041F 21rD3r00            533 	ld	hl,#(_text_box + 0x0043)
   0422 36 88               534 	ld	(hl),#0x88
   0424 21rD4r00            535 	ld	hl,#(_text_box + 0x0044)
   0427 36 88               536 	ld	(hl),#0x88
   0429 21rD5r00            537 	ld	hl,#(_text_box + 0x0045)
   042C 36 88               538 	ld	(hl),#0x88
   042E 21rD6r00            539 	ld	hl,#(_text_box + 0x0046)
   0431 36 88               540 	ld	(hl),#0x88
   0433 21rD7r00            541 	ld	hl,#(_text_box + 0x0047)
   0436 36 88               542 	ld	(hl),#0x88
   0438 21rD8r00            543 	ld	hl,#(_text_box + 0x0048)
   043B 36 88               544 	ld	(hl),#0x88
   043D 21rD9r00            545 	ld	hl,#(_text_box + 0x0049)
   0440 36 88               546 	ld	(hl),#0x88
   0442 21rDAr00            547 	ld	hl,#(_text_box + 0x004a)
   0445 36 88               548 	ld	(hl),#0x88
   0447 21rDBr00            549 	ld	hl,#(_text_box + 0x004b)
   044A 36 88               550 	ld	(hl),#0x88
   044C 21rDCr00            551 	ld	hl,#(_text_box + 0x004c)
   044F 36 88               552 	ld	(hl),#0x88
   0451 21rDDr00            553 	ld	hl,#(_text_box + 0x004d)
   0454 36 88               554 	ld	(hl),#0x88
   0456 21rDEr00            555 	ld	hl,#(_text_box + 0x004e)
   0459 36 88               556 	ld	(hl),#0x88
   045B 21rDFr00            557 	ld	hl,#(_text_box + 0x004f)
   045E 36 86               558 	ld	(hl),#0x86
   0460 21rE0r00            559 	ld	hl,#(_text_box + 0x0050)
   0463 36 81               560 	ld	(hl),#0x81
   0465 21rE1r00            561 	ld	hl,#(_text_box + 0x0051)
   0468 36 88               562 	ld	(hl),#0x88
   046A 21rE2r00            563 	ld	hl,#(_text_box + 0x0052)
   046D 36 88               564 	ld	(hl),#0x88
   046F 21rE3r00            565 	ld	hl,#(_text_box + 0x0053)
   0472 36 88               566 	ld	(hl),#0x88
   0474 21rE4r00            567 	ld	hl,#(_text_box + 0x0054)
   0477 36 88               568 	ld	(hl),#0x88
   0479 21rE5r00            569 	ld	hl,#(_text_box + 0x0055)
   047C 36 88               570 	ld	(hl),#0x88
   047E 21rE6r00            571 	ld	hl,#(_text_box + 0x0056)
   0481 36 88               572 	ld	(hl),#0x88
   0483 21rE7r00            573 	ld	hl,#(_text_box + 0x0057)
   0486 36 88               574 	ld	(hl),#0x88
   0488 21rE8r00            575 	ld	hl,#(_text_box + 0x0058)
   048B 36 88               576 	ld	(hl),#0x88
   048D 21rE9r00            577 	ld	hl,#(_text_box + 0x0059)
   0490 36 88               578 	ld	(hl),#0x88
   0492 21rEAr00            579 	ld	hl,#(_text_box + 0x005a)
   0495 36 88               580 	ld	(hl),#0x88
   0497 21rEBr00            581 	ld	hl,#(_text_box + 0x005b)
   049A 36 88               582 	ld	(hl),#0x88
   049C 21rECr00            583 	ld	hl,#(_text_box + 0x005c)
   049F 36 88               584 	ld	(hl),#0x88
   04A1 21rEDr00            585 	ld	hl,#(_text_box + 0x005d)
   04A4 36 88               586 	ld	(hl),#0x88
   04A6 21rEEr00            587 	ld	hl,#(_text_box + 0x005e)
   04A9 36 88               588 	ld	(hl),#0x88
   04AB 21rEFr00            589 	ld	hl,#(_text_box + 0x005f)
   04AE 36 88               590 	ld	(hl),#0x88
   04B0 21rF0r00            591 	ld	hl,#(_text_box + 0x0060)
   04B3 36 88               592 	ld	(hl),#0x88
   04B5 21rF1r00            593 	ld	hl,#(_text_box + 0x0061)
   04B8 36 88               594 	ld	(hl),#0x88
   04BA 21rF2r00            595 	ld	hl,#(_text_box + 0x0062)
   04BD 36 88               596 	ld	(hl),#0x88
   04BF 21rF3r00            597 	ld	hl,#(_text_box + 0x0063)
   04C2 36 86               598 	ld	(hl),#0x86
   04C4 21rF4r00            599 	ld	hl,#(_text_box + 0x0064)
   04C7 36 83               600 	ld	(hl),#0x83
   04C9 21rF5r00            601 	ld	hl,#(_text_box + 0x0065)
   04CC 36 84               602 	ld	(hl),#0x84
   04CE 21rF6r00            603 	ld	hl,#(_text_box + 0x0066)
   04D1 36 84               604 	ld	(hl),#0x84
   04D3 21rF7r00            605 	ld	hl,#(_text_box + 0x0067)
   04D6 36 84               606 	ld	(hl),#0x84
   04D8 21rF8r00            607 	ld	hl,#(_text_box + 0x0068)
   04DB 36 84               608 	ld	(hl),#0x84
   04DD 21rF9r00            609 	ld	hl,#(_text_box + 0x0069)
   04E0 36 84               610 	ld	(hl),#0x84
   04E2 21rFAr00            611 	ld	hl,#(_text_box + 0x006a)
   04E5 36 84               612 	ld	(hl),#0x84
   04E7 21rFBr00            613 	ld	hl,#(_text_box + 0x006b)
   04EA 36 84               614 	ld	(hl),#0x84
   04EC 21rFCr00            615 	ld	hl,#(_text_box + 0x006c)
   04EF 36 84               616 	ld	(hl),#0x84
   04F1 21rFDr00            617 	ld	hl,#(_text_box + 0x006d)
   04F4 36 84               618 	ld	(hl),#0x84
   04F6 21rFEr00            619 	ld	hl,#(_text_box + 0x006e)
   04F9 36 84               620 	ld	(hl),#0x84
   04FB 21rFFr00            621 	ld	hl,#(_text_box + 0x006f)
   04FE 36 84               622 	ld	(hl),#0x84
   0500 21r00r01            623 	ld	hl,#(_text_box + 0x0070)
   0503 36 84               624 	ld	(hl),#0x84
   0505 21r01r01            625 	ld	hl,#(_text_box + 0x0071)
   0508 36 84               626 	ld	(hl),#0x84
   050A 21r02r01            627 	ld	hl,#(_text_box + 0x0072)
   050D 36 84               628 	ld	(hl),#0x84
   050F 21r03r01            629 	ld	hl,#(_text_box + 0x0073)
   0512 36 84               630 	ld	(hl),#0x84
   0514 21r04r01            631 	ld	hl,#(_text_box + 0x0074)
   0517 36 84               632 	ld	(hl),#0x84
   0519 21r05r01            633 	ld	hl,#(_text_box + 0x0075)
   051C 36 84               634 	ld	(hl),#0x84
   051E 21r06r01            635 	ld	hl,#(_text_box + 0x0076)
   0521 36 84               636 	ld	(hl),#0x84
   0523 21r07r01            637 	ld	hl,#(_text_box + 0x0077)
   0526 36 85               638 	ld	(hl),#0x85
                            639 ;main.c:203: unsigned char alphabet[] =
   0528 21r08r01            640 	ld	hl,#_alphabet
   052B 36 7C               641 	ld	(hl),#0x7C
   052D 21r09r01            642 	ld	hl,#(_alphabet + 0x0001)
   0530 36 7C               643 	ld	(hl),#0x7C
   0532 21r0Ar01            644 	ld	hl,#(_alphabet + 0x0002)
   0535 36 82               645 	ld	(hl),#0x82
   0537 21r0Br01            646 	ld	hl,#(_alphabet + 0x0003)
   053A 36 82               647 	ld	(hl),#0x82
   053C 21r0Cr01            648 	ld	hl,#(_alphabet + 0x0004)
   053F 36 82               649 	ld	(hl),#0x82
   0541 21r0Dr01            650 	ld	hl,#(_alphabet + 0x0005)
   0544 36 82               651 	ld	(hl),#0x82
   0546 21r0Er01            652 	ld	hl,#(_alphabet + 0x0006)
   0549 36 82               653 	ld	(hl),#0x82
   054B 21r0Fr01            654 	ld	hl,#(_alphabet + 0x0007)
   054E 36 82               655 	ld	(hl),#0x82
   0550 21r10r01            656 	ld	hl,#(_alphabet + 0x0008)
   0553 36 82               657 	ld	(hl),#0x82
   0555 21r11r01            658 	ld	hl,#(_alphabet + 0x0009)
   0558 36 82               659 	ld	(hl),#0x82
   055A 21r12r01            660 	ld	hl,#(_alphabet + 0x000a)
   055D 36 82               661 	ld	(hl),#0x82
   055F 21r13r01            662 	ld	hl,#(_alphabet + 0x000b)
   0562 36 82               663 	ld	(hl),#0x82
   0564 21r14r01            664 	ld	hl,#(_alphabet + 0x000c)
   0567 36 7C               665 	ld	(hl),#0x7C
   0569 21r15r01            666 	ld	hl,#(_alphabet + 0x000d)
   056C 36 7C               667 	ld	(hl),#0x7C
   056E 01r16r01            668 	ld	bc,#_alphabet + 14
   0571 AF                  669 	xor	a, a
   0572 02                  670 	ld	(bc),a
   0573 01r17r01            671 	ld	bc,#_alphabet + 15
   0576 AF                  672 	xor	a, a
   0577 02                  673 	ld	(bc),a
   0578 21r18r01            674 	ld	hl,#(_alphabet + 0x0010)
   057B 36 10               675 	ld	(hl),#0x10
   057D 21r19r01            676 	ld	hl,#(_alphabet + 0x0011)
   0580 36 10               677 	ld	(hl),#0x10
   0582 21r1Ar01            678 	ld	hl,#(_alphabet + 0x0012)
   0585 36 30               679 	ld	(hl),#0x30
   0587 21r1Br01            680 	ld	hl,#(_alphabet + 0x0013)
   058A 36 30               681 	ld	(hl),#0x30
   058C 21r1Cr01            682 	ld	hl,#(_alphabet + 0x0014)
   058F 36 10               683 	ld	(hl),#0x10
   0591 21r1Dr01            684 	ld	hl,#(_alphabet + 0x0015)
   0594 36 10               685 	ld	(hl),#0x10
   0596 21r1Er01            686 	ld	hl,#(_alphabet + 0x0016)
   0599 36 10               687 	ld	(hl),#0x10
   059B 21r1Fr01            688 	ld	hl,#(_alphabet + 0x0017)
   059E 36 10               689 	ld	(hl),#0x10
   05A0 21r20r01            690 	ld	hl,#(_alphabet + 0x0018)
   05A3 36 10               691 	ld	(hl),#0x10
   05A5 21r21r01            692 	ld	hl,#(_alphabet + 0x0019)
   05A8 36 10               693 	ld	(hl),#0x10
   05AA 21r22r01            694 	ld	hl,#(_alphabet + 0x001a)
   05AD 36 10               695 	ld	(hl),#0x10
   05AF 21r23r01            696 	ld	hl,#(_alphabet + 0x001b)
   05B2 36 10               697 	ld	(hl),#0x10
   05B4 21r24r01            698 	ld	hl,#(_alphabet + 0x001c)
   05B7 36 7C               699 	ld	(hl),#0x7C
   05B9 21r25r01            700 	ld	hl,#(_alphabet + 0x001d)
   05BC 36 7C               701 	ld	(hl),#0x7C
   05BE 01r26r01            702 	ld	bc,#_alphabet + 30
   05C1 AF                  703 	xor	a, a
   05C2 02                  704 	ld	(bc),a
   05C3 01r27r01            705 	ld	bc,#_alphabet + 31
   05C6 AF                  706 	xor	a, a
   05C7 02                  707 	ld	(bc),a
   05C8 21r28r01            708 	ld	hl,#(_alphabet + 0x0020)
   05CB 36 7C               709 	ld	(hl),#0x7C
   05CD 21r29r01            710 	ld	hl,#(_alphabet + 0x0021)
   05D0 36 7C               711 	ld	(hl),#0x7C
   05D2 21r2Ar01            712 	ld	hl,#(_alphabet + 0x0022)
   05D5 36 82               713 	ld	(hl),#0x82
   05D7 21r2Br01            714 	ld	hl,#(_alphabet + 0x0023)
   05DA 36 82               715 	ld	(hl),#0x82
   05DC 21r2Cr01            716 	ld	hl,#(_alphabet + 0x0024)
   05DF 36 02               717 	ld	(hl),#0x02
   05E1 21r2Dr01            718 	ld	hl,#(_alphabet + 0x0025)
   05E4 36 02               719 	ld	(hl),#0x02
   05E6 21r2Er01            720 	ld	hl,#(_alphabet + 0x0026)
   05E9 36 0C               721 	ld	(hl),#0x0C
   05EB 21r2Fr01            722 	ld	hl,#(_alphabet + 0x0027)
   05EE 36 0C               723 	ld	(hl),#0x0C
   05F0 21r30r01            724 	ld	hl,#(_alphabet + 0x0028)
   05F3 36 30               725 	ld	(hl),#0x30
   05F5 21r31r01            726 	ld	hl,#(_alphabet + 0x0029)
   05F8 36 30               727 	ld	(hl),#0x30
   05FA 21r32r01            728 	ld	hl,#(_alphabet + 0x002a)
   05FD 36 40               729 	ld	(hl),#0x40
   05FF 21r33r01            730 	ld	hl,#(_alphabet + 0x002b)
   0602 36 40               731 	ld	(hl),#0x40
   0604 21r34r01            732 	ld	hl,#(_alphabet + 0x002c)
   0607 36 FE               733 	ld	(hl),#0xFE
   0609 21r35r01            734 	ld	hl,#(_alphabet + 0x002d)
   060C 36 FE               735 	ld	(hl),#0xFE
   060E 01r36r01            736 	ld	bc,#_alphabet + 46
   0611 AF                  737 	xor	a, a
   0612 02                  738 	ld	(bc),a
   0613 01r37r01            739 	ld	bc,#_alphabet + 47
   0616 AF                  740 	xor	a, a
   0617 02                  741 	ld	(bc),a
   0618 21r38r01            742 	ld	hl,#(_alphabet + 0x0030)
   061B 36 7C               743 	ld	(hl),#0x7C
   061D 21r39r01            744 	ld	hl,#(_alphabet + 0x0031)
   0620 36 7C               745 	ld	(hl),#0x7C
   0622 21r3Ar01            746 	ld	hl,#(_alphabet + 0x0032)
   0625 36 82               747 	ld	(hl),#0x82
   0627 21r3Br01            748 	ld	hl,#(_alphabet + 0x0033)
   062A 36 82               749 	ld	(hl),#0x82
   062C 21r3Cr01            750 	ld	hl,#(_alphabet + 0x0034)
   062F 36 02               751 	ld	(hl),#0x02
   0631 21r3Dr01            752 	ld	hl,#(_alphabet + 0x0035)
   0634 36 02               753 	ld	(hl),#0x02
   0636 21r3Er01            754 	ld	hl,#(_alphabet + 0x0036)
   0639 36 3C               755 	ld	(hl),#0x3C
   063B 21r3Fr01            756 	ld	hl,#(_alphabet + 0x0037)
   063E 36 3C               757 	ld	(hl),#0x3C
   0640 21r40r01            758 	ld	hl,#(_alphabet + 0x0038)
   0643 36 02               759 	ld	(hl),#0x02
   0645 21r41r01            760 	ld	hl,#(_alphabet + 0x0039)
   0648 36 02               761 	ld	(hl),#0x02
   064A 21r42r01            762 	ld	hl,#(_alphabet + 0x003a)
   064D 36 82               763 	ld	(hl),#0x82
   064F 21r43r01            764 	ld	hl,#(_alphabet + 0x003b)
   0652 36 82               765 	ld	(hl),#0x82
   0654 21r44r01            766 	ld	hl,#(_alphabet + 0x003c)
   0657 36 7C               767 	ld	(hl),#0x7C
   0659 21r45r01            768 	ld	hl,#(_alphabet + 0x003d)
   065C 36 7C               769 	ld	(hl),#0x7C
   065E 01r46r01            770 	ld	bc,#_alphabet + 62
   0661 AF                  771 	xor	a, a
   0662 02                  772 	ld	(bc),a
   0663 01r47r01            773 	ld	bc,#_alphabet + 63
   0666 AF                  774 	xor	a, a
   0667 02                  775 	ld	(bc),a
   0668 21r48r01            776 	ld	hl,#(_alphabet + 0x0040)
   066B 36 0C               777 	ld	(hl),#0x0C
   066D 21r49r01            778 	ld	hl,#(_alphabet + 0x0041)
   0670 36 0C               779 	ld	(hl),#0x0C
   0672 21r4Ar01            780 	ld	hl,#(_alphabet + 0x0042)
   0675 36 14               781 	ld	(hl),#0x14
   0677 21r4Br01            782 	ld	hl,#(_alphabet + 0x0043)
   067A 36 14               783 	ld	(hl),#0x14
   067C 21r4Cr01            784 	ld	hl,#(_alphabet + 0x0044)
   067F 36 24               785 	ld	(hl),#0x24
   0681 21r4Dr01            786 	ld	hl,#(_alphabet + 0x0045)
   0684 36 24               787 	ld	(hl),#0x24
   0686 21r4Er01            788 	ld	hl,#(_alphabet + 0x0046)
   0689 36 44               789 	ld	(hl),#0x44
   068B 21r4Fr01            790 	ld	hl,#(_alphabet + 0x0047)
   068E 36 44               791 	ld	(hl),#0x44
   0690 21r50r01            792 	ld	hl,#(_alphabet + 0x0048)
   0693 36 84               793 	ld	(hl),#0x84
   0695 21r51r01            794 	ld	hl,#(_alphabet + 0x0049)
   0698 36 84               795 	ld	(hl),#0x84
   069A 21r52r01            796 	ld	hl,#(_alphabet + 0x004a)
   069D 36 FE               797 	ld	(hl),#0xFE
   069F 21r53r01            798 	ld	hl,#(_alphabet + 0x004b)
   06A2 36 FE               799 	ld	(hl),#0xFE
   06A4 21r54r01            800 	ld	hl,#(_alphabet + 0x004c)
   06A7 36 04               801 	ld	(hl),#0x04
   06A9 21r55r01            802 	ld	hl,#(_alphabet + 0x004d)
   06AC 36 04               803 	ld	(hl),#0x04
   06AE 01r56r01            804 	ld	bc,#_alphabet + 78
   06B1 AF                  805 	xor	a, a
   06B2 02                  806 	ld	(bc),a
   06B3 01r57r01            807 	ld	bc,#_alphabet + 79
   06B6 AF                  808 	xor	a, a
   06B7 02                  809 	ld	(bc),a
   06B8 21r58r01            810 	ld	hl,#(_alphabet + 0x0050)
   06BB 36 FC               811 	ld	(hl),#0xFC
   06BD 21r59r01            812 	ld	hl,#(_alphabet + 0x0051)
   06C0 36 FC               813 	ld	(hl),#0xFC
   06C2 21r5Ar01            814 	ld	hl,#(_alphabet + 0x0052)
   06C5 36 80               815 	ld	(hl),#0x80
   06C7 21r5Br01            816 	ld	hl,#(_alphabet + 0x0053)
   06CA 36 80               817 	ld	(hl),#0x80
   06CC 21r5Cr01            818 	ld	hl,#(_alphabet + 0x0054)
   06CF 36 80               819 	ld	(hl),#0x80
   06D1 21r5Dr01            820 	ld	hl,#(_alphabet + 0x0055)
   06D4 36 80               821 	ld	(hl),#0x80
   06D6 21r5Er01            822 	ld	hl,#(_alphabet + 0x0056)
   06D9 36 FC               823 	ld	(hl),#0xFC
   06DB 21r5Fr01            824 	ld	hl,#(_alphabet + 0x0057)
   06DE 36 FC               825 	ld	(hl),#0xFC
   06E0 21r60r01            826 	ld	hl,#(_alphabet + 0x0058)
   06E3 36 02               827 	ld	(hl),#0x02
   06E5 21r61r01            828 	ld	hl,#(_alphabet + 0x0059)
   06E8 36 02               829 	ld	(hl),#0x02
   06EA 21r62r01            830 	ld	hl,#(_alphabet + 0x005a)
   06ED 36 82               831 	ld	(hl),#0x82
   06EF 21r63r01            832 	ld	hl,#(_alphabet + 0x005b)
   06F2 36 82               833 	ld	(hl),#0x82
   06F4 21r64r01            834 	ld	hl,#(_alphabet + 0x005c)
   06F7 36 7C               835 	ld	(hl),#0x7C
   06F9 21r65r01            836 	ld	hl,#(_alphabet + 0x005d)
   06FC 36 7C               837 	ld	(hl),#0x7C
   06FE 01r66r01            838 	ld	bc,#_alphabet + 94
   0701 AF                  839 	xor	a, a
   0702 02                  840 	ld	(bc),a
   0703 01r67r01            841 	ld	bc,#_alphabet + 95
   0706 AF                  842 	xor	a, a
   0707 02                  843 	ld	(bc),a
   0708 21r68r01            844 	ld	hl,#(_alphabet + 0x0060)
   070B 36 7C               845 	ld	(hl),#0x7C
   070D 21r69r01            846 	ld	hl,#(_alphabet + 0x0061)
   0710 36 7C               847 	ld	(hl),#0x7C
   0712 21r6Ar01            848 	ld	hl,#(_alphabet + 0x0062)
   0715 36 82               849 	ld	(hl),#0x82
   0717 21r6Br01            850 	ld	hl,#(_alphabet + 0x0063)
   071A 36 82               851 	ld	(hl),#0x82
   071C 21r6Cr01            852 	ld	hl,#(_alphabet + 0x0064)
   071F 36 80               853 	ld	(hl),#0x80
   0721 21r6Dr01            854 	ld	hl,#(_alphabet + 0x0065)
   0724 36 80               855 	ld	(hl),#0x80
   0726 21r6Er01            856 	ld	hl,#(_alphabet + 0x0066)
   0729 36 FC               857 	ld	(hl),#0xFC
   072B 21r6Fr01            858 	ld	hl,#(_alphabet + 0x0067)
   072E 36 FC               859 	ld	(hl),#0xFC
   0730 21r70r01            860 	ld	hl,#(_alphabet + 0x0068)
   0733 36 82               861 	ld	(hl),#0x82
   0735 21r71r01            862 	ld	hl,#(_alphabet + 0x0069)
   0738 36 82               863 	ld	(hl),#0x82
   073A 21r72r01            864 	ld	hl,#(_alphabet + 0x006a)
   073D 36 82               865 	ld	(hl),#0x82
   073F 21r73r01            866 	ld	hl,#(_alphabet + 0x006b)
   0742 36 82               867 	ld	(hl),#0x82
   0744 21r74r01            868 	ld	hl,#(_alphabet + 0x006c)
   0747 36 7C               869 	ld	(hl),#0x7C
   0749 21r75r01            870 	ld	hl,#(_alphabet + 0x006d)
   074C 36 7C               871 	ld	(hl),#0x7C
   074E 01r76r01            872 	ld	bc,#_alphabet + 110
   0751 AF                  873 	xor	a, a
   0752 02                  874 	ld	(bc),a
   0753 01r77r01            875 	ld	bc,#_alphabet + 111
   0756 AF                  876 	xor	a, a
   0757 02                  877 	ld	(bc),a
   0758 21r78r01            878 	ld	hl,#(_alphabet + 0x0070)
   075B 36 7E               879 	ld	(hl),#0x7E
   075D 21r79r01            880 	ld	hl,#(_alphabet + 0x0071)
   0760 36 7E               881 	ld	(hl),#0x7E
   0762 21r7Ar01            882 	ld	hl,#(_alphabet + 0x0072)
   0765 36 82               883 	ld	(hl),#0x82
   0767 21r7Br01            884 	ld	hl,#(_alphabet + 0x0073)
   076A 36 82               885 	ld	(hl),#0x82
   076C 21r7Cr01            886 	ld	hl,#(_alphabet + 0x0074)
   076F 36 02               887 	ld	(hl),#0x02
   0771 21r7Dr01            888 	ld	hl,#(_alphabet + 0x0075)
   0774 36 02               889 	ld	(hl),#0x02
   0776 21r7Er01            890 	ld	hl,#(_alphabet + 0x0076)
   0779 36 04               891 	ld	(hl),#0x04
   077B 21r7Fr01            892 	ld	hl,#(_alphabet + 0x0077)
   077E 36 04               893 	ld	(hl),#0x04
   0780 21r80r01            894 	ld	hl,#(_alphabet + 0x0078)
   0783 36 04               895 	ld	(hl),#0x04
   0785 21r81r01            896 	ld	hl,#(_alphabet + 0x0079)
   0788 36 04               897 	ld	(hl),#0x04
   078A 21r82r01            898 	ld	hl,#(_alphabet + 0x007a)
   078D 36 08               899 	ld	(hl),#0x08
   078F 21r83r01            900 	ld	hl,#(_alphabet + 0x007b)
   0792 36 08               901 	ld	(hl),#0x08
   0794 21r84r01            902 	ld	hl,#(_alphabet + 0x007c)
   0797 36 08               903 	ld	(hl),#0x08
   0799 21r85r01            904 	ld	hl,#(_alphabet + 0x007d)
   079C 36 08               905 	ld	(hl),#0x08
   079E 01r86r01            906 	ld	bc,#_alphabet + 126
   07A1 AF                  907 	xor	a, a
   07A2 02                  908 	ld	(bc),a
   07A3 01r87r01            909 	ld	bc,#_alphabet + 127
   07A6 AF                  910 	xor	a, a
   07A7 02                  911 	ld	(bc),a
   07A8 21r88r01            912 	ld	hl,#(_alphabet + 0x0080)
   07AB 36 7C               913 	ld	(hl),#0x7C
   07AD 21r89r01            914 	ld	hl,#(_alphabet + 0x0081)
   07B0 36 7C               915 	ld	(hl),#0x7C
   07B2 21r8Ar01            916 	ld	hl,#(_alphabet + 0x0082)
   07B5 36 82               917 	ld	(hl),#0x82
   07B7 21r8Br01            918 	ld	hl,#(_alphabet + 0x0083)
   07BA 36 82               919 	ld	(hl),#0x82
   07BC 21r8Cr01            920 	ld	hl,#(_alphabet + 0x0084)
   07BF 36 82               921 	ld	(hl),#0x82
   07C1 21r8Dr01            922 	ld	hl,#(_alphabet + 0x0085)
   07C4 36 82               923 	ld	(hl),#0x82
   07C6 21r8Er01            924 	ld	hl,#(_alphabet + 0x0086)
   07C9 36 7C               925 	ld	(hl),#0x7C
   07CB 21r8Fr01            926 	ld	hl,#(_alphabet + 0x0087)
   07CE 36 7C               927 	ld	(hl),#0x7C
   07D0 21r90r01            928 	ld	hl,#(_alphabet + 0x0088)
   07D3 36 82               929 	ld	(hl),#0x82
   07D5 21r91r01            930 	ld	hl,#(_alphabet + 0x0089)
   07D8 36 82               931 	ld	(hl),#0x82
   07DA 21r92r01            932 	ld	hl,#(_alphabet + 0x008a)
   07DD 36 82               933 	ld	(hl),#0x82
   07DF 21r93r01            934 	ld	hl,#(_alphabet + 0x008b)
   07E2 36 82               935 	ld	(hl),#0x82
   07E4 21r94r01            936 	ld	hl,#(_alphabet + 0x008c)
   07E7 36 7C               937 	ld	(hl),#0x7C
   07E9 21r95r01            938 	ld	hl,#(_alphabet + 0x008d)
   07EC 36 7C               939 	ld	(hl),#0x7C
   07EE 01r96r01            940 	ld	bc,#_alphabet + 142
   07F1 AF                  941 	xor	a, a
   07F2 02                  942 	ld	(bc),a
   07F3 01r97r01            943 	ld	bc,#_alphabet + 143
   07F6 AF                  944 	xor	a, a
   07F7 02                  945 	ld	(bc),a
   07F8 21r98r01            946 	ld	hl,#(_alphabet + 0x0090)
   07FB 36 7C               947 	ld	(hl),#0x7C
   07FD 21r99r01            948 	ld	hl,#(_alphabet + 0x0091)
   0800 36 7C               949 	ld	(hl),#0x7C
   0802 21r9Ar01            950 	ld	hl,#(_alphabet + 0x0092)
   0805 36 82               951 	ld	(hl),#0x82
   0807 21r9Br01            952 	ld	hl,#(_alphabet + 0x0093)
   080A 36 82               953 	ld	(hl),#0x82
   080C 21r9Cr01            954 	ld	hl,#(_alphabet + 0x0094)
   080F 36 82               955 	ld	(hl),#0x82
   0811 21r9Dr01            956 	ld	hl,#(_alphabet + 0x0095)
   0814 36 82               957 	ld	(hl),#0x82
   0816 21r9Er01            958 	ld	hl,#(_alphabet + 0x0096)
   0819 36 7E               959 	ld	(hl),#0x7E
   081B 21r9Fr01            960 	ld	hl,#(_alphabet + 0x0097)
   081E 36 7E               961 	ld	(hl),#0x7E
   0820 21rA0r01            962 	ld	hl,#(_alphabet + 0x0098)
   0823 36 02               963 	ld	(hl),#0x02
   0825 21rA1r01            964 	ld	hl,#(_alphabet + 0x0099)
   0828 36 02               965 	ld	(hl),#0x02
   082A 21rA2r01            966 	ld	hl,#(_alphabet + 0x009a)
   082D 36 82               967 	ld	(hl),#0x82
   082F 21rA3r01            968 	ld	hl,#(_alphabet + 0x009b)
   0832 36 82               969 	ld	(hl),#0x82
   0834 21rA4r01            970 	ld	hl,#(_alphabet + 0x009c)
   0837 36 7C               971 	ld	(hl),#0x7C
   0839 21rA5r01            972 	ld	hl,#(_alphabet + 0x009d)
   083C 36 7C               973 	ld	(hl),#0x7C
   083E 01rA6r01            974 	ld	bc,#_alphabet + 158
   0841 AF                  975 	xor	a, a
   0842 02                  976 	ld	(bc),a
   0843 01rA7r01            977 	ld	bc,#_alphabet + 159
   0846 AF                  978 	xor	a, a
   0847 02                  979 	ld	(bc),a
   0848 21rA8r01            980 	ld	hl,#(_alphabet + 0x00a0)
   084B 36 10               981 	ld	(hl),#0x10
   084D 21rA9r01            982 	ld	hl,#(_alphabet + 0x00a1)
   0850 36 10               983 	ld	(hl),#0x10
   0852 21rAAr01            984 	ld	hl,#(_alphabet + 0x00a2)
   0855 36 28               985 	ld	(hl),#0x28
   0857 21rABr01            986 	ld	hl,#(_alphabet + 0x00a3)
   085A 36 28               987 	ld	(hl),#0x28
   085C 21rACr01            988 	ld	hl,#(_alphabet + 0x00a4)
   085F 36 28               989 	ld	(hl),#0x28
   0861 21rADr01            990 	ld	hl,#(_alphabet + 0x00a5)
   0864 36 28               991 	ld	(hl),#0x28
   0866 21rAEr01            992 	ld	hl,#(_alphabet + 0x00a6)
   0869 36 44               993 	ld	(hl),#0x44
   086B 21rAFr01            994 	ld	hl,#(_alphabet + 0x00a7)
   086E 36 44               995 	ld	(hl),#0x44
   0870 21rB0r01            996 	ld	hl,#(_alphabet + 0x00a8)
   0873 36 7C               997 	ld	(hl),#0x7C
   0875 21rB1r01            998 	ld	hl,#(_alphabet + 0x00a9)
   0878 36 7C               999 	ld	(hl),#0x7C
   087A 21rB2r01           1000 	ld	hl,#(_alphabet + 0x00aa)
   087D 36 82              1001 	ld	(hl),#0x82
   087F 21rB3r01           1002 	ld	hl,#(_alphabet + 0x00ab)
   0882 36 82              1003 	ld	(hl),#0x82
   0884 21rB4r01           1004 	ld	hl,#(_alphabet + 0x00ac)
   0887 36 82              1005 	ld	(hl),#0x82
   0889 21rB5r01           1006 	ld	hl,#(_alphabet + 0x00ad)
   088C 36 82              1007 	ld	(hl),#0x82
   088E 01rB6r01           1008 	ld	bc,#_alphabet + 174
   0891 AF                 1009 	xor	a, a
   0892 02                 1010 	ld	(bc),a
   0893 01rB7r01           1011 	ld	bc,#_alphabet + 175
   0896 AF                 1012 	xor	a, a
   0897 02                 1013 	ld	(bc),a
   0898 21rB8r01           1014 	ld	hl,#(_alphabet + 0x00b0)
   089B 36 F8              1015 	ld	(hl),#0xF8
   089D 21rB9r01           1016 	ld	hl,#(_alphabet + 0x00b1)
   08A0 36 F8              1017 	ld	(hl),#0xF8
   08A2 21rBAr01           1018 	ld	hl,#(_alphabet + 0x00b2)
   08A5 36 84              1019 	ld	(hl),#0x84
   08A7 21rBBr01           1020 	ld	hl,#(_alphabet + 0x00b3)
   08AA 36 84              1021 	ld	(hl),#0x84
   08AC 21rBCr01           1022 	ld	hl,#(_alphabet + 0x00b4)
   08AF 36 84              1023 	ld	(hl),#0x84
   08B1 21rBDr01           1024 	ld	hl,#(_alphabet + 0x00b5)
   08B4 36 84              1025 	ld	(hl),#0x84
   08B6 21rBEr01           1026 	ld	hl,#(_alphabet + 0x00b6)
   08B9 36 FC              1027 	ld	(hl),#0xFC
   08BB 21rBFr01           1028 	ld	hl,#(_alphabet + 0x00b7)
   08BE 36 FC              1029 	ld	(hl),#0xFC
   08C0 21rC0r01           1030 	ld	hl,#(_alphabet + 0x00b8)
   08C3 36 82              1031 	ld	(hl),#0x82
   08C5 21rC1r01           1032 	ld	hl,#(_alphabet + 0x00b9)
   08C8 36 82              1033 	ld	(hl),#0x82
   08CA 21rC2r01           1034 	ld	hl,#(_alphabet + 0x00ba)
   08CD 36 82              1035 	ld	(hl),#0x82
   08CF 21rC3r01           1036 	ld	hl,#(_alphabet + 0x00bb)
   08D2 36 82              1037 	ld	(hl),#0x82
   08D4 21rC4r01           1038 	ld	hl,#(_alphabet + 0x00bc)
   08D7 36 FC              1039 	ld	(hl),#0xFC
   08D9 21rC5r01           1040 	ld	hl,#(_alphabet + 0x00bd)
   08DC 36 FC              1041 	ld	(hl),#0xFC
   08DE 01rC6r01           1042 	ld	bc,#_alphabet + 190
   08E1 AF                 1043 	xor	a, a
   08E2 02                 1044 	ld	(bc),a
   08E3 01rC7r01           1045 	ld	bc,#_alphabet + 191
   08E6 AF                 1046 	xor	a, a
   08E7 02                 1047 	ld	(bc),a
   08E8 21rC8r01           1048 	ld	hl,#(_alphabet + 0x00c0)
   08EB 36 3C              1049 	ld	(hl),#0x3C
   08ED 21rC9r01           1050 	ld	hl,#(_alphabet + 0x00c1)
   08F0 36 3C              1051 	ld	(hl),#0x3C
   08F2 21rCAr01           1052 	ld	hl,#(_alphabet + 0x00c2)
   08F5 36 42              1053 	ld	(hl),#0x42
   08F7 21rCBr01           1054 	ld	hl,#(_alphabet + 0x00c3)
   08FA 36 42              1055 	ld	(hl),#0x42
   08FC 21rCCr01           1056 	ld	hl,#(_alphabet + 0x00c4)
   08FF 36 80              1057 	ld	(hl),#0x80
   0901 21rCDr01           1058 	ld	hl,#(_alphabet + 0x00c5)
   0904 36 80              1059 	ld	(hl),#0x80
   0906 21rCEr01           1060 	ld	hl,#(_alphabet + 0x00c6)
   0909 36 80              1061 	ld	(hl),#0x80
   090B 21rCFr01           1062 	ld	hl,#(_alphabet + 0x00c7)
   090E 36 80              1063 	ld	(hl),#0x80
   0910 21rD0r01           1064 	ld	hl,#(_alphabet + 0x00c8)
   0913 36 80              1065 	ld	(hl),#0x80
   0915 21rD1r01           1066 	ld	hl,#(_alphabet + 0x00c9)
   0918 36 80              1067 	ld	(hl),#0x80
   091A 21rD2r01           1068 	ld	hl,#(_alphabet + 0x00ca)
   091D 36 42              1069 	ld	(hl),#0x42
   091F 21rD3r01           1070 	ld	hl,#(_alphabet + 0x00cb)
   0922 36 42              1071 	ld	(hl),#0x42
   0924 21rD4r01           1072 	ld	hl,#(_alphabet + 0x00cc)
   0927 36 3C              1073 	ld	(hl),#0x3C
   0929 21rD5r01           1074 	ld	hl,#(_alphabet + 0x00cd)
   092C 36 3C              1075 	ld	(hl),#0x3C
   092E 01rD6r01           1076 	ld	bc,#_alphabet + 206
   0931 AF                 1077 	xor	a, a
   0932 02                 1078 	ld	(bc),a
   0933 01rD7r01           1079 	ld	bc,#_alphabet + 207
   0936 AF                 1080 	xor	a, a
   0937 02                 1081 	ld	(bc),a
   0938 21rD8r01           1082 	ld	hl,#(_alphabet + 0x00d0)
   093B 36 F8              1083 	ld	(hl),#0xF8
   093D 21rD9r01           1084 	ld	hl,#(_alphabet + 0x00d1)
   0940 36 F8              1085 	ld	(hl),#0xF8
   0942 21rDAr01           1086 	ld	hl,#(_alphabet + 0x00d2)
   0945 36 84              1087 	ld	(hl),#0x84
   0947 21rDBr01           1088 	ld	hl,#(_alphabet + 0x00d3)
   094A 36 84              1089 	ld	(hl),#0x84
   094C 21rDCr01           1090 	ld	hl,#(_alphabet + 0x00d4)
   094F 36 82              1091 	ld	(hl),#0x82
   0951 21rDDr01           1092 	ld	hl,#(_alphabet + 0x00d5)
   0954 36 82              1093 	ld	(hl),#0x82
   0956 21rDEr01           1094 	ld	hl,#(_alphabet + 0x00d6)
   0959 36 82              1095 	ld	(hl),#0x82
   095B 21rDFr01           1096 	ld	hl,#(_alphabet + 0x00d7)
   095E 36 82              1097 	ld	(hl),#0x82
   0960 21rE0r01           1098 	ld	hl,#(_alphabet + 0x00d8)
   0963 36 82              1099 	ld	(hl),#0x82
   0965 21rE1r01           1100 	ld	hl,#(_alphabet + 0x00d9)
   0968 36 82              1101 	ld	(hl),#0x82
   096A 21rE2r01           1102 	ld	hl,#(_alphabet + 0x00da)
   096D 36 84              1103 	ld	(hl),#0x84
   096F 21rE3r01           1104 	ld	hl,#(_alphabet + 0x00db)
   0972 36 84              1105 	ld	(hl),#0x84
   0974 21rE4r01           1106 	ld	hl,#(_alphabet + 0x00dc)
   0977 36 F8              1107 	ld	(hl),#0xF8
   0979 21rE5r01           1108 	ld	hl,#(_alphabet + 0x00dd)
   097C 36 F8              1109 	ld	(hl),#0xF8
   097E 01rE6r01           1110 	ld	bc,#_alphabet + 222
   0981 AF                 1111 	xor	a, a
   0982 02                 1112 	ld	(bc),a
   0983 01rE7r01           1113 	ld	bc,#_alphabet + 223
   0986 AF                 1114 	xor	a, a
   0987 02                 1115 	ld	(bc),a
   0988 21rE8r01           1116 	ld	hl,#(_alphabet + 0x00e0)
   098B 36 FE              1117 	ld	(hl),#0xFE
   098D 21rE9r01           1118 	ld	hl,#(_alphabet + 0x00e1)
   0990 36 FE              1119 	ld	(hl),#0xFE
   0992 21rEAr01           1120 	ld	hl,#(_alphabet + 0x00e2)
   0995 36 80              1121 	ld	(hl),#0x80
   0997 21rEBr01           1122 	ld	hl,#(_alphabet + 0x00e3)
   099A 36 80              1123 	ld	(hl),#0x80
   099C 21rECr01           1124 	ld	hl,#(_alphabet + 0x00e4)
   099F 36 80              1125 	ld	(hl),#0x80
   09A1 21rEDr01           1126 	ld	hl,#(_alphabet + 0x00e5)
   09A4 36 80              1127 	ld	(hl),#0x80
   09A6 21rEEr01           1128 	ld	hl,#(_alphabet + 0x00e6)
   09A9 36 FC              1129 	ld	(hl),#0xFC
   09AB 21rEFr01           1130 	ld	hl,#(_alphabet + 0x00e7)
   09AE 36 FC              1131 	ld	(hl),#0xFC
   09B0 21rF0r01           1132 	ld	hl,#(_alphabet + 0x00e8)
   09B3 36 80              1133 	ld	(hl),#0x80
   09B5 21rF1r01           1134 	ld	hl,#(_alphabet + 0x00e9)
   09B8 36 80              1135 	ld	(hl),#0x80
   09BA 21rF2r01           1136 	ld	hl,#(_alphabet + 0x00ea)
   09BD 36 80              1137 	ld	(hl),#0x80
   09BF 21rF3r01           1138 	ld	hl,#(_alphabet + 0x00eb)
   09C2 36 80              1139 	ld	(hl),#0x80
   09C4 21rF4r01           1140 	ld	hl,#(_alphabet + 0x00ec)
   09C7 36 FE              1141 	ld	(hl),#0xFE
   09C9 21rF5r01           1142 	ld	hl,#(_alphabet + 0x00ed)
   09CC 36 FE              1143 	ld	(hl),#0xFE
   09CE 01rF6r01           1144 	ld	bc,#_alphabet + 238
   09D1 AF                 1145 	xor	a, a
   09D2 02                 1146 	ld	(bc),a
   09D3 01rF7r01           1147 	ld	bc,#_alphabet + 239
   09D6 AF                 1148 	xor	a, a
   09D7 02                 1149 	ld	(bc),a
   09D8 21rF8r01           1150 	ld	hl,#(_alphabet + 0x00f0)
   09DB 36 FE              1151 	ld	(hl),#0xFE
   09DD 21rF9r01           1152 	ld	hl,#(_alphabet + 0x00f1)
   09E0 36 FE              1153 	ld	(hl),#0xFE
   09E2 21rFAr01           1154 	ld	hl,#(_alphabet + 0x00f2)
   09E5 36 80              1155 	ld	(hl),#0x80
   09E7 21rFBr01           1156 	ld	hl,#(_alphabet + 0x00f3)
   09EA 36 80              1157 	ld	(hl),#0x80
   09EC 21rFCr01           1158 	ld	hl,#(_alphabet + 0x00f4)
   09EF 36 80              1159 	ld	(hl),#0x80
   09F1 21rFDr01           1160 	ld	hl,#(_alphabet + 0x00f5)
   09F4 36 80              1161 	ld	(hl),#0x80
   09F6 21rFEr01           1162 	ld	hl,#(_alphabet + 0x00f6)
   09F9 36 FC              1163 	ld	(hl),#0xFC
   09FB 21rFFr01           1164 	ld	hl,#(_alphabet + 0x00f7)
   09FE 36 FC              1165 	ld	(hl),#0xFC
   0A00 21r00r02           1166 	ld	hl,#(_alphabet + 0x00f8)
   0A03 36 80              1167 	ld	(hl),#0x80
   0A05 21r01r02           1168 	ld	hl,#(_alphabet + 0x00f9)
   0A08 36 80              1169 	ld	(hl),#0x80
   0A0A 21r02r02           1170 	ld	hl,#(_alphabet + 0x00fa)
   0A0D 36 80              1171 	ld	(hl),#0x80
   0A0F 21r03r02           1172 	ld	hl,#(_alphabet + 0x00fb)
   0A12 36 80              1173 	ld	(hl),#0x80
   0A14 21r04r02           1174 	ld	hl,#(_alphabet + 0x00fc)
   0A17 36 80              1175 	ld	(hl),#0x80
   0A19 21r05r02           1176 	ld	hl,#(_alphabet + 0x00fd)
   0A1C 36 80              1177 	ld	(hl),#0x80
   0A1E 01r06r02           1178 	ld	bc,#_alphabet + 254
   0A21 AF                 1179 	xor	a, a
   0A22 02                 1180 	ld	(bc),a
   0A23 01r07r02           1181 	ld	bc,#_alphabet + 255
   0A26 AF                 1182 	xor	a, a
   0A27 02                 1183 	ld	(bc),a
   0A28 21r08r02           1184 	ld	hl,#(_alphabet + 0x0100)
   0A2B 36 3C              1185 	ld	(hl),#0x3C
   0A2D 21r09r02           1186 	ld	hl,#(_alphabet + 0x0101)
   0A30 36 3C              1187 	ld	(hl),#0x3C
   0A32 21r0Ar02           1188 	ld	hl,#(_alphabet + 0x0102)
   0A35 36 42              1189 	ld	(hl),#0x42
   0A37 21r0Br02           1190 	ld	hl,#(_alphabet + 0x0103)
   0A3A 36 42              1191 	ld	(hl),#0x42
   0A3C 21r0Cr02           1192 	ld	hl,#(_alphabet + 0x0104)
   0A3F 36 80              1193 	ld	(hl),#0x80
   0A41 21r0Dr02           1194 	ld	hl,#(_alphabet + 0x0105)
   0A44 36 80              1195 	ld	(hl),#0x80
   0A46 21r0Er02           1196 	ld	hl,#(_alphabet + 0x0106)
   0A49 36 9E              1197 	ld	(hl),#0x9E
   0A4B 21r0Fr02           1198 	ld	hl,#(_alphabet + 0x0107)
   0A4E 36 9E              1199 	ld	(hl),#0x9E
   0A50 21r10r02           1200 	ld	hl,#(_alphabet + 0x0108)
   0A53 36 82              1201 	ld	(hl),#0x82
   0A55 21r11r02           1202 	ld	hl,#(_alphabet + 0x0109)
   0A58 36 82              1203 	ld	(hl),#0x82
   0A5A 21r12r02           1204 	ld	hl,#(_alphabet + 0x010a)
   0A5D 36 42              1205 	ld	(hl),#0x42
   0A5F 21r13r02           1206 	ld	hl,#(_alphabet + 0x010b)
   0A62 36 42              1207 	ld	(hl),#0x42
   0A64 21r14r02           1208 	ld	hl,#(_alphabet + 0x010c)
   0A67 36 3C              1209 	ld	(hl),#0x3C
   0A69 21r15r02           1210 	ld	hl,#(_alphabet + 0x010d)
   0A6C 36 3C              1211 	ld	(hl),#0x3C
   0A6E 01r16r02           1212 	ld	bc,#_alphabet + 270
   0A71 AF                 1213 	xor	a, a
   0A72 02                 1214 	ld	(bc),a
   0A73 01r17r02           1215 	ld	bc,#_alphabet + 271
   0A76 AF                 1216 	xor	a, a
   0A77 02                 1217 	ld	(bc),a
   0A78 21r18r02           1218 	ld	hl,#(_alphabet + 0x0110)
   0A7B 36 82              1219 	ld	(hl),#0x82
   0A7D 21r19r02           1220 	ld	hl,#(_alphabet + 0x0111)
   0A80 36 82              1221 	ld	(hl),#0x82
   0A82 21r1Ar02           1222 	ld	hl,#(_alphabet + 0x0112)
   0A85 36 82              1223 	ld	(hl),#0x82
   0A87 21r1Br02           1224 	ld	hl,#(_alphabet + 0x0113)
   0A8A 36 82              1225 	ld	(hl),#0x82
   0A8C 21r1Cr02           1226 	ld	hl,#(_alphabet + 0x0114)
   0A8F 36 82              1227 	ld	(hl),#0x82
   0A91 21r1Dr02           1228 	ld	hl,#(_alphabet + 0x0115)
   0A94 36 82              1229 	ld	(hl),#0x82
   0A96 21r1Er02           1230 	ld	hl,#(_alphabet + 0x0116)
   0A99 36 FE              1231 	ld	(hl),#0xFE
   0A9B 21r1Fr02           1232 	ld	hl,#(_alphabet + 0x0117)
   0A9E 36 FE              1233 	ld	(hl),#0xFE
   0AA0 21r20r02           1234 	ld	hl,#(_alphabet + 0x0118)
   0AA3 36 82              1235 	ld	(hl),#0x82
   0AA5 21r21r02           1236 	ld	hl,#(_alphabet + 0x0119)
   0AA8 36 82              1237 	ld	(hl),#0x82
   0AAA 21r22r02           1238 	ld	hl,#(_alphabet + 0x011a)
   0AAD 36 82              1239 	ld	(hl),#0x82
   0AAF 21r23r02           1240 	ld	hl,#(_alphabet + 0x011b)
   0AB2 36 82              1241 	ld	(hl),#0x82
   0AB4 21r24r02           1242 	ld	hl,#(_alphabet + 0x011c)
   0AB7 36 82              1243 	ld	(hl),#0x82
   0AB9 21r25r02           1244 	ld	hl,#(_alphabet + 0x011d)
   0ABC 36 82              1245 	ld	(hl),#0x82
   0ABE 01r26r02           1246 	ld	bc,#_alphabet + 286
   0AC1 AF                 1247 	xor	a, a
   0AC2 02                 1248 	ld	(bc),a
   0AC3 01r27r02           1249 	ld	bc,#_alphabet + 287
   0AC6 AF                 1250 	xor	a, a
   0AC7 02                 1251 	ld	(bc),a
   0AC8 21r28r02           1252 	ld	hl,#(_alphabet + 0x0120)
   0ACB 36 7C              1253 	ld	(hl),#0x7C
   0ACD 21r29r02           1254 	ld	hl,#(_alphabet + 0x0121)
   0AD0 36 7C              1255 	ld	(hl),#0x7C
   0AD2 21r2Ar02           1256 	ld	hl,#(_alphabet + 0x0122)
   0AD5 36 10              1257 	ld	(hl),#0x10
   0AD7 21r2Br02           1258 	ld	hl,#(_alphabet + 0x0123)
   0ADA 36 10              1259 	ld	(hl),#0x10
   0ADC 21r2Cr02           1260 	ld	hl,#(_alphabet + 0x0124)
   0ADF 36 10              1261 	ld	(hl),#0x10
   0AE1 21r2Dr02           1262 	ld	hl,#(_alphabet + 0x0125)
   0AE4 36 10              1263 	ld	(hl),#0x10
   0AE6 21r2Er02           1264 	ld	hl,#(_alphabet + 0x0126)
   0AE9 36 10              1265 	ld	(hl),#0x10
   0AEB 21r2Fr02           1266 	ld	hl,#(_alphabet + 0x0127)
   0AEE 36 10              1267 	ld	(hl),#0x10
   0AF0 21r30r02           1268 	ld	hl,#(_alphabet + 0x0128)
   0AF3 36 10              1269 	ld	(hl),#0x10
   0AF5 21r31r02           1270 	ld	hl,#(_alphabet + 0x0129)
   0AF8 36 10              1271 	ld	(hl),#0x10
   0AFA 21r32r02           1272 	ld	hl,#(_alphabet + 0x012a)
   0AFD 36 10              1273 	ld	(hl),#0x10
   0AFF 21r33r02           1274 	ld	hl,#(_alphabet + 0x012b)
   0B02 36 10              1275 	ld	(hl),#0x10
   0B04 21r34r02           1276 	ld	hl,#(_alphabet + 0x012c)
   0B07 36 7C              1277 	ld	(hl),#0x7C
   0B09 21r35r02           1278 	ld	hl,#(_alphabet + 0x012d)
   0B0C 36 7C              1279 	ld	(hl),#0x7C
   0B0E 01r36r02           1280 	ld	bc,#_alphabet + 302
   0B11 AF                 1281 	xor	a, a
   0B12 02                 1282 	ld	(bc),a
   0B13 01r37r02           1283 	ld	bc,#_alphabet + 303
   0B16 AF                 1284 	xor	a, a
   0B17 02                 1285 	ld	(bc),a
   0B18 21r38r02           1286 	ld	hl,#(_alphabet + 0x0130)
   0B1B 36 7E              1287 	ld	(hl),#0x7E
   0B1D 21r39r02           1288 	ld	hl,#(_alphabet + 0x0131)
   0B20 36 7E              1289 	ld	(hl),#0x7E
   0B22 21r3Ar02           1290 	ld	hl,#(_alphabet + 0x0132)
   0B25 36 08              1291 	ld	(hl),#0x08
   0B27 21r3Br02           1292 	ld	hl,#(_alphabet + 0x0133)
   0B2A 36 08              1293 	ld	(hl),#0x08
   0B2C 21r3Cr02           1294 	ld	hl,#(_alphabet + 0x0134)
   0B2F 36 08              1295 	ld	(hl),#0x08
   0B31 21r3Dr02           1296 	ld	hl,#(_alphabet + 0x0135)
   0B34 36 08              1297 	ld	(hl),#0x08
   0B36 21r3Er02           1298 	ld	hl,#(_alphabet + 0x0136)
   0B39 36 08              1299 	ld	(hl),#0x08
   0B3B 21r3Fr02           1300 	ld	hl,#(_alphabet + 0x0137)
   0B3E 36 08              1301 	ld	(hl),#0x08
   0B40 21r40r02           1302 	ld	hl,#(_alphabet + 0x0138)
   0B43 36 88              1303 	ld	(hl),#0x88
   0B45 21r41r02           1304 	ld	hl,#(_alphabet + 0x0139)
   0B48 36 88              1305 	ld	(hl),#0x88
   0B4A 21r42r02           1306 	ld	hl,#(_alphabet + 0x013a)
   0B4D 36 88              1307 	ld	(hl),#0x88
   0B4F 21r43r02           1308 	ld	hl,#(_alphabet + 0x013b)
   0B52 36 88              1309 	ld	(hl),#0x88
   0B54 21r44r02           1310 	ld	hl,#(_alphabet + 0x013c)
   0B57 36 70              1311 	ld	(hl),#0x70
   0B59 21r45r02           1312 	ld	hl,#(_alphabet + 0x013d)
   0B5C 36 70              1313 	ld	(hl),#0x70
   0B5E 01r46r02           1314 	ld	bc,#_alphabet + 318
   0B61 AF                 1315 	xor	a, a
   0B62 02                 1316 	ld	(bc),a
   0B63 01r47r02           1317 	ld	bc,#_alphabet + 319
   0B66 AF                 1318 	xor	a, a
   0B67 02                 1319 	ld	(bc),a
   0B68 21r48r02           1320 	ld	hl,#(_alphabet + 0x0140)
   0B6B 36 84              1321 	ld	(hl),#0x84
   0B6D 21r49r02           1322 	ld	hl,#(_alphabet + 0x0141)
   0B70 36 84              1323 	ld	(hl),#0x84
   0B72 21r4Ar02           1324 	ld	hl,#(_alphabet + 0x0142)
   0B75 36 88              1325 	ld	(hl),#0x88
   0B77 21r4Br02           1326 	ld	hl,#(_alphabet + 0x0143)
   0B7A 36 88              1327 	ld	(hl),#0x88
   0B7C 21r4Cr02           1328 	ld	hl,#(_alphabet + 0x0144)
   0B7F 36 90              1329 	ld	(hl),#0x90
   0B81 21r4Dr02           1330 	ld	hl,#(_alphabet + 0x0145)
   0B84 36 90              1331 	ld	(hl),#0x90
   0B86 21r4Er02           1332 	ld	hl,#(_alphabet + 0x0146)
   0B89 36 B0              1333 	ld	(hl),#0xB0
   0B8B 21r4Fr02           1334 	ld	hl,#(_alphabet + 0x0147)
   0B8E 36 B0              1335 	ld	(hl),#0xB0
   0B90 21r50r02           1336 	ld	hl,#(_alphabet + 0x0148)
   0B93 36 C8              1337 	ld	(hl),#0xC8
   0B95 21r51r02           1338 	ld	hl,#(_alphabet + 0x0149)
   0B98 36 C8              1339 	ld	(hl),#0xC8
   0B9A 21r52r02           1340 	ld	hl,#(_alphabet + 0x014a)
   0B9D 36 84              1341 	ld	(hl),#0x84
   0B9F 21r53r02           1342 	ld	hl,#(_alphabet + 0x014b)
   0BA2 36 84              1343 	ld	(hl),#0x84
   0BA4 21r54r02           1344 	ld	hl,#(_alphabet + 0x014c)
   0BA7 36 82              1345 	ld	(hl),#0x82
   0BA9 21r55r02           1346 	ld	hl,#(_alphabet + 0x014d)
   0BAC 36 82              1347 	ld	(hl),#0x82
   0BAE 01r56r02           1348 	ld	bc,#_alphabet + 334
   0BB1 AF                 1349 	xor	a, a
   0BB2 02                 1350 	ld	(bc),a
   0BB3 01r57r02           1351 	ld	bc,#_alphabet + 335
   0BB6 AF                 1352 	xor	a, a
   0BB7 02                 1353 	ld	(bc),a
   0BB8 21r58r02           1354 	ld	hl,#(_alphabet + 0x0150)
   0BBB 36 80              1355 	ld	(hl),#0x80
   0BBD 21r59r02           1356 	ld	hl,#(_alphabet + 0x0151)
   0BC0 36 80              1357 	ld	(hl),#0x80
   0BC2 21r5Ar02           1358 	ld	hl,#(_alphabet + 0x0152)
   0BC5 36 80              1359 	ld	(hl),#0x80
   0BC7 21r5Br02           1360 	ld	hl,#(_alphabet + 0x0153)
   0BCA 36 80              1361 	ld	(hl),#0x80
   0BCC 21r5Cr02           1362 	ld	hl,#(_alphabet + 0x0154)
   0BCF 36 80              1363 	ld	(hl),#0x80
   0BD1 21r5Dr02           1364 	ld	hl,#(_alphabet + 0x0155)
   0BD4 36 80              1365 	ld	(hl),#0x80
   0BD6 21r5Er02           1366 	ld	hl,#(_alphabet + 0x0156)
   0BD9 36 80              1367 	ld	(hl),#0x80
   0BDB 21r5Fr02           1368 	ld	hl,#(_alphabet + 0x0157)
   0BDE 36 80              1369 	ld	(hl),#0x80
   0BE0 21r60r02           1370 	ld	hl,#(_alphabet + 0x0158)
   0BE3 36 80              1371 	ld	(hl),#0x80
   0BE5 21r61r02           1372 	ld	hl,#(_alphabet + 0x0159)
   0BE8 36 80              1373 	ld	(hl),#0x80
   0BEA 21r62r02           1374 	ld	hl,#(_alphabet + 0x015a)
   0BED 36 80              1375 	ld	(hl),#0x80
   0BEF 21r63r02           1376 	ld	hl,#(_alphabet + 0x015b)
   0BF2 36 80              1377 	ld	(hl),#0x80
   0BF4 21r64r02           1378 	ld	hl,#(_alphabet + 0x015c)
   0BF7 36 FE              1379 	ld	(hl),#0xFE
   0BF9 21r65r02           1380 	ld	hl,#(_alphabet + 0x015d)
   0BFC 36 FE              1381 	ld	(hl),#0xFE
   0BFE 01r66r02           1382 	ld	bc,#_alphabet + 350
   0C01 AF                 1383 	xor	a, a
   0C02 02                 1384 	ld	(bc),a
   0C03 01r67r02           1385 	ld	bc,#_alphabet + 351
   0C06 AF                 1386 	xor	a, a
   0C07 02                 1387 	ld	(bc),a
   0C08 21r68r02           1388 	ld	hl,#(_alphabet + 0x0160)
   0C0B 36 82              1389 	ld	(hl),#0x82
   0C0D 21r69r02           1390 	ld	hl,#(_alphabet + 0x0161)
   0C10 36 82              1391 	ld	(hl),#0x82
   0C12 21r6Ar02           1392 	ld	hl,#(_alphabet + 0x0162)
   0C15 36 C6              1393 	ld	(hl),#0xC6
   0C17 21r6Br02           1394 	ld	hl,#(_alphabet + 0x0163)
   0C1A 36 C6              1395 	ld	(hl),#0xC6
   0C1C 21r6Cr02           1396 	ld	hl,#(_alphabet + 0x0164)
   0C1F 36 AA              1397 	ld	(hl),#0xAA
   0C21 21r6Dr02           1398 	ld	hl,#(_alphabet + 0x0165)
   0C24 36 AA              1399 	ld	(hl),#0xAA
   0C26 21r6Er02           1400 	ld	hl,#(_alphabet + 0x0166)
   0C29 36 92              1401 	ld	(hl),#0x92
   0C2B 21r6Fr02           1402 	ld	hl,#(_alphabet + 0x0167)
   0C2E 36 92              1403 	ld	(hl),#0x92
   0C30 21r70r02           1404 	ld	hl,#(_alphabet + 0x0168)
   0C33 36 82              1405 	ld	(hl),#0x82
   0C35 21r71r02           1406 	ld	hl,#(_alphabet + 0x0169)
   0C38 36 82              1407 	ld	(hl),#0x82
   0C3A 21r72r02           1408 	ld	hl,#(_alphabet + 0x016a)
   0C3D 36 82              1409 	ld	(hl),#0x82
   0C3F 21r73r02           1410 	ld	hl,#(_alphabet + 0x016b)
   0C42 36 82              1411 	ld	(hl),#0x82
   0C44 21r74r02           1412 	ld	hl,#(_alphabet + 0x016c)
   0C47 36 82              1413 	ld	(hl),#0x82
   0C49 21r75r02           1414 	ld	hl,#(_alphabet + 0x016d)
   0C4C 36 82              1415 	ld	(hl),#0x82
   0C4E 01r76r02           1416 	ld	bc,#_alphabet + 366
   0C51 AF                 1417 	xor	a, a
   0C52 02                 1418 	ld	(bc),a
   0C53 01r77r02           1419 	ld	bc,#_alphabet + 367
   0C56 AF                 1420 	xor	a, a
   0C57 02                 1421 	ld	(bc),a
   0C58 21r78r02           1422 	ld	hl,#(_alphabet + 0x0170)
   0C5B 36 82              1423 	ld	(hl),#0x82
   0C5D 21r79r02           1424 	ld	hl,#(_alphabet + 0x0171)
   0C60 36 82              1425 	ld	(hl),#0x82
   0C62 21r7Ar02           1426 	ld	hl,#(_alphabet + 0x0172)
   0C65 36 C2              1427 	ld	(hl),#0xC2
   0C67 21r7Br02           1428 	ld	hl,#(_alphabet + 0x0173)
   0C6A 36 C2              1429 	ld	(hl),#0xC2
   0C6C 21r7Cr02           1430 	ld	hl,#(_alphabet + 0x0174)
   0C6F 36 A2              1431 	ld	(hl),#0xA2
   0C71 21r7Dr02           1432 	ld	hl,#(_alphabet + 0x0175)
   0C74 36 A2              1433 	ld	(hl),#0xA2
   0C76 21r7Er02           1434 	ld	hl,#(_alphabet + 0x0176)
   0C79 36 92              1435 	ld	(hl),#0x92
   0C7B 21r7Fr02           1436 	ld	hl,#(_alphabet + 0x0177)
   0C7E 36 92              1437 	ld	(hl),#0x92
   0C80 21r80r02           1438 	ld	hl,#(_alphabet + 0x0178)
   0C83 36 8A              1439 	ld	(hl),#0x8A
   0C85 21r81r02           1440 	ld	hl,#(_alphabet + 0x0179)
   0C88 36 8A              1441 	ld	(hl),#0x8A
   0C8A 21r82r02           1442 	ld	hl,#(_alphabet + 0x017a)
   0C8D 36 86              1443 	ld	(hl),#0x86
   0C8F 21r83r02           1444 	ld	hl,#(_alphabet + 0x017b)
   0C92 36 86              1445 	ld	(hl),#0x86
   0C94 21r84r02           1446 	ld	hl,#(_alphabet + 0x017c)
   0C97 36 82              1447 	ld	(hl),#0x82
   0C99 21r85r02           1448 	ld	hl,#(_alphabet + 0x017d)
   0C9C 36 82              1449 	ld	(hl),#0x82
   0C9E 01r86r02           1450 	ld	bc,#_alphabet + 382
   0CA1 AF                 1451 	xor	a, a
   0CA2 02                 1452 	ld	(bc),a
   0CA3 01r87r02           1453 	ld	bc,#_alphabet + 383
   0CA6 AF                 1454 	xor	a, a
   0CA7 02                 1455 	ld	(bc),a
   0CA8 21r88r02           1456 	ld	hl,#(_alphabet + 0x0180)
   0CAB 36 38              1457 	ld	(hl),#0x38
   0CAD 21r89r02           1458 	ld	hl,#(_alphabet + 0x0181)
   0CB0 36 38              1459 	ld	(hl),#0x38
   0CB2 21r8Ar02           1460 	ld	hl,#(_alphabet + 0x0182)
   0CB5 36 44              1461 	ld	(hl),#0x44
   0CB7 21r8Br02           1462 	ld	hl,#(_alphabet + 0x0183)
   0CBA 36 44              1463 	ld	(hl),#0x44
   0CBC 21r8Cr02           1464 	ld	hl,#(_alphabet + 0x0184)
   0CBF 36 82              1465 	ld	(hl),#0x82
   0CC1 21r8Dr02           1466 	ld	hl,#(_alphabet + 0x0185)
   0CC4 36 82              1467 	ld	(hl),#0x82
   0CC6 21r8Er02           1468 	ld	hl,#(_alphabet + 0x0186)
   0CC9 36 82              1469 	ld	(hl),#0x82
   0CCB 21r8Fr02           1470 	ld	hl,#(_alphabet + 0x0187)
   0CCE 36 82              1471 	ld	(hl),#0x82
   0CD0 21r90r02           1472 	ld	hl,#(_alphabet + 0x0188)
   0CD3 36 82              1473 	ld	(hl),#0x82
   0CD5 21r91r02           1474 	ld	hl,#(_alphabet + 0x0189)
   0CD8 36 82              1475 	ld	(hl),#0x82
   0CDA 21r92r02           1476 	ld	hl,#(_alphabet + 0x018a)
   0CDD 36 44              1477 	ld	(hl),#0x44
   0CDF 21r93r02           1478 	ld	hl,#(_alphabet + 0x018b)
   0CE2 36 44              1479 	ld	(hl),#0x44
   0CE4 21r94r02           1480 	ld	hl,#(_alphabet + 0x018c)
   0CE7 36 38              1481 	ld	(hl),#0x38
   0CE9 21r95r02           1482 	ld	hl,#(_alphabet + 0x018d)
   0CEC 36 38              1483 	ld	(hl),#0x38
   0CEE 01r96r02           1484 	ld	bc,#_alphabet + 398
   0CF1 AF                 1485 	xor	a, a
   0CF2 02                 1486 	ld	(bc),a
   0CF3 01r97r02           1487 	ld	bc,#_alphabet + 399
   0CF6 AF                 1488 	xor	a, a
   0CF7 02                 1489 	ld	(bc),a
   0CF8 21r98r02           1490 	ld	hl,#(_alphabet + 0x0190)
   0CFB 36 FC              1491 	ld	(hl),#0xFC
   0CFD 21r99r02           1492 	ld	hl,#(_alphabet + 0x0191)
   0D00 36 FC              1493 	ld	(hl),#0xFC
   0D02 21r9Ar02           1494 	ld	hl,#(_alphabet + 0x0192)
   0D05 36 82              1495 	ld	(hl),#0x82
   0D07 21r9Br02           1496 	ld	hl,#(_alphabet + 0x0193)
   0D0A 36 82              1497 	ld	(hl),#0x82
   0D0C 21r9Cr02           1498 	ld	hl,#(_alphabet + 0x0194)
   0D0F 36 82              1499 	ld	(hl),#0x82
   0D11 21r9Dr02           1500 	ld	hl,#(_alphabet + 0x0195)
   0D14 36 82              1501 	ld	(hl),#0x82
   0D16 21r9Er02           1502 	ld	hl,#(_alphabet + 0x0196)
   0D19 36 FC              1503 	ld	(hl),#0xFC
   0D1B 21r9Fr02           1504 	ld	hl,#(_alphabet + 0x0197)
   0D1E 36 FC              1505 	ld	(hl),#0xFC
   0D20 21rA0r02           1506 	ld	hl,#(_alphabet + 0x0198)
   0D23 36 80              1507 	ld	(hl),#0x80
   0D25 21rA1r02           1508 	ld	hl,#(_alphabet + 0x0199)
   0D28 36 80              1509 	ld	(hl),#0x80
   0D2A 21rA2r02           1510 	ld	hl,#(_alphabet + 0x019a)
   0D2D 36 80              1511 	ld	(hl),#0x80
   0D2F 21rA3r02           1512 	ld	hl,#(_alphabet + 0x019b)
   0D32 36 80              1513 	ld	(hl),#0x80
   0D34 21rA4r02           1514 	ld	hl,#(_alphabet + 0x019c)
   0D37 36 80              1515 	ld	(hl),#0x80
   0D39 21rA5r02           1516 	ld	hl,#(_alphabet + 0x019d)
   0D3C 36 80              1517 	ld	(hl),#0x80
   0D3E 01rA6r02           1518 	ld	bc,#_alphabet + 414
   0D41 AF                 1519 	xor	a, a
   0D42 02                 1520 	ld	(bc),a
   0D43 01rA7r02           1521 	ld	bc,#_alphabet + 415
   0D46 AF                 1522 	xor	a, a
   0D47 02                 1523 	ld	(bc),a
   0D48 21rA8r02           1524 	ld	hl,#(_alphabet + 0x01a0)
   0D4B 36 38              1525 	ld	(hl),#0x38
   0D4D 21rA9r02           1526 	ld	hl,#(_alphabet + 0x01a1)
   0D50 36 38              1527 	ld	(hl),#0x38
   0D52 21rAAr02           1528 	ld	hl,#(_alphabet + 0x01a2)
   0D55 36 44              1529 	ld	(hl),#0x44
   0D57 21rABr02           1530 	ld	hl,#(_alphabet + 0x01a3)
   0D5A 36 44              1531 	ld	(hl),#0x44
   0D5C 21rACr02           1532 	ld	hl,#(_alphabet + 0x01a4)
   0D5F 36 82              1533 	ld	(hl),#0x82
   0D61 21rADr02           1534 	ld	hl,#(_alphabet + 0x01a5)
   0D64 36 82              1535 	ld	(hl),#0x82
   0D66 21rAEr02           1536 	ld	hl,#(_alphabet + 0x01a6)
   0D69 36 82              1537 	ld	(hl),#0x82
   0D6B 21rAFr02           1538 	ld	hl,#(_alphabet + 0x01a7)
   0D6E 36 82              1539 	ld	(hl),#0x82
   0D70 21rB0r02           1540 	ld	hl,#(_alphabet + 0x01a8)
   0D73 36 8A              1541 	ld	(hl),#0x8A
   0D75 21rB1r02           1542 	ld	hl,#(_alphabet + 0x01a9)
   0D78 36 8A              1543 	ld	(hl),#0x8A
   0D7A 21rB2r02           1544 	ld	hl,#(_alphabet + 0x01aa)
   0D7D 36 44              1545 	ld	(hl),#0x44
   0D7F 21rB3r02           1546 	ld	hl,#(_alphabet + 0x01ab)
   0D82 36 44              1547 	ld	(hl),#0x44
   0D84 21rB4r02           1548 	ld	hl,#(_alphabet + 0x01ac)
   0D87 36 3A              1549 	ld	(hl),#0x3A
   0D89 21rB5r02           1550 	ld	hl,#(_alphabet + 0x01ad)
   0D8C 36 3A              1551 	ld	(hl),#0x3A
   0D8E 01rB6r02           1552 	ld	bc,#_alphabet + 430
   0D91 AF                 1553 	xor	a, a
   0D92 02                 1554 	ld	(bc),a
   0D93 01rB7r02           1555 	ld	bc,#_alphabet + 431
   0D96 AF                 1556 	xor	a, a
   0D97 02                 1557 	ld	(bc),a
   0D98 21rB8r02           1558 	ld	hl,#(_alphabet + 0x01b0)
   0D9B 36 FC              1559 	ld	(hl),#0xFC
   0D9D 21rB9r02           1560 	ld	hl,#(_alphabet + 0x01b1)
   0DA0 36 FC              1561 	ld	(hl),#0xFC
   0DA2 21rBAr02           1562 	ld	hl,#(_alphabet + 0x01b2)
   0DA5 36 82              1563 	ld	(hl),#0x82
   0DA7 21rBBr02           1564 	ld	hl,#(_alphabet + 0x01b3)
   0DAA 36 82              1565 	ld	(hl),#0x82
   0DAC 21rBCr02           1566 	ld	hl,#(_alphabet + 0x01b4)
   0DAF 36 82              1567 	ld	(hl),#0x82
   0DB1 21rBDr02           1568 	ld	hl,#(_alphabet + 0x01b5)
   0DB4 36 82              1569 	ld	(hl),#0x82
   0DB6 21rBEr02           1570 	ld	hl,#(_alphabet + 0x01b6)
   0DB9 36 FC              1571 	ld	(hl),#0xFC
   0DBB 21rBFr02           1572 	ld	hl,#(_alphabet + 0x01b7)
   0DBE 36 FC              1573 	ld	(hl),#0xFC
   0DC0 21rC0r02           1574 	ld	hl,#(_alphabet + 0x01b8)
   0DC3 36 88              1575 	ld	(hl),#0x88
   0DC5 21rC1r02           1576 	ld	hl,#(_alphabet + 0x01b9)
   0DC8 36 88              1577 	ld	(hl),#0x88
   0DCA 21rC2r02           1578 	ld	hl,#(_alphabet + 0x01ba)
   0DCD 36 84              1579 	ld	(hl),#0x84
   0DCF 21rC3r02           1580 	ld	hl,#(_alphabet + 0x01bb)
   0DD2 36 84              1581 	ld	(hl),#0x84
   0DD4 21rC4r02           1582 	ld	hl,#(_alphabet + 0x01bc)
   0DD7 36 82              1583 	ld	(hl),#0x82
   0DD9 21rC5r02           1584 	ld	hl,#(_alphabet + 0x01bd)
   0DDC 36 82              1585 	ld	(hl),#0x82
   0DDE 01rC6r02           1586 	ld	bc,#_alphabet + 446
   0DE1 AF                 1587 	xor	a, a
   0DE2 02                 1588 	ld	(bc),a
   0DE3 01rC7r02           1589 	ld	bc,#_alphabet + 447
   0DE6 AF                 1590 	xor	a, a
   0DE7 02                 1591 	ld	(bc),a
   0DE8 21rC8r02           1592 	ld	hl,#(_alphabet + 0x01c0)
   0DEB 36 78              1593 	ld	(hl),#0x78
   0DED 21rC9r02           1594 	ld	hl,#(_alphabet + 0x01c1)
   0DF0 36 78              1595 	ld	(hl),#0x78
   0DF2 21rCAr02           1596 	ld	hl,#(_alphabet + 0x01c2)
   0DF5 36 84              1597 	ld	(hl),#0x84
   0DF7 21rCBr02           1598 	ld	hl,#(_alphabet + 0x01c3)
   0DFA 36 84              1599 	ld	(hl),#0x84
   0DFC 21rCCr02           1600 	ld	hl,#(_alphabet + 0x01c4)
   0DFF 36 80              1601 	ld	(hl),#0x80
   0E01 21rCDr02           1602 	ld	hl,#(_alphabet + 0x01c5)
   0E04 36 80              1603 	ld	(hl),#0x80
   0E06 21rCEr02           1604 	ld	hl,#(_alphabet + 0x01c6)
   0E09 36 7C              1605 	ld	(hl),#0x7C
   0E0B 21rCFr02           1606 	ld	hl,#(_alphabet + 0x01c7)
   0E0E 36 7C              1607 	ld	(hl),#0x7C
   0E10 21rD0r02           1608 	ld	hl,#(_alphabet + 0x01c8)
   0E13 36 02              1609 	ld	(hl),#0x02
   0E15 21rD1r02           1610 	ld	hl,#(_alphabet + 0x01c9)
   0E18 36 02              1611 	ld	(hl),#0x02
   0E1A 21rD2r02           1612 	ld	hl,#(_alphabet + 0x01ca)
   0E1D 36 82              1613 	ld	(hl),#0x82
   0E1F 21rD3r02           1614 	ld	hl,#(_alphabet + 0x01cb)
   0E22 36 82              1615 	ld	(hl),#0x82
   0E24 21rD4r02           1616 	ld	hl,#(_alphabet + 0x01cc)
   0E27 36 7C              1617 	ld	(hl),#0x7C
   0E29 21rD5r02           1618 	ld	hl,#(_alphabet + 0x01cd)
   0E2C 36 7C              1619 	ld	(hl),#0x7C
   0E2E 01rD6r02           1620 	ld	bc,#_alphabet + 462
   0E31 AF                 1621 	xor	a, a
   0E32 02                 1622 	ld	(bc),a
   0E33 01rD7r02           1623 	ld	bc,#_alphabet + 463
   0E36 AF                 1624 	xor	a, a
   0E37 02                 1625 	ld	(bc),a
   0E38 21rD8r02           1626 	ld	hl,#(_alphabet + 0x01d0)
   0E3B 36 FE              1627 	ld	(hl),#0xFE
   0E3D 21rD9r02           1628 	ld	hl,#(_alphabet + 0x01d1)
   0E40 36 FE              1629 	ld	(hl),#0xFE
   0E42 21rDAr02           1630 	ld	hl,#(_alphabet + 0x01d2)
   0E45 36 10              1631 	ld	(hl),#0x10
   0E47 21rDBr02           1632 	ld	hl,#(_alphabet + 0x01d3)
   0E4A 36 10              1633 	ld	(hl),#0x10
   0E4C 21rDCr02           1634 	ld	hl,#(_alphabet + 0x01d4)
   0E4F 36 10              1635 	ld	(hl),#0x10
   0E51 21rDDr02           1636 	ld	hl,#(_alphabet + 0x01d5)
   0E54 36 10              1637 	ld	(hl),#0x10
   0E56 21rDEr02           1638 	ld	hl,#(_alphabet + 0x01d6)
   0E59 36 10              1639 	ld	(hl),#0x10
   0E5B 21rDFr02           1640 	ld	hl,#(_alphabet + 0x01d7)
   0E5E 36 10              1641 	ld	(hl),#0x10
   0E60 21rE0r02           1642 	ld	hl,#(_alphabet + 0x01d8)
   0E63 36 10              1643 	ld	(hl),#0x10
   0E65 21rE1r02           1644 	ld	hl,#(_alphabet + 0x01d9)
   0E68 36 10              1645 	ld	(hl),#0x10
   0E6A 21rE2r02           1646 	ld	hl,#(_alphabet + 0x01da)
   0E6D 36 10              1647 	ld	(hl),#0x10
   0E6F 21rE3r02           1648 	ld	hl,#(_alphabet + 0x01db)
   0E72 36 10              1649 	ld	(hl),#0x10
   0E74 21rE4r02           1650 	ld	hl,#(_alphabet + 0x01dc)
   0E77 36 10              1651 	ld	(hl),#0x10
   0E79 21rE5r02           1652 	ld	hl,#(_alphabet + 0x01dd)
   0E7C 36 10              1653 	ld	(hl),#0x10
   0E7E 01rE6r02           1654 	ld	bc,#_alphabet + 478
   0E81 AF                 1655 	xor	a, a
   0E82 02                 1656 	ld	(bc),a
   0E83 01rE7r02           1657 	ld	bc,#_alphabet + 479
   0E86 AF                 1658 	xor	a, a
   0E87 02                 1659 	ld	(bc),a
   0E88 21rE8r02           1660 	ld	hl,#(_alphabet + 0x01e0)
   0E8B 36 82              1661 	ld	(hl),#0x82
   0E8D 21rE9r02           1662 	ld	hl,#(_alphabet + 0x01e1)
   0E90 36 82              1663 	ld	(hl),#0x82
   0E92 21rEAr02           1664 	ld	hl,#(_alphabet + 0x01e2)
   0E95 36 82              1665 	ld	(hl),#0x82
   0E97 21rEBr02           1666 	ld	hl,#(_alphabet + 0x01e3)
   0E9A 36 82              1667 	ld	(hl),#0x82
   0E9C 21rECr02           1668 	ld	hl,#(_alphabet + 0x01e4)
   0E9F 36 82              1669 	ld	(hl),#0x82
   0EA1 21rEDr02           1670 	ld	hl,#(_alphabet + 0x01e5)
   0EA4 36 82              1671 	ld	(hl),#0x82
   0EA6 21rEEr02           1672 	ld	hl,#(_alphabet + 0x01e6)
   0EA9 36 82              1673 	ld	(hl),#0x82
   0EAB 21rEFr02           1674 	ld	hl,#(_alphabet + 0x01e7)
   0EAE 36 82              1675 	ld	(hl),#0x82
   0EB0 21rF0r02           1676 	ld	hl,#(_alphabet + 0x01e8)
   0EB3 36 82              1677 	ld	(hl),#0x82
   0EB5 21rF1r02           1678 	ld	hl,#(_alphabet + 0x01e9)
   0EB8 36 82              1679 	ld	(hl),#0x82
   0EBA 21rF2r02           1680 	ld	hl,#(_alphabet + 0x01ea)
   0EBD 36 82              1681 	ld	(hl),#0x82
   0EBF 21rF3r02           1682 	ld	hl,#(_alphabet + 0x01eb)
   0EC2 36 82              1683 	ld	(hl),#0x82
   0EC4 21rF4r02           1684 	ld	hl,#(_alphabet + 0x01ec)
   0EC7 36 7C              1685 	ld	(hl),#0x7C
   0EC9 21rF5r02           1686 	ld	hl,#(_alphabet + 0x01ed)
   0ECC 36 7C              1687 	ld	(hl),#0x7C
   0ECE 01rF6r02           1688 	ld	bc,#_alphabet + 494
   0ED1 AF                 1689 	xor	a, a
   0ED2 02                 1690 	ld	(bc),a
   0ED3 01rF7r02           1691 	ld	bc,#_alphabet + 495
   0ED6 AF                 1692 	xor	a, a
   0ED7 02                 1693 	ld	(bc),a
   0ED8 21rF8r02           1694 	ld	hl,#(_alphabet + 0x01f0)
   0EDB 36 82              1695 	ld	(hl),#0x82
   0EDD 21rF9r02           1696 	ld	hl,#(_alphabet + 0x01f1)
   0EE0 36 82              1697 	ld	(hl),#0x82
   0EE2 21rFAr02           1698 	ld	hl,#(_alphabet + 0x01f2)
   0EE5 36 82              1699 	ld	(hl),#0x82
   0EE7 21rFBr02           1700 	ld	hl,#(_alphabet + 0x01f3)
   0EEA 36 82              1701 	ld	(hl),#0x82
   0EEC 21rFCr02           1702 	ld	hl,#(_alphabet + 0x01f4)
   0EEF 36 44              1703 	ld	(hl),#0x44
   0EF1 21rFDr02           1704 	ld	hl,#(_alphabet + 0x01f5)
   0EF4 36 44              1705 	ld	(hl),#0x44
   0EF6 21rFEr02           1706 	ld	hl,#(_alphabet + 0x01f6)
   0EF9 36 44              1707 	ld	(hl),#0x44
   0EFB 21rFFr02           1708 	ld	hl,#(_alphabet + 0x01f7)
   0EFE 36 44              1709 	ld	(hl),#0x44
   0F00 21r00r03           1710 	ld	hl,#(_alphabet + 0x01f8)
   0F03 36 28              1711 	ld	(hl),#0x28
   0F05 21r01r03           1712 	ld	hl,#(_alphabet + 0x01f9)
   0F08 36 28              1713 	ld	(hl),#0x28
   0F0A 21r02r03           1714 	ld	hl,#(_alphabet + 0x01fa)
   0F0D 36 28              1715 	ld	(hl),#0x28
   0F0F 21r03r03           1716 	ld	hl,#(_alphabet + 0x01fb)
   0F12 36 28              1717 	ld	(hl),#0x28
   0F14 21r04r03           1718 	ld	hl,#(_alphabet + 0x01fc)
   0F17 36 10              1719 	ld	(hl),#0x10
   0F19 21r05r03           1720 	ld	hl,#(_alphabet + 0x01fd)
   0F1C 36 10              1721 	ld	(hl),#0x10
   0F1E 01r06r03           1722 	ld	bc,#_alphabet + 510
   0F21 AF                 1723 	xor	a, a
   0F22 02                 1724 	ld	(bc),a
   0F23 01r07r03           1725 	ld	bc,#_alphabet + 511
   0F26 AF                 1726 	xor	a, a
   0F27 02                 1727 	ld	(bc),a
   0F28 21r08r03           1728 	ld	hl,#(_alphabet + 0x0200)
   0F2B 36 82              1729 	ld	(hl),#0x82
   0F2D 21r09r03           1730 	ld	hl,#(_alphabet + 0x0201)
   0F30 36 82              1731 	ld	(hl),#0x82
   0F32 21r0Ar03           1732 	ld	hl,#(_alphabet + 0x0202)
   0F35 36 92              1733 	ld	(hl),#0x92
   0F37 21r0Br03           1734 	ld	hl,#(_alphabet + 0x0203)
   0F3A 36 92              1735 	ld	(hl),#0x92
   0F3C 21r0Cr03           1736 	ld	hl,#(_alphabet + 0x0204)
   0F3F 36 AA              1737 	ld	(hl),#0xAA
   0F41 21r0Dr03           1738 	ld	hl,#(_alphabet + 0x0205)
   0F44 36 AA              1739 	ld	(hl),#0xAA
   0F46 21r0Er03           1740 	ld	hl,#(_alphabet + 0x0206)
   0F49 36 AA              1741 	ld	(hl),#0xAA
   0F4B 21r0Fr03           1742 	ld	hl,#(_alphabet + 0x0207)
   0F4E 36 AA              1743 	ld	(hl),#0xAA
   0F50 21r10r03           1744 	ld	hl,#(_alphabet + 0x0208)
   0F53 36 C6              1745 	ld	(hl),#0xC6
   0F55 21r11r03           1746 	ld	hl,#(_alphabet + 0x0209)
   0F58 36 C6              1747 	ld	(hl),#0xC6
   0F5A 21r12r03           1748 	ld	hl,#(_alphabet + 0x020a)
   0F5D 36 C6              1749 	ld	(hl),#0xC6
   0F5F 21r13r03           1750 	ld	hl,#(_alphabet + 0x020b)
   0F62 36 C6              1751 	ld	(hl),#0xC6
   0F64 21r14r03           1752 	ld	hl,#(_alphabet + 0x020c)
   0F67 36 82              1753 	ld	(hl),#0x82
   0F69 21r15r03           1754 	ld	hl,#(_alphabet + 0x020d)
   0F6C 36 82              1755 	ld	(hl),#0x82
   0F6E 01r16r03           1756 	ld	bc,#_alphabet + 526
   0F71 AF                 1757 	xor	a, a
   0F72 02                 1758 	ld	(bc),a
   0F73 01r17r03           1759 	ld	bc,#_alphabet + 527
   0F76 AF                 1760 	xor	a, a
   0F77 02                 1761 	ld	(bc),a
   0F78 21r18r03           1762 	ld	hl,#(_alphabet + 0x0210)
   0F7B 36 C6              1763 	ld	(hl),#0xC6
   0F7D 21r19r03           1764 	ld	hl,#(_alphabet + 0x0211)
   0F80 36 C6              1765 	ld	(hl),#0xC6
   0F82 21r1Ar03           1766 	ld	hl,#(_alphabet + 0x0212)
   0F85 36 44              1767 	ld	(hl),#0x44
   0F87 21r1Br03           1768 	ld	hl,#(_alphabet + 0x0213)
   0F8A 36 44              1769 	ld	(hl),#0x44
   0F8C 21r1Cr03           1770 	ld	hl,#(_alphabet + 0x0214)
   0F8F 36 28              1771 	ld	(hl),#0x28
   0F91 21r1Dr03           1772 	ld	hl,#(_alphabet + 0x0215)
   0F94 36 28              1773 	ld	(hl),#0x28
   0F96 21r1Er03           1774 	ld	hl,#(_alphabet + 0x0216)
   0F99 36 10              1775 	ld	(hl),#0x10
   0F9B 21r1Fr03           1776 	ld	hl,#(_alphabet + 0x0217)
   0F9E 36 10              1777 	ld	(hl),#0x10
   0FA0 21r20r03           1778 	ld	hl,#(_alphabet + 0x0218)
   0FA3 36 28              1779 	ld	(hl),#0x28
   0FA5 21r21r03           1780 	ld	hl,#(_alphabet + 0x0219)
   0FA8 36 28              1781 	ld	(hl),#0x28
   0FAA 21r22r03           1782 	ld	hl,#(_alphabet + 0x021a)
   0FAD 36 44              1783 	ld	(hl),#0x44
   0FAF 21r23r03           1784 	ld	hl,#(_alphabet + 0x021b)
   0FB2 36 44              1785 	ld	(hl),#0x44
   0FB4 21r24r03           1786 	ld	hl,#(_alphabet + 0x021c)
   0FB7 36 C6              1787 	ld	(hl),#0xC6
   0FB9 21r25r03           1788 	ld	hl,#(_alphabet + 0x021d)
   0FBC 36 C6              1789 	ld	(hl),#0xC6
   0FBE 01r26r03           1790 	ld	bc,#_alphabet + 542
   0FC1 AF                 1791 	xor	a, a
   0FC2 02                 1792 	ld	(bc),a
   0FC3 01r27r03           1793 	ld	bc,#_alphabet + 543
   0FC6 AF                 1794 	xor	a, a
   0FC7 02                 1795 	ld	(bc),a
   0FC8 21r28r03           1796 	ld	hl,#(_alphabet + 0x0220)
   0FCB 36 82              1797 	ld	(hl),#0x82
   0FCD 21r29r03           1798 	ld	hl,#(_alphabet + 0x0221)
   0FD0 36 82              1799 	ld	(hl),#0x82
   0FD2 21r2Ar03           1800 	ld	hl,#(_alphabet + 0x0222)
   0FD5 36 44              1801 	ld	(hl),#0x44
   0FD7 21r2Br03           1802 	ld	hl,#(_alphabet + 0x0223)
   0FDA 36 44              1803 	ld	(hl),#0x44
   0FDC 21r2Cr03           1804 	ld	hl,#(_alphabet + 0x0224)
   0FDF 36 28              1805 	ld	(hl),#0x28
   0FE1 21r2Dr03           1806 	ld	hl,#(_alphabet + 0x0225)
   0FE4 36 28              1807 	ld	(hl),#0x28
   0FE6 21r2Er03           1808 	ld	hl,#(_alphabet + 0x0226)
   0FE9 36 10              1809 	ld	(hl),#0x10
   0FEB 21r2Fr03           1810 	ld	hl,#(_alphabet + 0x0227)
   0FEE 36 10              1811 	ld	(hl),#0x10
   0FF0 21r30r03           1812 	ld	hl,#(_alphabet + 0x0228)
   0FF3 36 10              1813 	ld	(hl),#0x10
   0FF5 21r31r03           1814 	ld	hl,#(_alphabet + 0x0229)
   0FF8 36 10              1815 	ld	(hl),#0x10
   0FFA 21r32r03           1816 	ld	hl,#(_alphabet + 0x022a)
   0FFD 36 10              1817 	ld	(hl),#0x10
   0FFF 21r33r03           1818 	ld	hl,#(_alphabet + 0x022b)
   1002 36 10              1819 	ld	(hl),#0x10
   1004 21r34r03           1820 	ld	hl,#(_alphabet + 0x022c)
   1007 36 10              1821 	ld	(hl),#0x10
   1009 21r35r03           1822 	ld	hl,#(_alphabet + 0x022d)
   100C 36 10              1823 	ld	(hl),#0x10
   100E 01r36r03           1824 	ld	bc,#_alphabet + 558
   1011 AF                 1825 	xor	a, a
   1012 02                 1826 	ld	(bc),a
   1013 01r37r03           1827 	ld	bc,#_alphabet + 559
   1016 AF                 1828 	xor	a, a
   1017 02                 1829 	ld	(bc),a
   1018 21r38r03           1830 	ld	hl,#(_alphabet + 0x0230)
   101B 36 FE              1831 	ld	(hl),#0xFE
   101D 21r39r03           1832 	ld	hl,#(_alphabet + 0x0231)
   1020 36 FE              1833 	ld	(hl),#0xFE
   1022 21r3Ar03           1834 	ld	hl,#(_alphabet + 0x0232)
   1025 36 04              1835 	ld	(hl),#0x04
   1027 21r3Br03           1836 	ld	hl,#(_alphabet + 0x0233)
   102A 36 04              1837 	ld	(hl),#0x04
   102C 21r3Cr03           1838 	ld	hl,#(_alphabet + 0x0234)
   102F 36 08              1839 	ld	(hl),#0x08
   1031 21r3Dr03           1840 	ld	hl,#(_alphabet + 0x0235)
   1034 36 08              1841 	ld	(hl),#0x08
   1036 21r3Er03           1842 	ld	hl,#(_alphabet + 0x0236)
   1039 36 10              1843 	ld	(hl),#0x10
   103B 21r3Fr03           1844 	ld	hl,#(_alphabet + 0x0237)
   103E 36 10              1845 	ld	(hl),#0x10
   1040 21r40r03           1846 	ld	hl,#(_alphabet + 0x0238)
   1043 36 20              1847 	ld	(hl),#0x20
   1045 21r41r03           1848 	ld	hl,#(_alphabet + 0x0239)
   1048 36 20              1849 	ld	(hl),#0x20
   104A 21r42r03           1850 	ld	hl,#(_alphabet + 0x023a)
   104D 36 40              1851 	ld	(hl),#0x40
   104F 21r43r03           1852 	ld	hl,#(_alphabet + 0x023b)
   1052 36 40              1853 	ld	(hl),#0x40
   1054 21r44r03           1854 	ld	hl,#(_alphabet + 0x023c)
   1057 36 FE              1855 	ld	(hl),#0xFE
   1059 21r45r03           1856 	ld	hl,#(_alphabet + 0x023d)
   105C 36 FE              1857 	ld	(hl),#0xFE
   105E 01r46r03           1858 	ld	bc,#_alphabet + 574
   1061 AF                 1859 	xor	a, a
   1062 02                 1860 	ld	(bc),a
   1063 01r47r03           1861 	ld	bc,#_alphabet + 575
   1066 AF                 1862 	xor	a, a
   1067 02                 1863 	ld	(bc),a
   1068 01r48r03           1864 	ld	bc,#_alphabet + 576
   106B AF                 1865 	xor	a, a
   106C 02                 1866 	ld	(bc),a
   106D 01r49r03           1867 	ld	bc,#_alphabet + 577
   1070 AF                 1868 	xor	a, a
   1071 02                 1869 	ld	(bc),a
   1072 01r4Ar03           1870 	ld	bc,#_alphabet + 578
   1075 AF                 1871 	xor	a, a
   1076 02                 1872 	ld	(bc),a
   1077 01r4Br03           1873 	ld	bc,#_alphabet + 579
   107A AF                 1874 	xor	a, a
   107B 02                 1875 	ld	(bc),a
   107C 01r4Cr03           1876 	ld	bc,#_alphabet + 580
   107F AF                 1877 	xor	a, a
   1080 02                 1878 	ld	(bc),a
   1081 01r4Dr03           1879 	ld	bc,#_alphabet + 581
   1084 AF                 1880 	xor	a, a
   1085 02                 1881 	ld	(bc),a
   1086 01r4Er03           1882 	ld	bc,#_alphabet + 582
   1089 AF                 1883 	xor	a, a
   108A 02                 1884 	ld	(bc),a
   108B 01r4Fr03           1885 	ld	bc,#_alphabet + 583
   108E AF                 1886 	xor	a, a
   108F 02                 1887 	ld	(bc),a
   1090 01r50r03           1888 	ld	bc,#_alphabet + 584
   1093 AF                 1889 	xor	a, a
   1094 02                 1890 	ld	(bc),a
   1095 01r51r03           1891 	ld	bc,#_alphabet + 585
   1098 AF                 1892 	xor	a, a
   1099 02                 1893 	ld	(bc),a
   109A 01r52r03           1894 	ld	bc,#_alphabet + 586
   109D AF                 1895 	xor	a, a
   109E 02                 1896 	ld	(bc),a
   109F 01r53r03           1897 	ld	bc,#_alphabet + 587
   10A2 AF                 1898 	xor	a, a
   10A3 02                 1899 	ld	(bc),a
   10A4 01r54r03           1900 	ld	bc,#_alphabet + 588
   10A7 AF                 1901 	xor	a, a
   10A8 02                 1902 	ld	(bc),a
   10A9 01r55r03           1903 	ld	bc,#_alphabet + 589
   10AC AF                 1904 	xor	a, a
   10AD 02                 1905 	ld	(bc),a
   10AE 01r56r03           1906 	ld	bc,#_alphabet + 590
   10B1 AF                 1907 	xor	a, a
   10B2 02                 1908 	ld	(bc),a
   10B3 01r57r03           1909 	ld	bc,#_alphabet + 591
   10B6 AF                 1910 	xor	a, a
   10B7 02                 1911 	ld	(bc),a
   10B8 01r58r03           1912 	ld	bc,#_alphabet + 592
   10BB AF                 1913 	xor	a, a
   10BC 02                 1914 	ld	(bc),a
   10BD 01r59r03           1915 	ld	bc,#_alphabet + 593
   10C0 AF                 1916 	xor	a, a
   10C1 02                 1917 	ld	(bc),a
   10C2 01r5Ar03           1918 	ld	bc,#_alphabet + 594
   10C5 AF                 1919 	xor	a, a
   10C6 02                 1920 	ld	(bc),a
   10C7 01r5Br03           1921 	ld	bc,#_alphabet + 595
   10CA AF                 1922 	xor	a, a
   10CB 02                 1923 	ld	(bc),a
   10CC 21r5Cr03           1924 	ld	hl,#(_alphabet + 0x0254)
   10CF 36 60              1925 	ld	(hl),#0x60
   10D1 21r5Dr03           1926 	ld	hl,#(_alphabet + 0x0255)
   10D4 36 60              1927 	ld	(hl),#0x60
   10D6 21r5Er03           1928 	ld	hl,#(_alphabet + 0x0256)
   10D9 36 92              1929 	ld	(hl),#0x92
   10DB 21r5Fr03           1930 	ld	hl,#(_alphabet + 0x0257)
   10DE 36 92              1931 	ld	(hl),#0x92
   10E0 21r60r03           1932 	ld	hl,#(_alphabet + 0x0258)
   10E3 36 0C              1933 	ld	(hl),#0x0C
   10E5 21r61r03           1934 	ld	hl,#(_alphabet + 0x0259)
   10E8 36 0C              1935 	ld	(hl),#0x0C
   10EA 01r62r03           1936 	ld	bc,#_alphabet + 602
   10ED AF                 1937 	xor	a, a
   10EE 02                 1938 	ld	(bc),a
   10EF 01r63r03           1939 	ld	bc,#_alphabet + 603
   10F2 AF                 1940 	xor	a, a
   10F3 02                 1941 	ld	(bc),a
   10F4 01r64r03           1942 	ld	bc,#_alphabet + 604
   10F7 AF                 1943 	xor	a, a
   10F8 02                 1944 	ld	(bc),a
   10F9 01r65r03           1945 	ld	bc,#_alphabet + 605
   10FC AF                 1946 	xor	a, a
   10FD 02                 1947 	ld	(bc),a
   10FE 01r66r03           1948 	ld	bc,#_alphabet + 606
   1101 AF                 1949 	xor	a, a
   1102 02                 1950 	ld	(bc),a
   1103 01r67r03           1951 	ld	bc,#_alphabet + 607
   1106 AF                 1952 	xor	a, a
   1107 02                 1953 	ld	(bc),a
   1108 01r68r03           1954 	ld	bc,#_alphabet + 608
   110B AF                 1955 	xor	a, a
   110C 02                 1956 	ld	(bc),a
   110D 01r69r03           1957 	ld	bc,#_alphabet + 609
   1110 AF                 1958 	xor	a, a
   1111 02                 1959 	ld	(bc),a
   1112 01r6Ar03           1960 	ld	bc,#_alphabet + 610
   1115 AF                 1961 	xor	a, a
   1116 02                 1962 	ld	(bc),a
   1117 01r6Br03           1963 	ld	bc,#_alphabet + 611
   111A AF                 1964 	xor	a, a
   111B 02                 1965 	ld	(bc),a
   111C 01r6Cr03           1966 	ld	bc,#_alphabet + 612
   111F AF                 1967 	xor	a, a
   1120 02                 1968 	ld	(bc),a
   1121 01r6Dr03           1969 	ld	bc,#_alphabet + 613
   1124 AF                 1970 	xor	a, a
   1125 02                 1971 	ld	(bc),a
   1126 01r6Er03           1972 	ld	bc,#_alphabet + 614
   1129 AF                 1973 	xor	a, a
   112A 02                 1974 	ld	(bc),a
   112B 01r6Fr03           1975 	ld	bc,#_alphabet + 615
   112E AF                 1976 	xor	a, a
   112F 02                 1977 	ld	(bc),a
   1130 01r70r03           1978 	ld	bc,#_alphabet + 616
   1133 AF                 1979 	xor	a, a
   1134 02                 1980 	ld	(bc),a
   1135 01r71r03           1981 	ld	bc,#_alphabet + 617
   1138 AF                 1982 	xor	a, a
   1139 02                 1983 	ld	(bc),a
   113A 01r72r03           1984 	ld	bc,#_alphabet + 618
   113D AF                 1985 	xor	a, a
   113E 02                 1986 	ld	(bc),a
   113F 01r73r03           1987 	ld	bc,#_alphabet + 619
   1142 AF                 1988 	xor	a, a
   1143 02                 1989 	ld	(bc),a
   1144 21r74r03           1990 	ld	hl,#(_alphabet + 0x026c)
   1147 36 FE              1991 	ld	(hl),#0xFE
   1149 21r75r03           1992 	ld	hl,#(_alphabet + 0x026d)
   114C 36 FE              1993 	ld	(hl),#0xFE
   114E 01r76r03           1994 	ld	bc,#_alphabet + 622
   1151 AF                 1995 	xor	a, a
   1152 02                 1996 	ld	(bc),a
   1153 01r77r03           1997 	ld	bc,#_alphabet + 623
   1156 AF                 1998 	xor	a, a
   1157 02                 1999 	ld	(bc),a
   1158 21r78r03           2000 	ld	hl,#(_alphabet + 0x0270)
   115B 36 10              2001 	ld	(hl),#0x10
   115D 21r79r03           2002 	ld	hl,#(_alphabet + 0x0271)
   1160 36 10              2003 	ld	(hl),#0x10
   1162 21r7Ar03           2004 	ld	hl,#(_alphabet + 0x0272)
   1165 36 10              2005 	ld	(hl),#0x10
   1167 21r7Br03           2006 	ld	hl,#(_alphabet + 0x0273)
   116A 36 10              2007 	ld	(hl),#0x10
   116C 21r7Cr03           2008 	ld	hl,#(_alphabet + 0x0274)
   116F 36 10              2009 	ld	(hl),#0x10
   1171 21r7Dr03           2010 	ld	hl,#(_alphabet + 0x0275)
   1174 36 10              2011 	ld	(hl),#0x10
   1176 21r7Er03           2012 	ld	hl,#(_alphabet + 0x0276)
   1179 36 10              2013 	ld	(hl),#0x10
   117B 21r7Fr03           2014 	ld	hl,#(_alphabet + 0x0277)
   117E 36 10              2015 	ld	(hl),#0x10
   1180 21r80r03           2016 	ld	hl,#(_alphabet + 0x0278)
   1183 36 10              2017 	ld	(hl),#0x10
   1185 21r81r03           2018 	ld	hl,#(_alphabet + 0x0279)
   1188 36 10              2019 	ld	(hl),#0x10
   118A 01r82r03           2020 	ld	bc,#_alphabet + 634
   118D AF                 2021 	xor	a, a
   118E 02                 2022 	ld	(bc),a
   118F 01r83r03           2023 	ld	bc,#_alphabet + 635
   1192 AF                 2024 	xor	a, a
   1193 02                 2025 	ld	(bc),a
   1194 21r84r03           2026 	ld	hl,#(_alphabet + 0x027c)
   1197 36 10              2027 	ld	(hl),#0x10
   1199 21r85r03           2028 	ld	hl,#(_alphabet + 0x027d)
   119C 36 10              2029 	ld	(hl),#0x10
   119E 01r86r03           2030 	ld	bc,#_alphabet + 638
   11A1 AF                 2031 	xor	a, a
   11A2 02                 2032 	ld	(bc),a
   11A3 01r87r03           2033 	ld	bc,#_alphabet + 639
   11A6 AF                 2034 	xor	a, a
   11A7 02                 2035 	ld	(bc),a
   11A8 21r88r03           2036 	ld	hl,#(_alphabet + 0x0280)
   11AB 36 3C              2037 	ld	(hl),#0x3C
   11AD 21r89r03           2038 	ld	hl,#(_alphabet + 0x0281)
   11B0 36 3C              2039 	ld	(hl),#0x3C
   11B2 21r8Ar03           2040 	ld	hl,#(_alphabet + 0x0282)
   11B5 36 42              2041 	ld	(hl),#0x42
   11B7 21r8Br03           2042 	ld	hl,#(_alphabet + 0x0283)
   11BA 36 42              2043 	ld	(hl),#0x42
   11BC 21r8Cr03           2044 	ld	hl,#(_alphabet + 0x0284)
   11BF 36 42              2045 	ld	(hl),#0x42
   11C1 21r8Dr03           2046 	ld	hl,#(_alphabet + 0x0285)
   11C4 36 42              2047 	ld	(hl),#0x42
   11C6 21r8Er03           2048 	ld	hl,#(_alphabet + 0x0286)
   11C9 36 1C              2049 	ld	(hl),#0x1C
   11CB 21r8Fr03           2050 	ld	hl,#(_alphabet + 0x0287)
   11CE 36 1C              2051 	ld	(hl),#0x1C
   11D0 21r90r03           2052 	ld	hl,#(_alphabet + 0x0288)
   11D3 36 10              2053 	ld	(hl),#0x10
   11D5 21r91r03           2054 	ld	hl,#(_alphabet + 0x0289)
   11D8 36 10              2055 	ld	(hl),#0x10
   11DA 01r92r03           2056 	ld	bc,#_alphabet + 650
   11DD AF                 2057 	xor	a, a
   11DE 02                 2058 	ld	(bc),a
   11DF 01r93r03           2059 	ld	bc,#_alphabet + 651
   11E2 AF                 2060 	xor	a, a
   11E3 02                 2061 	ld	(bc),a
   11E4 21r94r03           2062 	ld	hl,#(_alphabet + 0x028c)
   11E7 36 10              2063 	ld	(hl),#0x10
   11E9 21r95r03           2064 	ld	hl,#(_alphabet + 0x028d)
   11EC 36 10              2065 	ld	(hl),#0x10
   11EE 01r96r03           2066 	ld	bc,#_alphabet + 654
   11F1 AF                 2067 	xor	a, a
   11F2 02                 2068 	ld	(bc),a
   11F3 01r97r03           2069 	ld	bc,#_alphabet + 655
   11F6 AF                 2070 	xor	a, a
   11F7 02                 2071 	ld	(bc),a
   11F8 21r98r03           2072 	ld	hl,#(_alphabet + 0x0290)
   11FB 36 18              2073 	ld	(hl),#0x18
   11FD 21r99r03           2074 	ld	hl,#(_alphabet + 0x0291)
   1200 36 18              2075 	ld	(hl),#0x18
   1202 21r9Ar03           2076 	ld	hl,#(_alphabet + 0x0292)
   1205 36 18              2077 	ld	(hl),#0x18
   1207 21r9Br03           2078 	ld	hl,#(_alphabet + 0x0293)
   120A 36 18              2079 	ld	(hl),#0x18
   120C 21r9Cr03           2080 	ld	hl,#(_alphabet + 0x0294)
   120F 36 08              2081 	ld	(hl),#0x08
   1211 21r9Dr03           2082 	ld	hl,#(_alphabet + 0x0295)
   1214 36 08              2083 	ld	(hl),#0x08
   1216 21r9Er03           2084 	ld	hl,#(_alphabet + 0x0296)
   1219 36 10              2085 	ld	(hl),#0x10
   121B 21r9Fr03           2086 	ld	hl,#(_alphabet + 0x0297)
   121E 36 10              2087 	ld	(hl),#0x10
   1220 01rA0r03           2088 	ld	bc,#_alphabet + 664
   1223 AF                 2089 	xor	a, a
   1224 02                 2090 	ld	(bc),a
   1225 01rA1r03           2091 	ld	bc,#_alphabet + 665
   1228 AF                 2092 	xor	a, a
   1229 02                 2093 	ld	(bc),a
   122A 01rA2r03           2094 	ld	bc,#_alphabet + 666
   122D AF                 2095 	xor	a, a
   122E 02                 2096 	ld	(bc),a
   122F 01rA3r03           2097 	ld	bc,#_alphabet + 667
   1232 AF                 2098 	xor	a, a
   1233 02                 2099 	ld	(bc),a
   1234 01rA4r03           2100 	ld	bc,#_alphabet + 668
   1237 AF                 2101 	xor	a, a
   1238 02                 2102 	ld	(bc),a
   1239 01rA5r03           2103 	ld	bc,#_alphabet + 669
   123C AF                 2104 	xor	a, a
   123D 02                 2105 	ld	(bc),a
   123E 01rA6r03           2106 	ld	bc,#_alphabet + 670
   1241 AF                 2107 	xor	a, a
   1242 02                 2108 	ld	(bc),a
   1243 01rA7r03           2109 	ld	bc,#_alphabet + 671
   1246 AF                 2110 	xor	a, a
   1247 02                 2111 	ld	(bc),a
   1248 01rA8r03           2112 	ld	bc,#_alphabet + 672
   124B AF                 2113 	xor	a, a
   124C 02                 2114 	ld	(bc),a
   124D 01rA9r03           2115 	ld	bc,#_alphabet + 673
   1250 AF                 2116 	xor	a, a
   1251 02                 2117 	ld	(bc),a
   1252 01rAAr03           2118 	ld	bc,#_alphabet + 674
   1255 AF                 2119 	xor	a, a
   1256 02                 2120 	ld	(bc),a
   1257 01rABr03           2121 	ld	bc,#_alphabet + 675
   125A AF                 2122 	xor	a, a
   125B 02                 2123 	ld	(bc),a
   125C 01rACr03           2124 	ld	bc,#_alphabet + 676
   125F AF                 2125 	xor	a, a
   1260 02                 2126 	ld	(bc),a
   1261 01rADr03           2127 	ld	bc,#_alphabet + 677
   1264 AF                 2128 	xor	a, a
   1265 02                 2129 	ld	(bc),a
   1266 01rAEr03           2130 	ld	bc,#_alphabet + 678
   1269 AF                 2131 	xor	a, a
   126A 02                 2132 	ld	(bc),a
   126B 01rAFr03           2133 	ld	bc,#_alphabet + 679
   126E AF                 2134 	xor	a, a
   126F 02                 2135 	ld	(bc),a
   1270 01rB0r03           2136 	ld	bc,#_alphabet + 680
   1273 AF                 2137 	xor	a, a
   1274 02                 2138 	ld	(bc),a
   1275 01rB1r03           2139 	ld	bc,#_alphabet + 681
   1278 AF                 2140 	xor	a, a
   1279 02                 2141 	ld	(bc),a
   127A 21rB2r03           2142 	ld	hl,#(_alphabet + 0x02aa)
   127D 36 18              2143 	ld	(hl),#0x18
   127F 21rB3r03           2144 	ld	hl,#(_alphabet + 0x02ab)
   1282 36 18              2145 	ld	(hl),#0x18
   1284 21rB4r03           2146 	ld	hl,#(_alphabet + 0x02ac)
   1287 36 18              2147 	ld	(hl),#0x18
   1289 21rB5r03           2148 	ld	hl,#(_alphabet + 0x02ad)
   128C 36 18              2149 	ld	(hl),#0x18
   128E 01rB6r03           2150 	ld	bc,#_alphabet + 686
   1291 AF                 2151 	xor	a, a
   1292 02                 2152 	ld	(bc),a
   1293 01rB7r03           2153 	ld	bc,#_alphabet + 687
   1296 AF                 2154 	xor	a, a
   1297 02                 2155 	ld	(bc),a
   1298 01rB8r03           2156 	ld	bc,#_alphabet + 688
   129B AF                 2157 	xor	a, a
   129C 02                 2158 	ld	(bc),a
   129D 01rB9r03           2159 	ld	bc,#_alphabet + 689
   12A0 AF                 2160 	xor	a, a
   12A1 02                 2161 	ld	(bc),a
   12A2 01rBAr03           2162 	ld	bc,#_alphabet + 690
   12A5 AF                 2163 	xor	a, a
   12A6 02                 2164 	ld	(bc),a
   12A7 01rBBr03           2165 	ld	bc,#_alphabet + 691
   12AA AF                 2166 	xor	a, a
   12AB 02                 2167 	ld	(bc),a
   12AC 01rBCr03           2168 	ld	bc,#_alphabet + 692
   12AF AF                 2169 	xor	a, a
   12B0 02                 2170 	ld	(bc),a
   12B1 01rBDr03           2171 	ld	bc,#_alphabet + 693
   12B4 AF                 2172 	xor	a, a
   12B5 02                 2173 	ld	(bc),a
   12B6 21rBEr03           2174 	ld	hl,#(_alphabet + 0x02b6)
   12B9 36 18              2175 	ld	(hl),#0x18
   12BB 21rBFr03           2176 	ld	hl,#(_alphabet + 0x02b7)
   12BE 36 18              2177 	ld	(hl),#0x18
   12C0 21rC0r03           2178 	ld	hl,#(_alphabet + 0x02b8)
   12C3 36 18              2179 	ld	(hl),#0x18
   12C5 21rC1r03           2180 	ld	hl,#(_alphabet + 0x02b9)
   12C8 36 18              2181 	ld	(hl),#0x18
   12CA 21rC2r03           2182 	ld	hl,#(_alphabet + 0x02ba)
   12CD 36 08              2183 	ld	(hl),#0x08
   12CF 21rC3r03           2184 	ld	hl,#(_alphabet + 0x02bb)
   12D2 36 08              2185 	ld	(hl),#0x08
   12D4 21rC4r03           2186 	ld	hl,#(_alphabet + 0x02bc)
   12D7 36 10              2187 	ld	(hl),#0x10
   12D9 21rC5r03           2188 	ld	hl,#(_alphabet + 0x02bd)
   12DC 36 10              2189 	ld	(hl),#0x10
   12DE 01rC6r03           2190 	ld	bc,#_alphabet + 702
   12E1 AF                 2191 	xor	a, a
   12E2 02                 2192 	ld	(bc),a
   12E3 01rC7r03           2193 	ld	bc,#_alphabet + 703
   12E6 AF                 2194 	xor	a, a
   12E7 02                 2195 	ld	(bc),a
   12E8 01rC8r03           2196 	ld	bc,#_alphabet + 704
   12EB AF                 2197 	xor	a, a
   12EC 02                 2198 	ld	(bc),a
   12ED 01rC9r03           2199 	ld	bc,#_alphabet + 705
   12F0 AF                 2200 	xor	a, a
   12F1 02                 2201 	ld	(bc),a
   12F2 01rCAr03           2202 	ld	bc,#_alphabet + 706
   12F5 AF                 2203 	xor	a, a
   12F6 02                 2204 	ld	(bc),a
   12F7 01rCBr03           2205 	ld	bc,#_alphabet + 707
   12FA AF                 2206 	xor	a, a
   12FB 02                 2207 	ld	(bc),a
   12FC 01rCCr03           2208 	ld	bc,#_alphabet + 708
   12FF AF                 2209 	xor	a, a
   1300 02                 2210 	ld	(bc),a
   1301 01rCDr03           2211 	ld	bc,#_alphabet + 709
   1304 AF                 2212 	xor	a, a
   1305 02                 2213 	ld	(bc),a
   1306 21rCEr03           2214 	ld	hl,#(_alphabet + 0x02c6)
   1309 36 54              2215 	ld	(hl),#0x54
   130B 21rCFr03           2216 	ld	hl,#(_alphabet + 0x02c7)
   130E 36 54              2217 	ld	(hl),#0x54
   1310 01rD0r03           2218 	ld	bc,#_alphabet + 712
   1313 AF                 2219 	xor	a, a
   1314 02                 2220 	ld	(bc),a
   1315 01rD1r03           2221 	ld	bc,#_alphabet + 713
   1318 AF                 2222 	xor	a, a
   1319 02                 2223 	ld	(bc),a
   131A 01rD2r03           2224 	ld	bc,#_alphabet + 714
   131D AF                 2225 	xor	a, a
   131E 02                 2226 	ld	(bc),a
   131F 01rD3r03           2227 	ld	bc,#_alphabet + 715
   1322 AF                 2228 	xor	a, a
   1323 02                 2229 	ld	(bc),a
   1324 01rD4r03           2230 	ld	bc,#_alphabet + 716
   1327 AF                 2231 	xor	a, a
   1328 02                 2232 	ld	(bc),a
   1329 01rD5r03           2233 	ld	bc,#_alphabet + 717
   132C AF                 2234 	xor	a, a
   132D 02                 2235 	ld	(bc),a
   132E 01rD6r03           2236 	ld	bc,#_alphabet + 718
   1331 AF                 2237 	xor	a, a
   1332 02                 2238 	ld	(bc),a
   1333 01rD7r03           2239 	ld	bc,#_alphabet + 719
   1336 AF                 2240 	xor	a, a
   1337 02                 2241 	ld	(bc),a
   1338 01rD8r03           2242 	ld	bc,#_alphabet + 720
   133B AF                 2243 	xor	a, a
   133C 02                 2244 	ld	(bc),a
   133D 01rD9r03           2245 	ld	bc,#_alphabet + 721
   1340 AF                 2246 	xor	a, a
   1341 02                 2247 	ld	(bc),a
   1342 01rDAr03           2248 	ld	bc,#_alphabet + 722
   1345 AF                 2249 	xor	a, a
   1346 02                 2250 	ld	(bc),a
   1347 01rDBr03           2251 	ld	bc,#_alphabet + 723
   134A AF                 2252 	xor	a, a
   134B 02                 2253 	ld	(bc),a
   134C 01rDCr03           2254 	ld	bc,#_alphabet + 724
   134F AF                 2255 	xor	a, a
   1350 02                 2256 	ld	(bc),a
   1351 01rDDr03           2257 	ld	bc,#_alphabet + 725
   1354 AF                 2258 	xor	a, a
   1355 02                 2259 	ld	(bc),a
   1356 21rDEr03           2260 	ld	hl,#(_alphabet + 0x02d6)
   1359 36 10              2261 	ld	(hl),#0x10
   135B 21rDFr03           2262 	ld	hl,#(_alphabet + 0x02d7)
   135E 36 10              2263 	ld	(hl),#0x10
   1360 01rE0r03           2264 	ld	bc,#_alphabet + 728
   1363 AF                 2265 	xor	a, a
   1364 02                 2266 	ld	(bc),a
   1365 01rE1r03           2267 	ld	bc,#_alphabet + 729
   1368 AF                 2268 	xor	a, a
   1369 02                 2269 	ld	(bc),a
   136A 21rE2r03           2270 	ld	hl,#(_alphabet + 0x02da)
   136D 36 10              2271 	ld	(hl),#0x10
   136F 21rE3r03           2272 	ld	hl,#(_alphabet + 0x02db)
   1372 36 10              2273 	ld	(hl),#0x10
   1374 01rE4r03           2274 	ld	bc,#_alphabet + 732
   1377 AF                 2275 	xor	a, a
   1378 02                 2276 	ld	(bc),a
   1379 01rE5r03           2277 	ld	bc,#_alphabet + 733
   137C AF                 2278 	xor	a, a
   137D 02                 2279 	ld	(bc),a
   137E 01rE6r03           2280 	ld	bc,#_alphabet + 734
   1381 AF                 2281 	xor	a, a
   1382 02                 2282 	ld	(bc),a
   1383 01rE7r03           2283 	ld	bc,#_alphabet + 735
   1386 AF                 2284 	xor	a, a
   1387 02                 2285 	ld	(bc),a
                           2286 ;main.c:305: unsigned char arrow_tile[] =
   1388 21rE8r03           2287 	ld	hl,#_arrow_tile
   138B 36 00              2288 	ld	(hl),#0x00
   138D 01rE9r03           2289 	ld	bc,#_arrow_tile + 1
   1390 AF                 2290 	xor	a, a
   1391 02                 2291 	ld	(bc),a
   1392 01rEAr03           2292 	ld	bc,#_arrow_tile + 2
   1395 AF                 2293 	xor	a, a
   1396 02                 2294 	ld	(bc),a
   1397 01rEBr03           2295 	ld	bc,#_arrow_tile + 3
   139A AF                 2296 	xor	a, a
   139B 02                 2297 	ld	(bc),a
   139C 01rECr03           2298 	ld	bc,#_arrow_tile + 4
   139F AF                 2299 	xor	a, a
   13A0 02                 2300 	ld	(bc),a
   13A1 01rEDr03           2301 	ld	bc,#_arrow_tile + 5
   13A4 AF                 2302 	xor	a, a
   13A5 02                 2303 	ld	(bc),a
   13A6 01rEEr03           2304 	ld	bc,#_arrow_tile + 6
   13A9 AF                 2305 	xor	a, a
   13AA 02                 2306 	ld	(bc),a
   13AB 21rEFr03           2307 	ld	hl,#(_arrow_tile + 0x0007)
   13AE 36 7E              2308 	ld	(hl),#0x7E
   13B0 21rF0r03           2309 	ld	hl,#(_arrow_tile + 0x0008)
   13B3 36 7E              2310 	ld	(hl),#0x7E
   13B5 21rF1r03           2311 	ld	hl,#(_arrow_tile + 0x0009)
   13B8 36 7E              2312 	ld	(hl),#0x7E
   13BA 21rF2r03           2313 	ld	hl,#(_arrow_tile + 0x000a)
   13BD 36 7E              2314 	ld	(hl),#0x7E
   13BF 21rF3r03           2315 	ld	hl,#(_arrow_tile + 0x000b)
   13C2 36 7E              2316 	ld	(hl),#0x7E
   13C4 21rF4r03           2317 	ld	hl,#(_arrow_tile + 0x000c)
   13C7 36 3C              2318 	ld	(hl),#0x3C
   13C9 21rF5r03           2319 	ld	hl,#(_arrow_tile + 0x000d)
   13CC 36 3C              2320 	ld	(hl),#0x3C
   13CE 21rF6r03           2321 	ld	hl,#(_arrow_tile + 0x000e)
   13D1 36 18              2322 	ld	(hl),#0x18
   13D3 21rF7r03           2323 	ld	hl,#(_arrow_tile + 0x000f)
   13D6 36 18              2324 	ld	(hl),#0x18
   13D8 01rF8r03           2325 	ld	bc,#_arrow_tile + 16
   13DB AF                 2326 	xor	a, a
   13DC 02                 2327 	ld	(bc),a
   13DD 01rF9r03           2328 	ld	bc,#_arrow_tile + 17
   13E0 AF                 2329 	xor	a, a
   13E1 02                 2330 	ld	(bc),a
   13E2 01rFAr03           2331 	ld	bc,#_arrow_tile + 18
   13E5 AF                 2332 	xor	a, a
   13E6 02                 2333 	ld	(bc),a
   13E7 01rFBr03           2334 	ld	bc,#_arrow_tile + 19
   13EA AF                 2335 	xor	a, a
   13EB 02                 2336 	ld	(bc),a
   13EC 01rFCr03           2337 	ld	bc,#_arrow_tile + 20
   13EF AF                 2338 	xor	a, a
   13F0 02                 2339 	ld	(bc),a
   13F1 21rFDr03           2340 	ld	hl,#(_arrow_tile + 0x0015)
   13F4 36 7E              2341 	ld	(hl),#0x7E
   13F6 21rFEr03           2342 	ld	hl,#(_arrow_tile + 0x0016)
   13F9 36 7E              2343 	ld	(hl),#0x7E
   13FB 21rFFr03           2344 	ld	hl,#(_arrow_tile + 0x0017)
   13FE 36 7E              2345 	ld	(hl),#0x7E
   1400 21r00r04           2346 	ld	hl,#(_arrow_tile + 0x0018)
   1403 36 7E              2347 	ld	(hl),#0x7E
   1405 21r01r04           2348 	ld	hl,#(_arrow_tile + 0x0019)
   1408 36 7E              2349 	ld	(hl),#0x7E
   140A 21r02r04           2350 	ld	hl,#(_arrow_tile + 0x001a)
   140D 36 3C              2351 	ld	(hl),#0x3C
   140F 21r03r04           2352 	ld	hl,#(_arrow_tile + 0x001b)
   1412 36 3C              2353 	ld	(hl),#0x3C
   1414 21r04r04           2354 	ld	hl,#(_arrow_tile + 0x001c)
   1417 36 18              2355 	ld	(hl),#0x18
   1419 21r05r04           2356 	ld	hl,#(_arrow_tile + 0x001d)
   141C 36 18              2357 	ld	(hl),#0x18
   141E 01r06r04           2358 	ld	bc,#_arrow_tile + 30
   1421 AF                 2359 	xor	a, a
   1422 02                 2360 	ld	(bc),a
   1423 01r07r04           2361 	ld	bc,#_arrow_tile + 31
   1426 AF                 2362 	xor	a, a
   1427 02                 2363 	ld	(bc),a
                           2364 ;main.c:315: unsigned char text_map[] =
   1428 21r08r04           2365 	ld	hl,#_text_map
   142B 36 16              2366 	ld	(hl),#0x16
   142D 21r09r04           2367 	ld	hl,#(_text_map + 0x0001)
   1430 36 17              2368 	ld	(hl),#0x17
   1432 21r0Ar04           2369 	ld	hl,#(_text_map + 0x0002)
   1435 36 29              2370 	ld	(hl),#0x29
   1437 21r0Br04           2371 	ld	hl,#(_text_map + 0x0003)
   143A 36 04              2372 	ld	(hl),#0x04
   143C 21r0Cr04           2373 	ld	hl,#(_text_map + 0x0004)
   143F 36 04              2374 	ld	(hl),#0x04
   1441 21r0Dr04           2375 	ld	hl,#(_text_map + 0x0005)
   1444 36 04              2376 	ld	(hl),#0x04
   1446 21r0Er04           2377 	ld	hl,#(_text_map + 0x0006)
   1449 36 04              2378 	ld	(hl),#0x04
   144B 21r0Fr04           2379 	ld	hl,#(_text_map + 0x0007)
   144E 36 04              2380 	ld	(hl),#0x04
   1450 21r10r04           2381 	ld	hl,#(_text_map + 0x0008)
   1453 36 04              2382 	ld	(hl),#0x04
   1455 21r11r04           2383 	ld	hl,#(_text_map + 0x0009)
   1458 36 04              2384 	ld	(hl),#0x04
   145A 21r12r04           2385 	ld	hl,#(_text_map + 0x000a)
   145D 36 04              2386 	ld	(hl),#0x04
   145F 21r13r04           2387 	ld	hl,#(_text_map + 0x000b)
   1462 36 04              2388 	ld	(hl),#0x04
   1464 21r14r04           2389 	ld	hl,#(_text_map + 0x000c)
   1467 36 04              2390 	ld	(hl),#0x04
   1469 21r15r04           2391 	ld	hl,#(_text_map + 0x000d)
   146C 36 04              2392 	ld	(hl),#0x04
   146E 21r16r04           2393 	ld	hl,#(_text_map + 0x000e)
   1471 36 04              2394 	ld	(hl),#0x04
   1473 21r17r04           2395 	ld	hl,#(_text_map + 0x000f)
   1476 36 04              2396 	ld	(hl),#0x04
   1478 21r18r04           2397 	ld	hl,#(_text_map + 0x0010)
   147B 36 04              2398 	ld	(hl),#0x04
   147D 21r19r04           2399 	ld	hl,#(_text_map + 0x0011)
   1480 36 04              2400 	ld	(hl),#0x04
   1482 21r1Ar04           2401 	ld	hl,#(_text_map + 0x0012)
   1485 36 04              2402 	ld	(hl),#0x04
   1487 21r1Br04           2403 	ld	hl,#(_text_map + 0x0013)
   148A 36 04              2404 	ld	(hl),#0x04
   148C 21r1Cr04           2405 	ld	hl,#(_text_map + 0x0014)
   148F 36 04              2406 	ld	(hl),#0x04
   1491 21r1Dr04           2407 	ld	hl,#(_text_map + 0x0015)
   1494 36 04              2408 	ld	(hl),#0x04
   1496 21r1Er04           2409 	ld	hl,#(_text_map + 0x0016)
   1499 36 04              2410 	ld	(hl),#0x04
   149B 21r1Fr04           2411 	ld	hl,#(_text_map + 0x0017)
   149E 36 04              2412 	ld	(hl),#0x04
   14A0 21r20r04           2413 	ld	hl,#(_text_map + 0x0018)
   14A3 36 04              2414 	ld	(hl),#0x04
   14A5 21r21r04           2415 	ld	hl,#(_text_map + 0x0019)
   14A8 36 04              2416 	ld	(hl),#0x04
   14AA 21r22r04           2417 	ld	hl,#(_text_map + 0x001a)
   14AD 36 04              2418 	ld	(hl),#0x04
   14AF 21r23r04           2419 	ld	hl,#(_text_map + 0x001b)
   14B2 36 04              2420 	ld	(hl),#0x04
   14B4 21r24r04           2421 	ld	hl,#(_text_map + 0x001c)
   14B7 36 04              2422 	ld	(hl),#0x04
   14B9 21r25r04           2423 	ld	hl,#(_text_map + 0x001d)
   14BC 36 04              2424 	ld	(hl),#0x04
   14BE 21r26r04           2425 	ld	hl,#(_text_map + 0x001e)
   14C1 36 04              2426 	ld	(hl),#0x04
   14C3 21r27r04           2427 	ld	hl,#(_text_map + 0x001f)
   14C6 36 04              2428 	ld	(hl),#0x04
                           2429 ;main.c:334: UINT8 input_seq_ctr = 0;
   14C8 21r38r04           2430 	ld	hl,#_input_seq_ctr
   14CB 36 00              2431 	ld	(hl),#0x00
                           2432 ;--------------------------------------------------------
                           2433 ; Home
                           2434 ;--------------------------------------------------------
                           2435 	.area _HOME
                           2436 	.area _HOME
                           2437 ;--------------------------------------------------------
                           2438 ; code
                           2439 ;--------------------------------------------------------
                           2440 	.area _CODE
                           2441 ;main.c:339: UINT8 divide_UINT8(UINT8 a, UINT8 b)
                           2442 ;	---------------------------------
                           2443 ; Function divide_UINT8
                           2444 ; ---------------------------------
   0000                    2445 _divide_UINT8::
                           2446 ;main.c:343: while (a >= b) {
   0000 06 00              2447 	ld	b,#0x00
   0002                    2448 00101$:
   0002 F8 02              2449 	ldhl	sp,#2
   0004 2A                 2450 	ld	a,(hl+)
   0005 96                 2451 	sub	a, (hl)
   0006 38 08              2452 	jr	C,00103$
                           2453 ;main.c:344: a -= b;
   0008 2B                 2454 	dec	hl
   0009 2A                 2455 	ld	a,(hl+)
   000A 96                 2456 	sub	a, (hl)
   000B 2B                 2457 	dec	hl
   000C 77                 2458 	ld	(hl),a
                           2459 ;main.c:345: result++;
   000D 04                 2460 	inc	b
   000E 18 F2              2461 	jr	00101$
   0010                    2462 00103$:
                           2463 ;main.c:347: return result;
   0010 58                 2464 	ld	e,b
   0011 C9                 2465 	ret
   0012                    2466 _girl_tiles:
   0012 00                 2467 	.db #0x00	; 0
   0013 00                 2468 	.db #0x00	; 0
   0014 00                 2469 	.db #0x00	; 0
   0015 00                 2470 	.db #0x00	; 0
   0016 00                 2471 	.db #0x00	; 0
   0017 00                 2472 	.db #0x00	; 0
   0018 01                 2473 	.db #0x01	; 1
   0019 01                 2474 	.db #0x01	; 1
   001A 03                 2475 	.db #0x03	; 3
   001B 03                 2476 	.db #0x03	; 3
   001C 02                 2477 	.db #0x02	; 2
   001D 03                 2478 	.db #0x03	; 3
   001E 02                 2479 	.db #0x02	; 2
   001F 03                 2480 	.db #0x03	; 3
   0020 02                 2481 	.db #0x02	; 2
   0021 03                 2482 	.db #0x03	; 3
   0022 02                 2483 	.db #0x02	; 2
   0023 03                 2484 	.db #0x03	; 3
   0024 03                 2485 	.db #0x03	; 3
   0025 02                 2486 	.db #0x02	; 2
   0026 02                 2487 	.db #0x02	; 2
   0027 03                 2488 	.db #0x03	; 3
   0028 01                 2489 	.db #0x01	; 1
   0029 01                 2490 	.db #0x01	; 1
   002A 00                 2491 	.db #0x00	; 0
   002B 00                 2492 	.db #0x00	; 0
   002C 00                 2493 	.db #0x00	; 0
   002D 00                 2494 	.db #0x00	; 0
   002E 00                 2495 	.db #0x00	; 0
   002F 00                 2496 	.db #0x00	; 0
   0030 00                 2497 	.db #0x00	; 0
   0031 00                 2498 	.db #0x00	; 0
   0032 1F                 2499 	.db #0x1F	; 31
   0033 1F                 2500 	.db #0x1F	; 31
   0034 70                 2501 	.db #0x70	; 112	'p'
   0035 7F                 2502 	.db #0x7F	; 127
   0036 C0                 2503 	.db #0xC0	; 192
   0037 FF                 2504 	.db #0xFF	; 255
   0038 80                 2505 	.db #0x80	; 128
   0039 FF                 2506 	.db #0xFF	; 255
   003A 40                 2507 	.db #0x40	; 64
   003B BF                 2508 	.db #0xBF	; 191
   003C D0                 2509 	.db #0xD0	; 208
   003D 3F                 2510 	.db #0x3F	; 63
   003E 89                 2511 	.db #0x89	; 137
   003F 7F                 2512 	.db #0x7F	; 127
   0040 34                 2513 	.db #0x34	; 52	'4'
   0041 EF                 2514 	.db #0xEF	; 239
   0042 7B                 2515 	.db #0x7B	; 123
   0043 D6                 2516 	.db #0xD6	; 214
   0044 5F                 2517 	.db #0x5F	; 95
   0045 CF                 2518 	.db #0xCF	; 207
   0046 47                 2519 	.db #0x47	; 71	'G'
   0047 C0                 2520 	.db #0xC0	; 192
   0048 40                 2521 	.db #0x40	; 64
   0049 C0                 2522 	.db #0xC0	; 192
   004A D8                 2523 	.db #0xD8	; 216
   004B D8                 2524 	.db #0xD8	; 216
   004C 64                 2525 	.db #0x64	; 100	'd'
   004D 64                 2526 	.db #0x64	; 100	'd'
   004E 38                 2527 	.db #0x38	; 56	'8'
   004F 20                 2528 	.db #0x20	; 32
   0050 70                 2529 	.db #0x70	; 112	'p'
   0051 71                 2530 	.db #0x71	; 113	'q'
   0052 00                 2531 	.db #0x00	; 0
   0053 00                 2532 	.db #0x00	; 0
   0054 01                 2533 	.db #0x01	; 1
   0055 01                 2534 	.db #0x01	; 1
   0056 02                 2535 	.db #0x02	; 2
   0057 02                 2536 	.db #0x02	; 2
   0058 05                 2537 	.db #0x05	; 5
   0059 04                 2538 	.db #0x04	; 4
   005A 02                 2539 	.db #0x02	; 2
   005B 02                 2540 	.db #0x02	; 2
   005C 01                 2541 	.db #0x01	; 1
   005D 01                 2542 	.db #0x01	; 1
   005E 03                 2543 	.db #0x03	; 3
   005F 02                 2544 	.db #0x02	; 2
   0060 02                 2545 	.db #0x02	; 2
   0061 02                 2546 	.db #0x02	; 2
   0062 04                 2547 	.db #0x04	; 4
   0063 04                 2548 	.db #0x04	; 4
   0064 04                 2549 	.db #0x04	; 4
   0065 04                 2550 	.db #0x04	; 4
   0066 07                 2551 	.db #0x07	; 7
   0067 04                 2552 	.db #0x04	; 4
   0068 03                 2553 	.db #0x03	; 3
   0069 03                 2554 	.db #0x03	; 3
   006A 00                 2555 	.db #0x00	; 0
   006B 00                 2556 	.db #0x00	; 0
   006C 00                 2557 	.db #0x00	; 0
   006D 00                 2558 	.db #0x00	; 0
   006E 00                 2559 	.db #0x00	; 0
   006F 00                 2560 	.db #0x00	; 0
   0070 00                 2561 	.db #0x00	; 0
   0071 00                 2562 	.db #0x00	; 0
   0072 8F                 2563 	.db #0x8F	; 143
   0073 8F                 2564 	.db #0x8F	; 143
   0074 00                 2565 	.db #0x00	; 0
   0075 05                 2566 	.db #0x05	; 5
   0076 80                 2567 	.db #0x80	; 128
   0077 07                 2568 	.db #0x07	; 7
   0078 40                 2569 	.db #0x40	; 64
   0079 05                 2570 	.db #0x05	; 5
   007A A0                 2571 	.db #0xA0	; 160
   007B 00                 2572 	.db #0x00	; 0
   007C 50                 2573 	.db #0x50	; 80	'P'
   007D 00                 2574 	.db #0x00	; 0
   007E F8                 2575 	.db #0xF8	; 248
   007F F8                 2576 	.db #0xF8	; 248
   0080 FF                 2577 	.db #0xFF	; 255
   0081 47                 2578 	.db #0x47	; 71	'G'
   0082 7F                 2579 	.db #0x7F	; 127
   0083 42                 2580 	.db #0x42	; 66	'B'
   0084 7F                 2581 	.db #0x7F	; 127
   0085 7F                 2582 	.db #0x7F	; 127
   0086 AA                 2583 	.db #0xAA	; 170
   0087 B7                 2584 	.db #0xB7	; 183
   0088 AA                 2585 	.db #0xAA	; 170
   0089 B5                 2586 	.db #0xB5	; 181
   008A 3F                 2587 	.db #0x3F	; 63
   008B 3F                 2588 	.db #0x3F	; 63
   008C 12                 2589 	.db #0x12	; 18
   008D 12                 2590 	.db #0x12	; 18
   008E 12                 2591 	.db #0x12	; 18
   008F 12                 2592 	.db #0x12	; 18
   0090 3E                 2593 	.db #0x3E	; 62
   0091 3E                 2594 	.db #0x3E	; 62
   0092 F0                 2595 	.db #0xF0	; 240
   0093 F0                 2596 	.db #0xF0	; 240
   0094 1C                 2597 	.db #0x1C	; 28
   0095 FC                 2598 	.db #0xFC	; 252
   0096 26                 2599 	.db #0x26	; 38
   0097 DE                 2600 	.db #0xDE	; 222
   0098 1B                 2601 	.db #0x1B	; 27
   0099 E7                 2602 	.db #0xE7	; 231
   009A 09                 2603 	.db #0x09	; 9
   009B F7                 2604 	.db #0xF7	; 247
   009C 05                 2605 	.db #0x05	; 5
   009D FB                 2606 	.db #0xFB	; 251
   009E 00                 2607 	.db #0x00	; 0
   009F FF                 2608 	.db #0xFF	; 255
   00A0 80                 2609 	.db #0x80	; 128
   00A1 FF                 2610 	.db #0xFF	; 255
   00A2 49                 2611 	.db #0x49	; 73	'I'
   00A3 FE                 2612 	.db #0xFE	; 254
   00A4 B5                 2613 	.db #0xB5	; 181
   00A5 6E                 2614 	.db #0x6E	; 110	'n'
   00A6 FD                 2615 	.db #0xFD	; 253
   00A7 FF                 2616 	.db #0xFF	; 255
   00A8 7F                 2617 	.db #0x7F	; 127
   00A9 07                 2618 	.db #0x07	; 7
   00AA 36                 2619 	.db #0x36	; 54	'6'
   00AB 36                 2620 	.db #0x36	; 54	'6'
   00AC 4C                 2621 	.db #0x4C	; 76	'L'
   00AD 4C                 2622 	.db #0x4C	; 76	'L'
   00AE 38                 2623 	.db #0x38	; 56	'8'
   00AF 08                 2624 	.db #0x08	; 8
   00B0 1C                 2625 	.db #0x1C	; 28
   00B1 1C                 2626 	.db #0x1C	; 28
   00B2 00                 2627 	.db #0x00	; 0
   00B3 00                 2628 	.db #0x00	; 0
   00B4 00                 2629 	.db #0x00	; 0
   00B5 00                 2630 	.db #0x00	; 0
   00B6 00                 2631 	.db #0x00	; 0
   00B7 00                 2632 	.db #0x00	; 0
   00B8 00                 2633 	.db #0x00	; 0
   00B9 00                 2634 	.db #0x00	; 0
   00BA 00                 2635 	.db #0x00	; 0
   00BB 00                 2636 	.db #0x00	; 0
   00BC 80                 2637 	.db #0x80	; 128
   00BD 80                 2638 	.db #0x80	; 128
   00BE 80                 2639 	.db #0x80	; 128
   00BF 80                 2640 	.db #0x80	; 128
   00C0 80                 2641 	.db #0x80	; 128
   00C1 80                 2642 	.db #0x80	; 128
   00C2 80                 2643 	.db #0x80	; 128
   00C3 80                 2644 	.db #0x80	; 128
   00C4 80                 2645 	.db #0x80	; 128
   00C5 80                 2646 	.db #0x80	; 128
   00C6 00                 2647 	.db #0x00	; 0
   00C7 00                 2648 	.db #0x00	; 0
   00C8 00                 2649 	.db #0x00	; 0
   00C9 00                 2650 	.db #0x00	; 0
   00CA 00                 2651 	.db #0x00	; 0
   00CB 00                 2652 	.db #0x00	; 0
   00CC 00                 2653 	.db #0x00	; 0
   00CD 00                 2654 	.db #0x00	; 0
   00CE 00                 2655 	.db #0x00	; 0
   00CF 00                 2656 	.db #0x00	; 0
   00D0 00                 2657 	.db #0x00	; 0
   00D1 00                 2658 	.db #0x00	; 0
   00D2 E2                 2659 	.db #0xE2	; 226
   00D3 E2                 2660 	.db #0xE2	; 226
   00D4 01                 2661 	.db #0x01	; 1
   00D5 41                 2662 	.db #0x41	; 65	'A'
   00D6 02                 2663 	.db #0x02	; 2
   00D7 40                 2664 	.db #0x40	; 64
   00D8 05                 2665 	.db #0x05	; 5
   00D9 40                 2666 	.db #0x40	; 64
   00DA 0A                 2667 	.db #0x0A	; 10
   00DB 00                 2668 	.db #0x00	; 0
   00DC 15                 2669 	.db #0x15	; 21
   00DD 01                 2670 	.db #0x01	; 1
   00DE 3F                 2671 	.db #0x3F	; 63
   00DF 3E                 2672 	.db #0x3E	; 62
   00E0 FE                 2673 	.db #0xFE	; 254
   00E1 C4                 2674 	.db #0xC4	; 196
   00E2 FC                 2675 	.db #0xFC	; 252
   00E3 84                 2676 	.db #0x84	; 132
   00E4 FC                 2677 	.db #0xFC	; 252
   00E5 FC                 2678 	.db #0xFC	; 252
   00E6 AB                 2679 	.db #0xAB	; 171
   00E7 DA                 2680 	.db #0xDA	; 218
   00E8 AB                 2681 	.db #0xAB	; 171
   00E9 5B                 2682 	.db #0x5B	; 91
   00EA F8                 2683 	.db #0xF8	; 248
   00EB F8                 2684 	.db #0xF8	; 248
   00EC 90                 2685 	.db #0x90	; 144
   00ED 90                 2686 	.db #0x90	; 144
   00EE 90                 2687 	.db #0x90	; 144
   00EF 90                 2688 	.db #0x90	; 144
   00F0 F8                 2689 	.db #0xF8	; 248
   00F1 F8                 2690 	.db #0xF8	; 248
   00F2 00                 2691 	.db #0x00	; 0
   00F3 00                 2692 	.db #0x00	; 0
   00F4 00                 2693 	.db #0x00	; 0
   00F5 00                 2694 	.db #0x00	; 0
   00F6 80                 2695 	.db #0x80	; 128
   00F7 80                 2696 	.db #0x80	; 128
   00F8 40                 2697 	.db #0x40	; 64
   00F9 40                 2698 	.db #0x40	; 64
   00FA 80                 2699 	.db #0x80	; 128
   00FB 80                 2700 	.db #0x80	; 128
   00FC 00                 2701 	.db #0x00	; 0
   00FD 00                 2702 	.db #0x00	; 0
   00FE 80                 2703 	.db #0x80	; 128
   00FF 80                 2704 	.db #0x80	; 128
   0100 80                 2705 	.db #0x80	; 128
   0101 80                 2706 	.db #0x80	; 128
   0102 40                 2707 	.db #0x40	; 64
   0103 40                 2708 	.db #0x40	; 64
   0104 40                 2709 	.db #0x40	; 64
   0105 40                 2710 	.db #0x40	; 64
   0106 C0                 2711 	.db #0xC0	; 192
   0107 40                 2712 	.db #0x40	; 64
   0108 80                 2713 	.db #0x80	; 128
   0109 80                 2714 	.db #0x80	; 128
   010A 00                 2715 	.db #0x00	; 0
   010B 00                 2716 	.db #0x00	; 0
   010C 00                 2717 	.db #0x00	; 0
   010D 00                 2718 	.db #0x00	; 0
   010E 00                 2719 	.db #0x00	; 0
   010F 00                 2720 	.db #0x00	; 0
   0110 00                 2721 	.db #0x00	; 0
   0111 00                 2722 	.db #0x00	; 0
   0112                    2723 _solution_seq:
   0112 08                 2724 	.db #0x08	; 8
   0113 02                 2725 	.db #0x02	; 2
   0114 10                 2726 	.db #0x10	; 16
   0115 04                 2727 	.db #0x04	; 4
   0116 20                 2728 	.db #0x20	; 32
   0117 10                 2729 	.db #0x10	; 16
   0118 04                 2730 	.db #0x04	; 4
   0119 08                 2731 	.db #0x08	; 8
   011A 08                 2732 	.db #0x08	; 8
   011B 10                 2733 	.db #0x10	; 16
   011C 04                 2734 	.db #0x04	; 4
   011D 01                 2735 	.db #0x01	; 1
   011E 02                 2736 	.db #0x02	; 2
   011F 01                 2737 	.db #0x01	; 1
   0120 20                 2738 	.db #0x20	; 32
   0121 08                 2739 	.db #0x08	; 8
                           2740 ;main.c:358: void set_text_map(char *text, UINT8 len)
                           2741 ;	---------------------------------
                           2742 ; Function set_text_map
                           2743 ; ---------------------------------
   0122                    2744 _set_text_map::
   0122 E8 FB              2745 	add	sp, #-5
                           2746 ;main.c:367: memset(text_map, EMPTY_TILE_ADDR, text_map_width*text_map_height);
   0124 11r08r04           2747 	ld	de,#_text_map
   0127 21 20 00           2748 	ld	hl,#0x0020
   012A E5                 2749 	push	hl
   012B 2E 24              2750 	ld	l, #0x24
   012D E5                 2751 	push	hl
   012E D5                 2752 	push	de
   012F CDr00r00           2753 	call	_memset
   0132 E8 06              2754 	add	sp, #6
                           2755 ;main.c:370: if (!text || len > 0x20U || len <= 0x0U) {
   0134 F8 08              2756 	ldhl	sp,#8
   0136 3A                 2757 	ld	a,(hl-)
   0137 B6                 2758 	or	a,(hl)
   0138 CAr85r02           2759 	jp	Z,00141$
   013B 23                 2760 	inc	hl
   013C 23                 2761 	inc	hl
   013D 46                 2762 	ld	b,(hl)
   013E 0E 00              2763 	ld	c,#0x00
   0140 3E 20              2764 	ld	a,#0x20
   0142 B8                 2765 	cp	a, b
   0143 3E 00              2766 	ld	a,#0x00
   0145 99                 2767 	sbc	a, c
   0146 DAr85r02           2768 	jp	C,00141$
   0149 7E                 2769 	ld	a,(hl)
   014A B7                 2770 	or	a, a
                           2771 ;main.c:371: return;
                           2772 ;main.c:377: for (i = 0; i < len; ++i) {
   014B CAr85r02           2773 	jp	Z,00141$
   014E F8 00              2774 	ldhl	sp,#0
   0150 36 00              2775 	ld	(hl),#0x00
   0152                    2776 00139$:
   0152 F8 00              2777 	ldhl	sp,#0
   0154 7E                 2778 	ld	a,(hl)
   0155 F8 09              2779 	ldhl	sp,#9
   0157 96                 2780 	sub	a, (hl)
   0158 D2r77r02           2781 	jp	NC,00137$
                           2782 ;main.c:379: if (text[i] >= 'A' && text[i] <= 'Z') {
   015B 2B                 2783 	dec	hl
   015C 2B                 2784 	dec	hl
   015D 5E                 2785 	ld	e,(hl)
   015E 23                 2786 	inc	hl
   015F 56                 2787 	ld	d,(hl)
   0160 F8 00              2788 	ldhl	sp,#0
   0162 6E                 2789 	ld	l,(hl)
   0163 26 00              2790 	ld	h,#0x00
   0165 19                 2791 	add	hl,de
   0166 7D                 2792 	ld	a,l
   0167 54                 2793 	ld	d,h
   0168 F8 03              2794 	ldhl	sp,#3
   016A 22                 2795 	ld	(hl+),a
   016B 72                 2796 	ld	(hl),d
   016C 2B                 2797 	dec	hl
   016D 5E                 2798 	ld	e,(hl)
   016E 23                 2799 	inc	hl
   016F 56                 2800 	ld	d,(hl)
   0170 1A                 2801 	ld	a,(de)
   0171 47                 2802 	ld	b,a
                           2803 ;main.c:380: text_map[i] = text[i] - 'A' + 0xAU; // eg. character A - ascii value of A + index of A in VRAM
   0172 11r08r04           2804 	ld	de,#_text_map
   0175 F8 00              2805 	ldhl	sp,#0
   0177 6E                 2806 	ld	l,(hl)
   0178 26 00              2807 	ld	h,#0x00
   017A 19                 2808 	add	hl,de
   017B 7D                 2809 	ld	a,l
   017C 54                 2810 	ld	d,h
   017D F8 01              2811 	ldhl	sp,#1
   017F 22                 2812 	ld	(hl+),a
   0180 72                 2813 	ld	(hl),d
                           2814 ;main.c:379: if (text[i] >= 'A' && text[i] <= 'Z') {
   0181 3E 41              2815 	ld	a,#0x41
   0183 5F                 2816 	ld	e,a
   0184 78                 2817 	ld	a,b
   0185 57                 2818 	ld	d,a
   0186 78                 2819 	ld	a,b
   0187 EE 80              2820 	xor	a, #0x80
   0189 D6 C1              2821 	sub	a, #0xC1
   018B 38 24              2822 	jr	C,00106$
   018D 78                 2823 	ld	a,b
   018E 5F                 2824 	ld	e,a
   018F 3E 5A              2825 	ld	a,#0x5A
   0191 57                 2826 	ld	d,a
   0192 3E 5A              2827 	ld	a,#0x5A
   0194 90                 2828 	sub	a, b
   0195 CB 7B              2829 	bit	7, e
   0197 28 07              2830 	jr	Z,00212$
   0199 CB 7A              2831 	bit	7, d
   019B 20 08              2832 	jr	NZ,00213$
   019D BF                 2833 	cp	a, a
   019E 18 05              2834 	jr	00213$
   01A0                    2835 00212$:
   01A0 CB 7A              2836 	bit	7, d
   01A2 28 01              2837 	jr	Z,00213$
   01A4 37                 2838 	scf
   01A5                    2839 00213$:
   01A5 38 0A              2840 	jr	C,00106$
                           2841 ;main.c:380: text_map[i] = text[i] - 'A' + 0xAU; // eg. character A - ascii value of A + index of A in VRAM
   01A7 78                 2842 	ld	a,b
   01A8 C6 C9              2843 	add	a, #0xC9
   01AA 47                 2844 	ld	b,a
   01AB F8 01              2845 	ldhl	sp,#1
   01AD 2A                 2846 	ld	a,(hl+)
   01AE 66                 2847 	ld	h,(hl)
   01AF 6F                 2848 	ld	l,a
   01B0 70                 2849 	ld	(hl),b
   01B1                    2850 00106$:
                           2851 ;main.c:384: if (text[i] >= '0' && text[i] <= '9') {
   01B1 F8 04              2852 	ldhl	sp,#4
   01B3 2B                 2853 	dec	hl
   01B4 5E                 2854 	ld	e,(hl)
   01B5 23                 2855 	inc	hl
   01B6 56                 2856 	ld	d,(hl)
   01B7 1A                 2857 	ld	a,(de)
   01B8 47                 2858 	ld	b,a
   01B9 3E 30              2859 	ld	a,#0x30
   01BB 5F                 2860 	ld	e,a
   01BC 78                 2861 	ld	a,b
   01BD 57                 2862 	ld	d,a
   01BE 78                 2863 	ld	a,b
   01BF EE 80              2864 	xor	a, #0x80
   01C1 D6 B0              2865 	sub	a, #0xB0
   01C3 38 24              2866 	jr	C,00109$
   01C5 78                 2867 	ld	a,b
   01C6 5F                 2868 	ld	e,a
   01C7 3E 39              2869 	ld	a,#0x39
   01C9 57                 2870 	ld	d,a
   01CA 3E 39              2871 	ld	a,#0x39
   01CC 90                 2872 	sub	a, b
   01CD CB 7B              2873 	bit	7, e
   01CF 28 07              2874 	jr	Z,00214$
   01D1 CB 7A              2875 	bit	7, d
   01D3 20 08              2876 	jr	NZ,00215$
   01D5 BF                 2877 	cp	a, a
   01D6 18 05              2878 	jr	00215$
   01D8                    2879 00214$:
   01D8 CB 7A              2880 	bit	7, d
   01DA 28 01              2881 	jr	Z,00215$
   01DC 37                 2882 	scf
   01DD                    2883 00215$:
   01DD 38 0A              2884 	jr	C,00109$
                           2885 ;main.c:385: text_map[i] = text[i] - '0';
   01DF 78                 2886 	ld	a,b
   01E0 C6 D0              2887 	add	a,#0xD0
   01E2 47                 2888 	ld	b,a
   01E3 F8 01              2889 	ldhl	sp,#1
   01E5 2A                 2890 	ld	a,(hl+)
   01E6 66                 2891 	ld	h,(hl)
   01E7 6F                 2892 	ld	l,a
   01E8 70                 2893 	ld	(hl),b
   01E9                    2894 00109$:
                           2895 ;main.c:389: if (text[i] == '~') {
   01E9 F8 04              2896 	ldhl	sp,#4
   01EB 2B                 2897 	dec	hl
   01EC 5E                 2898 	ld	e,(hl)
   01ED 23                 2899 	inc	hl
   01EE 56                 2900 	ld	d,(hl)
   01EF 1A                 2901 	ld	a,(de)
   01F0 47                 2902 	ld	b,a
   01F1 D6 7E              2903 	sub	a, #0x7E
   01F3 20 0A              2904 	jr	NZ,00135$
                           2905 ;main.c:390: text_map[i] = 0x25U;
   01F5 F8 01              2906 	ldhl	sp,#1
   01F7 2A                 2907 	ld	a,(hl+)
   01F8 66                 2908 	ld	h,(hl)
   01F9 6F                 2909 	ld	l,a
   01FA 36 25              2910 	ld	(hl),#0x25
   01FC C3r71r02           2911 	jp	00140$
   01FF                    2912 00135$:
                           2913 ;main.c:391: } else if (text[i] == '_') {
   01FF 78                 2914 	ld	a,b
   0200 D6 5F              2915 	sub	a, #0x5F
   0202 20 0A              2916 	jr	NZ,00132$
                           2917 ;main.c:392: text_map[i] = 0x26U;
   0204 F8 01              2918 	ldhl	sp,#1
   0206 2A                 2919 	ld	a,(hl+)
   0207 66                 2920 	ld	h,(hl)
   0208 6F                 2921 	ld	l,a
   0209 36 26              2922 	ld	(hl),#0x26
   020B C3r71r02           2923 	jp	00140$
   020E                    2924 00132$:
                           2925 ;main.c:393: } else if (text[i] == '!') {
   020E 78                 2926 	ld	a,b
   020F D6 21              2927 	sub	a, #0x21
   0211 20 0A              2928 	jr	NZ,00129$
                           2929 ;main.c:394: text_map[i] = 0x27U;
   0213 F8 01              2930 	ldhl	sp,#1
   0215 2A                 2931 	ld	a,(hl+)
   0216 66                 2932 	ld	h,(hl)
   0217 6F                 2933 	ld	l,a
   0218 36 27              2934 	ld	(hl),#0x27
   021A C3r71r02           2935 	jp	00140$
   021D                    2936 00129$:
                           2937 ;main.c:395: } else if (text[i] == '?') {
   021D 78                 2938 	ld	a,b
   021E D6 3F              2939 	sub	a, #0x3F
   0220 20 0A              2940 	jr	NZ,00126$
                           2941 ;main.c:396: text_map[i] = 0x28U;
   0222 F8 01              2942 	ldhl	sp,#1
   0224 2A                 2943 	ld	a,(hl+)
   0225 66                 2944 	ld	h,(hl)
   0226 6F                 2945 	ld	l,a
   0227 36 28              2946 	ld	(hl),#0x28
   0229 C3r71r02           2947 	jp	00140$
   022C                    2948 00126$:
                           2949 ;main.c:397: } else if (text[i] == '\'') {
   022C 78                 2950 	ld	a,b
   022D D6 27              2951 	sub	a, #0x27
   022F 20 0A              2952 	jr	NZ,00123$
                           2953 ;main.c:398: text_map[i] = 0x29U;
   0231 F8 01              2954 	ldhl	sp,#1
   0233 2A                 2955 	ld	a,(hl+)
   0234 66                 2956 	ld	h,(hl)
   0235 6F                 2957 	ld	l,a
   0236 36 29              2958 	ld	(hl),#0x29
   0238 C3r71r02           2959 	jp	00140$
   023B                    2960 00123$:
                           2961 ;main.c:399: } else if (text[i] == '.') {
   023B 78                 2962 	ld	a,b
   023C D6 2E              2963 	sub	a, #0x2E
   023E 20 09              2964 	jr	NZ,00120$
                           2965 ;main.c:400: text_map[i] = 0x2AU;
   0240 F8 01              2966 	ldhl	sp,#1
   0242 2A                 2967 	ld	a,(hl+)
   0243 66                 2968 	ld	h,(hl)
   0244 6F                 2969 	ld	l,a
   0245 36 2A              2970 	ld	(hl),#0x2A
   0247 18 28              2971 	jr	00140$
   0249                    2972 00120$:
                           2973 ;main.c:401: } else if (text[i] == ',') {
   0249 78                 2974 	ld	a,b
   024A D6 2C              2975 	sub	a, #0x2C
   024C 20 09              2976 	jr	NZ,00117$
                           2977 ;main.c:402: text_map[i] = 0x2BU;
   024E F8 01              2978 	ldhl	sp,#1
   0250 2A                 2979 	ld	a,(hl+)
   0251 66                 2980 	ld	h,(hl)
   0252 6F                 2981 	ld	l,a
   0253 36 2B              2982 	ld	(hl),#0x2B
   0255 18 1A              2983 	jr	00140$
   0257                    2984 00117$:
                           2985 ;main.c:403: } else if (text[i] == '') {
   0257 78                 2986 	ld	a,b
   0258 D6 E2              2987 	sub	a, #0xE2
   025A 20 09              2988 	jr	NZ,00114$
                           2989 ;main.c:404: text_map[i] = 0x2CU;
   025C F8 01              2990 	ldhl	sp,#1
   025E 2A                 2991 	ld	a,(hl+)
   025F 66                 2992 	ld	h,(hl)
   0260 6F                 2993 	ld	l,a
   0261 36 2C              2994 	ld	(hl),#0x2C
   0263 18 0C              2995 	jr	00140$
   0265                    2996 00114$:
                           2997 ;main.c:405: } else if (text[i] == ':') {
   0265 78                 2998 	ld	a,b
   0266 D6 3A              2999 	sub	a, #0x3A
   0268 20 07              3000 	jr	NZ,00140$
                           3001 ;main.c:406: text_map[i] = 0x2DU;
   026A F8 01              3002 	ldhl	sp,#1
   026C 2A                 3003 	ld	a,(hl+)
   026D 66                 3004 	ld	h,(hl)
   026E 6F                 3005 	ld	l,a
   026F 36 2D              3006 	ld	(hl),#0x2D
   0271                    3007 00140$:
                           3008 ;main.c:377: for (i = 0; i < len; ++i) {
   0271 F8 00              3009 	ldhl	sp,#0
   0273 34                 3010 	inc	(hl)
   0274 C3r52r01           3011 	jp	00139$
   0277                    3012 00137$:
                           3013 ;main.c:411: text_map[len] = arrow_address_1;
   0277 11r08r04           3014 	ld	de,#_text_map
   027A F8 09              3015 	ldhl	sp,#9
   027C 6E                 3016 	ld	l,(hl)
   027D 26 00              3017 	ld	h,#0x00
   027F 19                 3018 	add	hl,de
   0280 4D                 3019 	ld	c,l
   0281 44                 3020 	ld	b,h
   0282 3E 2E              3021 	ld	a,#0x2E
   0284 02                 3022 	ld	(bc),a
   0285                    3023 00141$:
   0285 E8 05              3024 	add	sp, #5
   0287 C9                 3025 	ret
                           3026 ;main.c:416: void clear_window()
                           3027 ;	---------------------------------
                           3028 ; Function clear_window
                           3029 ; ---------------------------------
   0288                    3030 _clear_window::
                           3031 ;main.c:419: memset(text_map, EMPTY_TILE_ADDR, text_map_width * text_map_height);
   0288 11r08r04           3032 	ld	de,#_text_map
   028B 21 20 00           3033 	ld	hl,#0x0020
   028E E5                 3034 	push	hl
   028F 2E 24              3035 	ld	l, #0x24
   0291 E5                 3036 	push	hl
   0292 D5                 3037 	push	de
   0293 CDr00r00           3038 	call	_memset
   0296 E8 06              3039 	add	sp, #6
                           3040 ;main.c:420: set_win_tiles(0x2U, 0x2U, text_map_width, text_map_height, text_map);
   0298 11r08r04           3041 	ld	de,#_text_map
   029B D5                 3042 	push	de
   029C 21 10 02           3043 	ld	hl,#0x0210
   029F E5                 3044 	push	hl
   02A0 2E 02              3045 	ld	l, #0x02
   02A2 E5                 3046 	push	hl
   02A3 CDr00r00           3047 	call	_set_win_tiles
   02A6 E8 06              3048 	add	sp, #6
   02A8 C9                 3049 	ret
                           3050 ;main.c:423: void show_text(char *text)
                           3051 ;	---------------------------------
                           3052 ; Function show_text
                           3053 ; ---------------------------------
   02A9                    3054 _show_text::
   02A9 E8 FD              3055 	add	sp, #-3
                           3056 ;main.c:426: UINT8 cursor_state = 0;
   02AB F8 01              3057 	ldhl	sp,#1
   02AD 36 00              3058 	ld	(hl),#0x00
                           3059 ;main.c:427: UINT8 text_len = strlen(text);
   02AF F8 05              3060 	ldhl	sp,#5
   02B1 2A                 3061 	ld	a,(hl+)
   02B2 66                 3062 	ld	h,(hl)
   02B3 6F                 3063 	ld	l,a
   02B4 E5                 3064 	push	hl
   02B5 CDr00r00           3065 	call	_strlen
   02B8 E8 02              3066 	add	sp, #2
   02BA 43                 3067 	ld	b,e
                           3068 ;main.c:428: UINT8 cursor_index = text_len;
   02BB 48                 3069 	ld	c,b
                           3070 ;main.c:430: clear_window();
   02BC C5                 3071 	push	bc
   02BD CDr88r02           3072 	call	_clear_window
   02C0 C1                 3073 	pop	bc
                           3074 ;main.c:431: set_text_map(text, text_len);
   02C1 C5                 3075 	push	bc
   02C2 C5                 3076 	push	bc
   02C3 33                 3077 	inc	sp
   02C4 F8 08              3078 	ldhl	sp,#8
   02C6 2A                 3079 	ld	a,(hl+)
   02C7 66                 3080 	ld	h,(hl)
   02C8 6F                 3081 	ld	l,a
   02C9 E5                 3082 	push	hl
   02CA CDr22r01           3083 	call	_set_text_map
   02CD E8 03              3084 	add	sp, #3
   02CF C1                 3085 	pop	bc
                           3086 ;main.c:434: text_len++;
   02D0 04                 3087 	inc	b
                           3088 ;main.c:435: scroll_text(text_len);
   02D1 C5                 3089 	push	bc
   02D2 C5                 3090 	push	bc
   02D3 33                 3091 	inc	sp
   02D4 CDr52r03           3092 	call	_scroll_text
   02D7 33                 3093 	inc	sp
   02D8 C1                 3094 	pop	bc
                           3095 ;main.c:439: x = 2 + (cursor_index % 16);
   02D9 79                 3096 	ld	a,c
   02DA E6 0F              3097 	and	a, #0x0F
   02DC C6 02              3098 	add	a, #0x02
   02DE F8 00              3099 	ldhl	sp,#0
   02E0 77                 3100 	ld	(hl),a
                           3101 ;main.c:441: y = 2 + divide_UINT8(cursor_index, 16);
   02E1 C5                 3102 	push	bc
   02E2 3E 10              3103 	ld	a,#0x10
   02E4 F5                 3104 	push	af
   02E5 33                 3105 	inc	sp
   02E6 79                 3106 	ld	a,c
   02E7 F5                 3107 	push	af
   02E8 33                 3108 	inc	sp
   02E9 CDr00r00           3109 	call	_divide_UINT8
   02EC E8 02              3110 	add	sp, #2
   02EE 7B                 3111 	ld	a,e
   02EF C1                 3112 	pop	bc
   02F0 C6 02              3113 	add	a, #0x02
   02F2 F8 02              3114 	ldhl	sp,#2
   02F4 77                 3115 	ld	(hl),a
                           3116 ;main.c:443: while (!joypad()) {
   02F5 3Er08              3117 	ld	a,#<(_text_map)
   02F7 81                 3118 	add	a, c
   02F8 4F                 3119 	ld	c,a
   02F9 3Es04              3120 	ld	a,#>(_text_map)
   02FB CE 00              3121 	adc	a, #0x00
   02FD 47                 3122 	ld	b,a
   02FE                    3123 00104$:
   02FE C5                 3124 	push	bc
   02FF CDr00r00           3125 	call	_joypad
   0302 7B                 3126 	ld	a,e
   0303 C1                 3127 	pop	bc
   0304 B7                 3128 	or	a, a
   0305 C2r4Fr03           3129 	jp	NZ,00107$
                           3130 ;main.c:444: if (cursor_state == 0) {
   0308 F8 01              3131 	ldhl	sp,#1
   030A 7E                 3132 	ld	a,(hl)
   030B B7                 3133 	or	a, a
   030C 20 05              3134 	jr	NZ,00102$
                           3135 ;main.c:445: text_map[cursor_index] = arrow_address_2;
   030E 3E 2F              3136 	ld	a,#0x2F
   0310 02                 3137 	ld	(bc),a
   0311 18 03              3138 	jr	00103$
   0313                    3139 00102$:
                           3140 ;main.c:447: text_map[cursor_index] = arrow_address_1;
   0313 3E 2E              3141 	ld	a,#0x2E
   0315 02                 3142 	ld	(bc),a
   0316                    3143 00103$:
                           3144 ;main.c:450: set_win_tiles(x, y, 1, 1, &text_map[cursor_index]);
   0316 59                 3145 	ld	e, c
   0317 50                 3146 	ld	d, b
   0318 C5                 3147 	push	bc
   0319 D5                 3148 	push	de
   031A 21 01 01           3149 	ld	hl,#0x0101
   031D E5                 3150 	push	hl
   031E F8 08              3151 	ldhl	sp,#8
   0320 7E                 3152 	ld	a,(hl)
   0321 F5                 3153 	push	af
   0322 33                 3154 	inc	sp
   0323 2B                 3155 	dec	hl
   0324 2B                 3156 	dec	hl
   0325 7E                 3157 	ld	a,(hl)
   0326 F5                 3158 	push	af
   0327 33                 3159 	inc	sp
   0328 CDr00r00           3160 	call	_set_win_tiles
   032B E8 06              3161 	add	sp, #6
   032D C1                 3162 	pop	bc
                           3163 ;main.c:451: cursor_state = !cursor_state;
   032E F8 01              3164 	ldhl	sp,#1
   0330 7E                 3165 	ld	a,(hl)
   0331 D6 01              3166 	sub	a,#0x01
   0333 3E 00              3167 	ld	a,#0x00
   0335 17                 3168 	rla
   0336 77                 3169 	ld	(hl),a
                           3170 ;main.c:452: delay(50);
   0337 C5                 3171 	push	bc
   0338 21 32 00           3172 	ld	hl,#0x0032
   033B E5                 3173 	push	hl
   033C CDr00r00           3174 	call	_delay
   033F E8 02              3175 	add	sp, #2
   0341 C1                 3176 	pop	bc
                           3177 ;main.c:453: sleep(4);
   0342 C5                 3178 	push	bc
   0343 3E 04              3179 	ld	a,#0x04
   0345 F5                 3180 	push	af
   0346 33                 3181 	inc	sp
   0347 CDrABr03           3182 	call	_sleep
   034A 33                 3183 	inc	sp
   034B C1                 3184 	pop	bc
   034C C3rFEr02           3185 	jp	00104$
   034F                    3186 00107$:
   034F E8 03              3187 	add	sp, #3
   0351 C9                 3188 	ret
                           3189 ;main.c:462: void scroll_text(UINT8 len)
                           3190 ;	---------------------------------
                           3191 ; Function scroll_text
                           3192 ; ---------------------------------
   0352                    3193 _scroll_text::
   0352 E8 FD              3194 	add	sp, #-3
                           3195 ;main.c:465: for (counter = 0; counter < len; ++counter) {
   0354 06 00              3196 	ld	b,#0x00
   0356                    3197 00103$:
   0356 78                 3198 	ld	a,b
   0357 F8 05              3199 	ldhl	sp,#5
   0359 96                 3200 	sub	a, (hl)
   035A D2rA8r03           3201 	jp	NC,00105$
                           3202 ;main.c:466: x = 2 + (counter % 16);
   035D 78                 3203 	ld	a,b
   035E E6 0F              3204 	and	a, #0x0F
   0360 C6 02              3205 	add	a, #0x02
   0362 F8 00              3206 	ldhl	sp,#0
   0364 77                 3207 	ld	(hl),a
                           3208 ;main.c:467: y = 2 + divide_UINT8(counter, 16);
   0365 C5                 3209 	push	bc
   0366 3E 10              3210 	ld	a,#0x10
   0368 F5                 3211 	push	af
   0369 33                 3212 	inc	sp
   036A C5                 3213 	push	bc
   036B 33                 3214 	inc	sp
   036C CDr00r00           3215 	call	_divide_UINT8
   036F E8 02              3216 	add	sp, #2
   0371 C1                 3217 	pop	bc
   0372 4B                 3218 	ld	c,e
   0373 0C                 3219 	inc	c
   0374 0C                 3220 	inc	c
                           3221 ;main.c:471: set_win_tiles(x, y, 1, 1, &text_map[counter]);
   0375 11r08r04           3222 	ld	de,#_text_map
   0378 68                 3223 	ld	l,b
   0379 26 00              3224 	ld	h,#0x00
   037B 19                 3225 	add	hl,de
   037C 7D                 3226 	ld	a,l
   037D 54                 3227 	ld	d,h
   037E F8 01              3228 	ldhl	sp,#1
   0380 22                 3229 	ld	(hl+),a
   0381 72                 3230 	ld	(hl),d
   0382 2B                 3231 	dec	hl
   0383 5E                 3232 	ld	e,(hl)
   0384 23                 3233 	inc	hl
   0385 56                 3234 	ld	d,(hl)
   0386 C5                 3235 	push	bc
   0387 D5                 3236 	push	de
   0388 21 01 01           3237 	ld	hl,#0x0101
   038B E5                 3238 	push	hl
   038C 79                 3239 	ld	a,c
   038D F5                 3240 	push	af
   038E 33                 3241 	inc	sp
   038F F8 07              3242 	ldhl	sp,#7
   0391 7E                 3243 	ld	a,(hl)
   0392 F5                 3244 	push	af
   0393 33                 3245 	inc	sp
   0394 CDr00r00           3246 	call	_set_win_tiles
   0397 E8 06              3247 	add	sp, #6
   0399 C1                 3248 	pop	bc
                           3249 ;main.c:472: sleep(4);
   039A C5                 3250 	push	bc
   039B 3E 04              3251 	ld	a,#0x04
   039D F5                 3252 	push	af
   039E 33                 3253 	inc	sp
   039F CDrABr03           3254 	call	_sleep
   03A2 33                 3255 	inc	sp
   03A3 C1                 3256 	pop	bc
                           3257 ;main.c:465: for (counter = 0; counter < len; ++counter) {
   03A4 04                 3258 	inc	b
   03A5 C3r56r03           3259 	jp	00103$
   03A8                    3260 00105$:
   03A8 E8 03              3261 	add	sp, #3
   03AA C9                 3262 	ret
                           3263 ;main.c:476: void sleep(UINT8 cycles)
                           3264 ;	---------------------------------
                           3265 ; Function sleep
                           3266 ; ---------------------------------
   03AB                    3267 _sleep::
                           3268 ;main.c:479: for(counter = 0; counter < cycles; ++counter){
   03AB 06 00              3269 	ld	b,#0x00
   03AD                    3270 00103$:
   03AD 78                 3271 	ld	a,b
   03AE F8 02              3272 	ldhl	sp,#2
   03B0 96                 3273 	sub	a, (hl)
   03B1 D0                 3274 	ret	NC
                           3275 ;main.c:480: wait_vbl_done();
   03B2 C5                 3276 	push	bc
   03B3 CDr00r00           3277 	call	_wait_vbl_done
   03B6 C1                 3278 	pop	bc
                           3279 ;main.c:479: for(counter = 0; counter < cycles; ++counter){
   03B7 04                 3280 	inc	b
   03B8 18 F3              3281 	jr	00103$
   03BA C9                 3282 	ret
                           3283 ;main.c:484: void process_button_press()
                           3284 ;	---------------------------------
                           3285 ; Function process_button_press
                           3286 ; ---------------------------------
   03BB                    3287 _process_button_press::
                           3288 ;main.c:486: UINT8 input = joypad();
   03BB CDr00r00           3289 	call	_joypad
   03BE 7B                 3290 	ld	a,e
                           3291 ;main.c:487: if (input) {
   03BF B7                 3292 	or	a, a
   03C0 C8                 3293 	ret	Z
                           3294 ;main.c:488: input_seq[input_seq_ctr] = joypad();
   03C1 3Er28              3295 	ld	a,#<(_input_seq)
   03C3 21r38r04           3296 	ld	hl,#_input_seq_ctr
   03C6 86                 3297 	add	a, (hl)
   03C7 4F                 3298 	ld	c,a
   03C8 3Es04              3299 	ld	a,#>(_input_seq)
   03CA CE 00              3300 	adc	a, #0x00
   03CC 47                 3301 	ld	b,a
   03CD C5                 3302 	push	bc
   03CE CDr00r00           3303 	call	_joypad
   03D1 7B                 3304 	ld	a,e
   03D2 C1                 3305 	pop	bc
   03D3 02                 3306 	ld	(bc),a
                           3307 ;main.c:490: input_seq_ctr++;
   03D4 21r38r04           3308 	ld	hl,#_input_seq_ctr
   03D7 34                 3309 	inc	(hl)
                           3310 ;main.c:494: delay(50);
   03D8 21 32 00           3311 	ld	hl,#0x0032
   03DB E5                 3312 	push	hl
   03DC CDr00r00           3313 	call	_delay
   03DF E8 02              3314 	add	sp, #2
   03E1 C9                 3315 	ret
                           3316 ;main.c:498: void check_sequence()
                           3317 ;	---------------------------------
                           3318 ; Function check_sequence
                           3319 ; ---------------------------------
   03E2                    3320 _check_sequence::
   03E2 E8 FD              3321 	add	sp, #-3
                           3322 ;main.c:503: for (i = 0; i < SEQ_LEN; ++i) {
   03E4 F8 01              3323 	ldhl	sp,#1
   03E6 36 00              3324 	ld	(hl),#0x00
   03E8 2B                 3325 	dec	hl
   03E9 36 00              3326 	ld	(hl),#0x00
   03EB                    3327 00107$:
                           3328 ;main.c:504: if (input_seq[i] & solution_seq[i]) {
   03EB 11r28r04           3329 	ld	de,#_input_seq
   03EE F8 00              3330 	ldhl	sp,#0
   03F0 6E                 3331 	ld	l,(hl)
   03F1 26 00              3332 	ld	h,#0x00
   03F3 19                 3333 	add	hl,de
   03F4 4D                 3334 	ld	c,l
   03F5 44                 3335 	ld	b,h
   03F6 0A                 3336 	ld	a,(bc)
   03F7 F8 02              3337 	ldhl	sp,#2
   03F9 77                 3338 	ld	(hl),a
   03FA 11r12r01           3339 	ld	de,#_solution_seq
   03FD 2B                 3340 	dec	hl
   03FE 2B                 3341 	dec	hl
   03FF 6E                 3342 	ld	l,(hl)
   0400 26 00              3343 	ld	h,#0x00
   0402 19                 3344 	add	hl,de
   0403 4D                 3345 	ld	c,l
   0404 44                 3346 	ld	b,h
   0405 0A                 3347 	ld	a,(bc)
   0406 F8 02              3348 	ldhl	sp,#2
   0408 A6                 3349 	and	a,(hl)
   0409 28 02              3350 	jr	Z,00108$
                           3351 ;main.c:505: pass++;
   040B 2B                 3352 	dec	hl
   040C 34                 3353 	inc	(hl)
   040D                    3354 00108$:
                           3355 ;main.c:503: for (i = 0; i < SEQ_LEN; ++i) {
   040D F8 00              3356 	ldhl	sp,#0
   040F 34                 3357 	inc	(hl)
   0410 46                 3358 	ld	b,(hl)
   0411 0E 00              3359 	ld	c,#0x00
   0413 78                 3360 	ld	a,b
   0414 D6 10              3361 	sub	a, #0x10
   0416 79                 3362 	ld	a,c
   0417 DE 00              3363 	sbc	a, #0x00
   0419 DArEBr03           3364 	jp	C,00107$
                           3365 ;main.c:509: if (pass == SEQ_LEN) {
   041C 23                 3366 	inc	hl
   041D 5E                 3367 	ld	e,(hl)
   041E 16 00              3368 	ld	d,#0x00
   0420 7B                 3369 	ld	a,e
   0421 D6 10              3370 	sub	a, #0x10
   0423 20 09              3371 	jr	NZ,00105$
   0425 7A                 3372 	ld	a,d
   0426 B7                 3373 	or	a, a
   0427 20 05              3374 	jr	NZ,00105$
                           3375 ;main.c:515: pass_level_1();
   0429 CDr34r04           3376 	call	_pass_level_1
   042C 18 03              3377 	jr	00109$
   042E                    3378 00105$:
                           3379 ;main.c:521: fail_level_1();
   042E CDrA4r04           3380 	call	_fail_level_1
   0431                    3381 00109$:
   0431 E8 03              3382 	add	sp, #3
   0433 C9                 3383 	ret
                           3384 ;main.c:525: void pass_level_1()
                           3385 ;	---------------------------------
                           3386 ; Function pass_level_1
                           3387 ; ---------------------------------
   0434                    3388 _pass_level_1::
                           3389 ;main.c:527: SHOW_WIN;
   0434 11 40 FF           3390 	ld	de,#0xFF40
   0437 1A                 3391 	ld	a,(de)
   0438 5F                 3392 	ld	e,a
   0439 16 00              3393 	ld	d,#0x00
   043B 7B                 3394 	ld	a,e
   043C CB EF              3395 	set	5, a
   043E 47                 3396 	ld	b,a
   043F 21 40 FF           3397 	ld	hl,#0xFF40
   0442 70                 3398 	ld	(hl),b
                           3399 ;main.c:528: show_text("THAT WORKED.");
   0443 11r70r04           3400 	ld	de,#___str_0
   0446 D5                 3401 	push	de
   0447 CDrA9r02           3402 	call	_show_text
   044A E8 02              3403 	add	sp, #2
                           3404 ;main.c:529: show_text("I\'M IN.");
   044C 11r7Dr04           3405 	ld	de,#___str_1
   044F D5                 3406 	push	de
   0450 CDrA9r02           3407 	call	_show_text
   0453 E8 02              3408 	add	sp, #2
                           3409 ;main.c:530: show_text("1ST FLAG IS     SUP3R~S3CUR3~1");
   0455 11r85r04           3410 	ld	de,#___str_2
   0458 D5                 3411 	push	de
   0459 CDrA9r02           3412 	call	_show_text
   045C E8 02              3413 	add	sp, #2
                           3414 ;main.c:531: HIDE_WIN;
   045E 11 40 FF           3415 	ld	de,#0xFF40
   0461 1A                 3416 	ld	a,(de)
   0462 47                 3417 	ld	b,a
   0463 16 00              3418 	ld	d,#0x00
   0465 CB A8              3419 	res	5, b
   0467 16 00              3420 	ld	d,#0x00
   0469 21 40 FF           3421 	ld	hl,#0xFF40
   046C 70                 3422 	ld	(hl),b
                           3423 ;main.c:534: while (1) {}
   046D                    3424 00102$:
   046D 18 FE              3425 	jr	00102$
   046F C9                 3426 	ret
   0470                    3427 ___str_0:
   0470 54 48 41 54 20 57  3428 	.ascii "THAT WORKED."
        4F 52 4B 45 44 2E
   047C 00                 3429 	.db 0x00
   047D                    3430 ___str_1:
   047D 49 27 4D 20 49 4E  3431 	.ascii "I'M IN."
        2E
   0484 00                 3432 	.db 0x00
   0485                    3433 ___str_2:
   0485 31 53 54 20 46 4C  3434 	.ascii "1ST FLAG IS     SUP3R~S3CUR3~1"
        41 47 20 49 53 20
        20 20 20 20 53 55
        50 33 52 7E 53 33
        43 55 52 33 7E 31
   04A3 00                 3435 	.db 0x00
                           3436 ;main.c:537: void fail_level_1()
                           3437 ;	---------------------------------
                           3438 ; Function fail_level_1
                           3439 ; ---------------------------------
   04A4                    3440 _fail_level_1::
                           3441 ;main.c:539: SHOW_WIN;
   04A4 11 40 FF           3442 	ld	de,#0xFF40
   04A7 1A                 3443 	ld	a,(de)
   04A8 5F                 3444 	ld	e,a
   04A9 16 00              3445 	ld	d,#0x00
   04AB 7B                 3446 	ld	a,e
   04AC CB EF              3447 	set	5, a
   04AE 47                 3448 	ld	b,a
   04AF 21 40 FF           3449 	ld	hl,#0xFF40
   04B2 70                 3450 	ld	(hl),b
                           3451 ;main.c:540: show_text("NO GOOD.");
   04B3 11rD5r04           3452 	ld	de,#___str_3
   04B6 D5                 3453 	push	de
   04B7 CDrA9r02           3454 	call	_show_text
   04BA E8 02              3455 	add	sp, #2
                           3456 ;main.c:541: show_text("LET ME TRY SOME THING ELSE.");
   04BC 11rDEr04           3457 	ld	de,#___str_4
   04BF D5                 3458 	push	de
   04C0 CDrA9r02           3459 	call	_show_text
   04C3 E8 02              3460 	add	sp, #2
                           3461 ;main.c:542: HIDE_WIN;
   04C5 11 40 FF           3462 	ld	de,#0xFF40
   04C8 1A                 3463 	ld	a,(de)
   04C9 47                 3464 	ld	b,a
   04CA 16 00              3465 	ld	d,#0x00
   04CC CB A8              3466 	res	5, b
   04CE 16 00              3467 	ld	d,#0x00
   04D0 21 40 FF           3468 	ld	hl,#0xFF40
   04D3 70                 3469 	ld	(hl),b
   04D4 C9                 3470 	ret
   04D5                    3471 ___str_3:
   04D5 4E 4F 20 47 4F 4F  3472 	.ascii "NO GOOD."
        44 2E
   04DD 00                 3473 	.db 0x00
   04DE                    3474 ___str_4:
   04DE 4C 45 54 20 4D 45  3475 	.ascii "LET ME TRY SOME THING ELSE."
        20 54 52 59 20 53
        4F 4D 45 20 54 48
        49 4E 47 20 45 4C
        53 45 2E
   04F9 00                 3476 	.db 0x00
                           3477 ;main.c:545: void main()
                           3478 ;	---------------------------------
                           3479 ; Function main
                           3480 ; ---------------------------------
   04FA                    3481 _main::
                           3482 ;main.c:547: disable_interrupts();
   04FA CDr00r00           3483 	call	_disable_interrupts
                           3484 ;main.c:548: DISPLAY_OFF;
   04FD CDr00r00           3485 	call	_display_off
                           3486 ;main.c:558: set_win_data(0x80, window_border_len, window_border);
   0500 11r00r00           3487 	ld	de,#_window_border
   0503 D5                 3488 	push	de
   0504 21 80 09           3489 	ld	hl,#0x0980
   0507 E5                 3490 	push	hl
   0508 CDr00r00           3491 	call	_set_win_data
   050B E8 04              3492 	add	sp, #4
                           3493 ;main.c:559: set_win_tiles(0, 0, text_box_width, text_box_height, text_box);
   050D 11r90r00           3494 	ld	de,#_text_box
   0510 D5                 3495 	push	de
   0511 21 14 06           3496 	ld	hl,#0x0614
   0514 E5                 3497 	push	hl
   0515 21 00 00           3498 	ld	hl,#0x0000
   0518 E5                 3499 	push	hl
   0519 CDr00r00           3500 	call	_set_win_tiles
   051C E8 06              3501 	add	sp, #6
                           3502 ;main.c:560: move_win(7,96);
   051E 21 07 60           3503 	ld	hl,#0x6007
   0521 E5                 3504 	push	hl
   0522 CDr00r00           3505 	call	_move_win
   0525 E8 02              3506 	add	sp, #2
                           3507 ;main.c:563: set_win_data(0U, alphabet_len, alphabet);
   0527 11r08r01           3508 	ld	de,#_alphabet
   052A D5                 3509 	push	de
   052B 21 00 2E           3510 	ld	hl,#0x2E00
   052E E5                 3511 	push	hl
   052F CDr00r00           3512 	call	_set_win_data
   0532 E8 04              3513 	add	sp, #4
                           3514 ;main.c:564: set_win_tiles(2U, 2U, text_map_width, text_map_height, text_map);
   0534 11r08r04           3515 	ld	de,#_text_map
   0537 D5                 3516 	push	de
   0538 21 10 02           3517 	ld	hl,#0x0210
   053B E5                 3518 	push	hl
   053C 2E 02              3519 	ld	l, #0x02
   053E E5                 3520 	push	hl
   053F CDr00r00           3521 	call	_set_win_tiles
   0542 E8 06              3522 	add	sp, #6
                           3523 ;main.c:567: set_win_data(arrow_address_1, arrow_tile_len, arrow_tile);
   0544 11rE8r03           3524 	ld	de,#_arrow_tile
   0547 D5                 3525 	push	de
   0548 21 2E 02           3526 	ld	hl,#0x022E
   054B E5                 3527 	push	hl
   054C CDr00r00           3528 	call	_set_win_data
   054F E8 04              3529 	add	sp, #4
                           3530 ;main.c:569: SHOW_BKG;
   0551 11 40 FF           3531 	ld	de,#0xFF40
   0554 1A                 3532 	ld	a,(de)
   0555 5F                 3533 	ld	e,a
   0556 16 00              3534 	ld	d,#0x00
   0558 7B                 3535 	ld	a,e
   0559 CB C7              3536 	set	0, a
   055B 47                 3537 	ld	b,a
   055C 21 40 FF           3538 	ld	hl,#0xFF40
   055F 70                 3539 	ld	(hl),b
                           3540 ;main.c:571: DISPLAY_ON;
   0560 11 40 FF           3541 	ld	de,#0xFF40
   0563 1A                 3542 	ld	a,(de)
   0564 5F                 3543 	ld	e,a
   0565 16 00              3544 	ld	d,#0x00
   0567 7B                 3545 	ld	a,e
   0568 CB FF              3546 	set	7, a
   056A 47                 3547 	ld	b,a
   056B 2E 40              3548 	ld	l, #0x40
   056D 70                 3549 	ld	(hl),b
                           3550 ;main.c:572: enable_interrupts();
   056E CDr00r00           3551 	call	_enable_interrupts
                           3552 ;main.c:580: while(1) {
   0571                    3553 00104$:
                           3554 ;main.c:582: sleep(4);
   0571 3E 04              3555 	ld	a,#0x04
   0573 F5                 3556 	push	af
   0574 33                 3557 	inc	sp
   0575 CDrABr03           3558 	call	_sleep
   0578 33                 3559 	inc	sp
                           3560 ;main.c:583: process_button_press();
   0579 CDrBBr03           3561 	call	_process_button_press
                           3562 ;main.c:585: if (input_seq_ctr >= SEQ_LEN) {
   057C 21r38r04           3563 	ld	hl,#_input_seq_ctr
   057F 46                 3564 	ld	b,(hl)
   0580 0E 00              3565 	ld	c,#0x00
   0582 78                 3566 	ld	a,b
   0583 D6 10              3567 	sub	a, #0x10
   0585 79                 3568 	ld	a,c
   0586 DE 00              3569 	sbc	a, #0x00
   0588 38 E7              3570 	jr	C,00104$
                           3571 ;main.c:588: check_sequence();
   058A CDrE2r03           3572 	call	_check_sequence
                           3573 ;main.c:589: input_seq_ctr = 0;
   058D 21r38r04           3574 	ld	hl,#_input_seq_ctr
   0590 36 00              3575 	ld	(hl),#0x00
   0592 18 DD              3576 	jr	00104$
   0594 C9                 3577 	ret
                           3578 	.area _CODE
                           3579 	.area _CABS (ABS)
