                              1 ;--------------------------------------------------------
                              2 ; File Created by SDCC : free open source ANSI-C Compiler
                              3 ; Version 3.5.0 #9253 (Mar 24 2016) (Linux)
                              4 ; This file was generated Mon Jul 17 00:10:32 2017
                              5 ;--------------------------------------------------------
                              6 	.module main
                              7 	.optsdcc -mgbz80
                              8 	
                              9 ;--------------------------------------------------------
                             10 ; Public variables in this module
                             11 ;--------------------------------------------------------
                             12 	.globl _main
                             13 	.globl _move_sprite
                             14 	.globl _set_sprite_tile
                             15 	.globl _set_sprite_data
                             16 	.globl _move_win
                             17 	.globl _set_win_tiles
                             18 	.globl _set_win_data
                             19 	.globl _display_off
                             20 	.globl _wait_vbl_done
                             21 	.globl _disable_interrupts
                             22 	.globl _enable_interrupts
                             23 	.globl _joypad
                             24 	.globl _delay
                             25 	.globl _strlen
                             26 	.globl _memset
                             27 	.globl _strcat
                             28 	.globl _strcpy
                             29 	.globl _memcpy
                             30 	.globl _key_b
                             31 	.globl _key_a
                             32 	.globl _flag_b
                             33 	.globl _flag_a
                             34 	.globl _input_seq_ctr
                             35 	.globl _input_seq
                             36 	.globl _text_map
                             37 	.globl _arrow_tile
                             38 	.globl _alphabet
                             39 	.globl _text_box
                             40 	.globl _window_border
                             41 	.globl _solution_seq
                             42 	.globl _agent
                             43 	.globl _divide_UINT8
                             44 	.globl _set_text_map
                             45 	.globl _clear_window
                             46 	.globl _show_text
                             47 	.globl _scroll_text
                             48 	.globl _sleep
                             49 	.globl _process_button_press
                             50 	.globl _check_sequence
                             51 	.globl _pass_level_1
                             52 	.globl _fail_level_1
                             53 	.globl _decrypt
                             54 	.globl _remove_flag_padding
                             55 ;--------------------------------------------------------
                             56 ; ram data
                             57 ;--------------------------------------------------------
                             58 	.area _DATA
   0000                      59 _window_border::
   0000                      60 	.ds 144
   0090                      61 _text_box::
   0090                      62 	.ds 120
   0108                      63 _alphabet::
   0108                      64 	.ds 736
   03E8                      65 _arrow_tile::
   03E8                      66 	.ds 32
   0408                      67 _text_map::
   0408                      68 	.ds 32
   0428                      69 _input_seq::
   0428                      70 	.ds 16
   0438                      71 _input_seq_ctr::
   0438                      72 	.ds 1
   0439                      73 _flag_a::
   0439                      74 	.ds 8
   0441                      75 _flag_b::
   0441                      76 	.ds 8
   0449                      77 _key_a::
   0449                      78 	.ds 16
   0459                      79 _key_b::
   0459                      80 	.ds 16
                             81 ;--------------------------------------------------------
                             82 ; absolute external ram data
                             83 ;--------------------------------------------------------
                             84 	.area _DABS (ABS)
                             85 ;--------------------------------------------------------
                             86 ; global & static initialisations
                             87 ;--------------------------------------------------------
                             88 	.area _HOME
                             89 	.area _GSINIT
                             90 	.area _GSFINAL
                             91 	.area _GSINIT
                             92 ;main.c:47: unsigned char window_border[] =
   0000 21r00r00             93 	ld	hl,#_window_border
   0003 36 1F                94 	ld	(hl),#0x1F
   0005 21r01r00             95 	ld	hl,#(_window_border + 0x0001)
   0008 36 1F                96 	ld	(hl),#0x1F
   000A 21r02r00             97 	ld	hl,#(_window_border + 0x0002)
   000D 36 20                98 	ld	(hl),#0x20
   000F 21r03r00             99 	ld	hl,#(_window_border + 0x0003)
   0012 36 3F               100 	ld	(hl),#0x3F
   0014 21r04r00            101 	ld	hl,#(_window_border + 0x0004)
   0017 36 40               102 	ld	(hl),#0x40
   0019 21r05r00            103 	ld	hl,#(_window_border + 0x0005)
   001C 36 70               104 	ld	(hl),#0x70
   001E 21r06r00            105 	ld	hl,#(_window_border + 0x0006)
   0021 36 87               106 	ld	(hl),#0x87
   0023 21r07r00            107 	ld	hl,#(_window_border + 0x0007)
   0026 36 E0               108 	ld	(hl),#0xE0
   0028 21r08r00            109 	ld	hl,#(_window_border + 0x0008)
   002B 36 8F               110 	ld	(hl),#0x8F
   002D 21r09r00            111 	ld	hl,#(_window_border + 0x0009)
   0030 36 C3               112 	ld	(hl),#0xC3
   0032 21r0Ar00            113 	ld	hl,#(_window_border + 0x000a)
   0035 36 9C               114 	ld	(hl),#0x9C
   0037 21r0Br00            115 	ld	hl,#(_window_border + 0x000b)
   003A 36 C4               116 	ld	(hl),#0xC4
   003C 21r0Cr00            117 	ld	hl,#(_window_border + 0x000c)
   003F 36 98               118 	ld	(hl),#0x98
   0041 21r0Dr00            119 	ld	hl,#(_window_border + 0x000d)
   0044 36 C8               120 	ld	(hl),#0xC8
   0046 21r0Er00            121 	ld	hl,#(_window_border + 0x000e)
   0049 36 98               122 	ld	(hl),#0x98
   004B 21r0Fr00            123 	ld	hl,#(_window_border + 0x000f)
   004E 36 C8               124 	ld	(hl),#0xC8
   0050 21r10r00            125 	ld	hl,#(_window_border + 0x0010)
   0053 36 98               126 	ld	(hl),#0x98
   0055 21r11r00            127 	ld	hl,#(_window_border + 0x0011)
   0058 36 C8               128 	ld	(hl),#0xC8
   005A 21r12r00            129 	ld	hl,#(_window_border + 0x0012)
   005D 36 98               130 	ld	(hl),#0x98
   005F 21r13r00            131 	ld	hl,#(_window_border + 0x0013)
   0062 36 C8               132 	ld	(hl),#0xC8
   0064 21r14r00            133 	ld	hl,#(_window_border + 0x0014)
   0067 36 98               134 	ld	(hl),#0x98
   0069 21r15r00            135 	ld	hl,#(_window_border + 0x0015)
   006C 36 C8               136 	ld	(hl),#0xC8
   006E 21r16r00            137 	ld	hl,#(_window_border + 0x0016)
   0071 36 98               138 	ld	(hl),#0x98
   0073 21r17r00            139 	ld	hl,#(_window_border + 0x0017)
   0076 36 C8               140 	ld	(hl),#0xC8
   0078 21r18r00            141 	ld	hl,#(_window_border + 0x0018)
   007B 36 98               142 	ld	(hl),#0x98
   007D 21r19r00            143 	ld	hl,#(_window_border + 0x0019)
   0080 36 C8               144 	ld	(hl),#0xC8
   0082 21r1Ar00            145 	ld	hl,#(_window_border + 0x001a)
   0085 36 98               146 	ld	(hl),#0x98
   0087 21r1Br00            147 	ld	hl,#(_window_border + 0x001b)
   008A 36 C8               148 	ld	(hl),#0xC8
   008C 21r1Cr00            149 	ld	hl,#(_window_border + 0x001c)
   008F 36 98               150 	ld	(hl),#0x98
   0091 21r1Dr00            151 	ld	hl,#(_window_border + 0x001d)
   0094 36 C8               152 	ld	(hl),#0xC8
   0096 21r1Er00            153 	ld	hl,#(_window_border + 0x001e)
   0099 36 98               154 	ld	(hl),#0x98
   009B 21r1Fr00            155 	ld	hl,#(_window_border + 0x001f)
   009E 36 C8               156 	ld	(hl),#0xC8
   00A0 21r20r00            157 	ld	hl,#(_window_border + 0x0020)
   00A3 36 FF               158 	ld	(hl),#0xFF
   00A5 21r21r00            159 	ld	hl,#(_window_border + 0x0021)
   00A8 36 FF               160 	ld	(hl),#0xFF
   00AA 01r22r00            161 	ld	bc,#_window_border + 34
   00AD AF                  162 	xor	a, a
   00AE 02                  163 	ld	(bc),a
   00AF 21r23r00            164 	ld	hl,#(_window_border + 0x0023)
   00B2 36 FF               165 	ld	(hl),#0xFF
   00B4 01r24r00            166 	ld	bc,#_window_border + 36
   00B7 AF                  167 	xor	a, a
   00B8 02                  168 	ld	(bc),a
   00B9 01r25r00            169 	ld	bc,#_window_border + 37
   00BC AF                  170 	xor	a, a
   00BD 02                  171 	ld	(bc),a
   00BE 21r26r00            172 	ld	hl,#(_window_border + 0x0026)
   00C1 36 FF               173 	ld	(hl),#0xFF
   00C3 01r27r00            174 	ld	bc,#_window_border + 39
   00C6 AF                  175 	xor	a, a
   00C7 02                  176 	ld	(bc),a
   00C8 21r28r00            177 	ld	hl,#(_window_border + 0x0028)
   00CB 36 FF               178 	ld	(hl),#0xFF
   00CD 21r29r00            179 	ld	hl,#(_window_border + 0x0029)
   00D0 36 FF               180 	ld	(hl),#0xFF
   00D2 01r2Ar00            181 	ld	bc,#_window_border + 42
   00D5 AF                  182 	xor	a, a
   00D6 02                  183 	ld	(bc),a
   00D7 01r2Br00            184 	ld	bc,#_window_border + 43
   00DA AF                  185 	xor	a, a
   00DB 02                  186 	ld	(bc),a
   00DC 01r2Cr00            187 	ld	bc,#_window_border + 44
   00DF AF                  188 	xor	a, a
   00E0 02                  189 	ld	(bc),a
   00E1 01r2Dr00            190 	ld	bc,#_window_border + 45
   00E4 AF                  191 	xor	a, a
   00E5 02                  192 	ld	(bc),a
   00E6 01r2Er00            193 	ld	bc,#_window_border + 46
   00E9 AF                  194 	xor	a, a
   00EA 02                  195 	ld	(bc),a
   00EB 01r2Fr00            196 	ld	bc,#_window_border + 47
   00EE AF                  197 	xor	a, a
   00EF 02                  198 	ld	(bc),a
   00F0 21r30r00            199 	ld	hl,#(_window_border + 0x0030)
   00F3 36 98               200 	ld	(hl),#0x98
   00F5 21r31r00            201 	ld	hl,#(_window_border + 0x0031)
   00F8 36 C8               202 	ld	(hl),#0xC8
   00FA 21r32r00            203 	ld	hl,#(_window_border + 0x0032)
   00FD 36 98               204 	ld	(hl),#0x98
   00FF 21r33r00            205 	ld	hl,#(_window_border + 0x0033)
   0102 36 C8               206 	ld	(hl),#0xC8
   0104 21r34r00            207 	ld	hl,#(_window_border + 0x0034)
   0107 36 94               208 	ld	(hl),#0x94
   0109 21r35r00            209 	ld	hl,#(_window_border + 0x0035)
   010C 36 C8               210 	ld	(hl),#0xC8
   010E 21r36r00            211 	ld	hl,#(_window_border + 0x0036)
   0111 36 83               212 	ld	(hl),#0x83
   0113 21r37r00            213 	ld	hl,#(_window_border + 0x0037)
   0116 36 CC               214 	ld	(hl),#0xCC
   0118 21r38r00            215 	ld	hl,#(_window_border + 0x0038)
   011B 36 80               216 	ld	(hl),#0x80
   011D 21r39r00            217 	ld	hl,#(_window_border + 0x0039)
   0120 36 E7               218 	ld	(hl),#0xE7
   0122 21r3Ar00            219 	ld	hl,#(_window_border + 0x003a)
   0125 36 40               220 	ld	(hl),#0x40
   0127 21r3Br00            221 	ld	hl,#(_window_border + 0x003b)
   012A 36 70               222 	ld	(hl),#0x70
   012C 21r3Cr00            223 	ld	hl,#(_window_border + 0x003c)
   012F 36 2F               224 	ld	(hl),#0x2F
   0131 21r3Dr00            225 	ld	hl,#(_window_border + 0x003d)
   0134 36 30               226 	ld	(hl),#0x30
   0136 21r3Er00            227 	ld	hl,#(_window_border + 0x003e)
   0139 36 1F               228 	ld	(hl),#0x1F
   013B 21r3Fr00            229 	ld	hl,#(_window_border + 0x003f)
   013E 36 1F               230 	ld	(hl),#0x1F
   0140 01r40r00            231 	ld	bc,#_window_border + 64
   0143 AF                  232 	xor	a, a
   0144 02                  233 	ld	(bc),a
   0145 01r41r00            234 	ld	bc,#_window_border + 65
   0148 AF                  235 	xor	a, a
   0149 02                  236 	ld	(bc),a
   014A 01r42r00            237 	ld	bc,#_window_border + 66
   014D AF                  238 	xor	a, a
   014E 02                  239 	ld	(bc),a
   014F 01r43r00            240 	ld	bc,#_window_border + 67
   0152 AF                  241 	xor	a, a
   0153 02                  242 	ld	(bc),a
   0154 01r44r00            243 	ld	bc,#_window_border + 68
   0157 AF                  244 	xor	a, a
   0158 02                  245 	ld	(bc),a
   0159 01r45r00            246 	ld	bc,#_window_border + 69
   015C AF                  247 	xor	a, a
   015D 02                  248 	ld	(bc),a
   015E 21r46r00            249 	ld	hl,#(_window_border + 0x0046)
   0161 36 FF               250 	ld	(hl),#0xFF
   0163 01r47r00            251 	ld	bc,#_window_border + 71
   0166 AF                  252 	xor	a, a
   0167 02                  253 	ld	(bc),a
   0168 01r48r00            254 	ld	bc,#_window_border + 72
   016B AF                  255 	xor	a, a
   016C 02                  256 	ld	(bc),a
   016D 21r49r00            257 	ld	hl,#(_window_border + 0x0049)
   0170 36 FF               258 	ld	(hl),#0xFF
   0172 01r4Ar00            259 	ld	bc,#_window_border + 74
   0175 AF                  260 	xor	a, a
   0176 02                  261 	ld	(bc),a
   0177 01r4Br00            262 	ld	bc,#_window_border + 75
   017A AF                  263 	xor	a, a
   017B 02                  264 	ld	(bc),a
   017C 21r4Cr00            265 	ld	hl,#(_window_border + 0x004c)
   017F 36 FF               266 	ld	(hl),#0xFF
   0181 01r4Dr00            267 	ld	bc,#_window_border + 77
   0184 AF                  268 	xor	a, a
   0185 02                  269 	ld	(bc),a
   0186 21r4Er00            270 	ld	hl,#(_window_border + 0x004e)
   0189 36 FF               271 	ld	(hl),#0xFF
   018B 21r4Fr00            272 	ld	hl,#(_window_border + 0x004f)
   018E 36 FF               273 	ld	(hl),#0xFF
   0190 21r50r00            274 	ld	hl,#(_window_border + 0x0050)
   0193 36 13               275 	ld	(hl),#0x13
   0195 21r51r00            276 	ld	hl,#(_window_border + 0x0051)
   0198 36 09               277 	ld	(hl),#0x09
   019A 21r52r00            278 	ld	hl,#(_window_border + 0x0052)
   019D 36 13               279 	ld	(hl),#0x13
   019F 21r53r00            280 	ld	hl,#(_window_border + 0x0053)
   01A2 36 09               281 	ld	(hl),#0x09
   01A4 21r54r00            282 	ld	hl,#(_window_border + 0x0054)
   01A7 36 23               283 	ld	(hl),#0x23
   01A9 21r55r00            284 	ld	hl,#(_window_border + 0x0055)
   01AC 36 19               285 	ld	(hl),#0x19
   01AE 21r56r00            286 	ld	hl,#(_window_border + 0x0056)
   01B1 36 C3               287 	ld	(hl),#0xC3
   01B3 21r57r00            288 	ld	hl,#(_window_border + 0x0057)
   01B6 36 31               289 	ld	(hl),#0x31
   01B8 21r58r00            290 	ld	hl,#(_window_border + 0x0058)
   01BB 36 07               291 	ld	(hl),#0x07
   01BD 21r59r00            292 	ld	hl,#(_window_border + 0x0059)
   01C0 36 E1               293 	ld	(hl),#0xE1
   01C2 21r5Ar00            294 	ld	hl,#(_window_border + 0x005a)
   01C5 36 0E               295 	ld	(hl),#0x0E
   01C7 21r5Br00            296 	ld	hl,#(_window_border + 0x005b)
   01CA 36 02               297 	ld	(hl),#0x02
   01CC 21r5Cr00            298 	ld	hl,#(_window_border + 0x005c)
   01CF 36 FC               299 	ld	(hl),#0xFC
   01D1 21r5Dr00            300 	ld	hl,#(_window_border + 0x005d)
   01D4 36 04               301 	ld	(hl),#0x04
   01D6 21r5Er00            302 	ld	hl,#(_window_border + 0x005e)
   01D9 36 F8               303 	ld	(hl),#0xF8
   01DB 21r5Fr00            304 	ld	hl,#(_window_border + 0x005f)
   01DE 36 F8               305 	ld	(hl),#0xF8
   01E0 21r60r00            306 	ld	hl,#(_window_border + 0x0060)
   01E3 36 13               307 	ld	(hl),#0x13
   01E5 21r61r00            308 	ld	hl,#(_window_border + 0x0061)
   01E8 36 09               309 	ld	(hl),#0x09
   01EA 21r62r00            310 	ld	hl,#(_window_border + 0x0062)
   01ED 36 13               311 	ld	(hl),#0x13
   01EF 21r63r00            312 	ld	hl,#(_window_border + 0x0063)
   01F2 36 09               313 	ld	(hl),#0x09
   01F4 21r64r00            314 	ld	hl,#(_window_border + 0x0064)
   01F7 36 13               315 	ld	(hl),#0x13
   01F9 21r65r00            316 	ld	hl,#(_window_border + 0x0065)
   01FC 36 09               317 	ld	(hl),#0x09
   01FE 21r66r00            318 	ld	hl,#(_window_border + 0x0066)
   0201 36 13               319 	ld	(hl),#0x13
   0203 21r67r00            320 	ld	hl,#(_window_border + 0x0067)
   0206 36 09               321 	ld	(hl),#0x09
   0208 21r68r00            322 	ld	hl,#(_window_border + 0x0068)
   020B 36 13               323 	ld	(hl),#0x13
   020D 21r69r00            324 	ld	hl,#(_window_border + 0x0069)
   0210 36 09               325 	ld	(hl),#0x09
   0212 21r6Ar00            326 	ld	hl,#(_window_border + 0x006a)
   0215 36 13               327 	ld	(hl),#0x13
   0217 21r6Br00            328 	ld	hl,#(_window_border + 0x006b)
   021A 36 09               329 	ld	(hl),#0x09
   021C 21r6Cr00            330 	ld	hl,#(_window_border + 0x006c)
   021F 36 13               331 	ld	(hl),#0x13
   0221 21r6Dr00            332 	ld	hl,#(_window_border + 0x006d)
   0224 36 09               333 	ld	(hl),#0x09
   0226 21r6Er00            334 	ld	hl,#(_window_border + 0x006e)
   0229 36 13               335 	ld	(hl),#0x13
   022B 21r6Fr00            336 	ld	hl,#(_window_border + 0x006f)
   022E 36 09               337 	ld	(hl),#0x09
   0230 21r70r00            338 	ld	hl,#(_window_border + 0x0070)
   0233 36 F8               339 	ld	(hl),#0xF8
   0235 21r71r00            340 	ld	hl,#(_window_border + 0x0071)
   0238 36 F8               341 	ld	(hl),#0xF8
   023A 21r72r00            342 	ld	hl,#(_window_border + 0x0072)
   023D 36 04               343 	ld	(hl),#0x04
   023F 21r73r00            344 	ld	hl,#(_window_border + 0x0073)
   0242 36 FC               345 	ld	(hl),#0xFC
   0244 21r74r00            346 	ld	hl,#(_window_border + 0x0074)
   0247 36 02               347 	ld	(hl),#0x02
   0249 21r75r00            348 	ld	hl,#(_window_border + 0x0075)
   024C 36 0E               349 	ld	(hl),#0x0E
   024E 21r76r00            350 	ld	hl,#(_window_border + 0x0076)
   0251 36 E1               351 	ld	(hl),#0xE1
   0253 21r77r00            352 	ld	hl,#(_window_border + 0x0077)
   0256 36 07               353 	ld	(hl),#0x07
   0258 21r78r00            354 	ld	hl,#(_window_border + 0x0078)
   025B 36 F1               355 	ld	(hl),#0xF1
   025D 21r79r00            356 	ld	hl,#(_window_border + 0x0079)
   0260 36 C3               357 	ld	(hl),#0xC3
   0262 21r7Ar00            358 	ld	hl,#(_window_border + 0x007a)
   0265 36 23               359 	ld	(hl),#0x23
   0267 21r7Br00            360 	ld	hl,#(_window_border + 0x007b)
   026A 36 39               361 	ld	(hl),#0x39
   026C 21r7Cr00            362 	ld	hl,#(_window_border + 0x007c)
   026F 36 13               363 	ld	(hl),#0x13
   0271 21r7Dr00            364 	ld	hl,#(_window_border + 0x007d)
   0274 36 09               365 	ld	(hl),#0x09
   0276 21r7Er00            366 	ld	hl,#(_window_border + 0x007e)
   0279 36 13               367 	ld	(hl),#0x13
   027B 21r7Fr00            368 	ld	hl,#(_window_border + 0x007f)
   027E 36 09               369 	ld	(hl),#0x09
   0280 01r80r00            370 	ld	bc,#_window_border + 128
   0283 AF                  371 	xor	a, a
   0284 02                  372 	ld	(bc),a
   0285 01r81r00            373 	ld	bc,#_window_border + 129
   0288 AF                  374 	xor	a, a
   0289 02                  375 	ld	(bc),a
   028A 01r82r00            376 	ld	bc,#_window_border + 130
   028D AF                  377 	xor	a, a
   028E 02                  378 	ld	(bc),a
   028F 01r83r00            379 	ld	bc,#_window_border + 131
   0292 AF                  380 	xor	a, a
   0293 02                  381 	ld	(bc),a
   0294 01r84r00            382 	ld	bc,#_window_border + 132
   0297 AF                  383 	xor	a, a
   0298 02                  384 	ld	(bc),a
   0299 01r85r00            385 	ld	bc,#_window_border + 133
   029C AF                  386 	xor	a, a
   029D 02                  387 	ld	(bc),a
   029E 01r86r00            388 	ld	bc,#_window_border + 134
   02A1 AF                  389 	xor	a, a
   02A2 02                  390 	ld	(bc),a
   02A3 01r87r00            391 	ld	bc,#_window_border + 135
   02A6 AF                  392 	xor	a, a
   02A7 02                  393 	ld	(bc),a
   02A8 01r88r00            394 	ld	bc,#_window_border + 136
   02AB AF                  395 	xor	a, a
   02AC 02                  396 	ld	(bc),a
   02AD 01r89r00            397 	ld	bc,#_window_border + 137
   02B0 AF                  398 	xor	a, a
   02B1 02                  399 	ld	(bc),a
   02B2 01r8Ar00            400 	ld	bc,#_window_border + 138
   02B5 AF                  401 	xor	a, a
   02B6 02                  402 	ld	(bc),a
   02B7 01r8Br00            403 	ld	bc,#_window_border + 139
   02BA AF                  404 	xor	a, a
   02BB 02                  405 	ld	(bc),a
   02BC 01r8Cr00            406 	ld	bc,#_window_border + 140
   02BF AF                  407 	xor	a, a
   02C0 02                  408 	ld	(bc),a
   02C1 01r8Dr00            409 	ld	bc,#_window_border + 141
   02C4 AF                  410 	xor	a, a
   02C5 02                  411 	ld	(bc),a
   02C6 01r8Er00            412 	ld	bc,#_window_border + 142
   02C9 AF                  413 	xor	a, a
   02CA 02                  414 	ld	(bc),a
   02CB 01r8Fr00            415 	ld	bc,#_window_border + 143
   02CE AF                  416 	xor	a, a
   02CF 02                  417 	ld	(bc),a
                            418 ;main.c:73: unsigned char text_box[] =
   02D0 21r90r00            419 	ld	hl,#_text_box
   02D3 36 80               420 	ld	(hl),#0x80
   02D5 21r91r00            421 	ld	hl,#(_text_box + 0x0001)
   02D8 36 82               422 	ld	(hl),#0x82
   02DA 21r92r00            423 	ld	hl,#(_text_box + 0x0002)
   02DD 36 82               424 	ld	(hl),#0x82
   02DF 21r93r00            425 	ld	hl,#(_text_box + 0x0003)
   02E2 36 82               426 	ld	(hl),#0x82
   02E4 21r94r00            427 	ld	hl,#(_text_box + 0x0004)
   02E7 36 82               428 	ld	(hl),#0x82
   02E9 21r95r00            429 	ld	hl,#(_text_box + 0x0005)
   02EC 36 82               430 	ld	(hl),#0x82
   02EE 21r96r00            431 	ld	hl,#(_text_box + 0x0006)
   02F1 36 82               432 	ld	(hl),#0x82
   02F3 21r97r00            433 	ld	hl,#(_text_box + 0x0007)
   02F6 36 82               434 	ld	(hl),#0x82
   02F8 21r98r00            435 	ld	hl,#(_text_box + 0x0008)
   02FB 36 82               436 	ld	(hl),#0x82
   02FD 21r99r00            437 	ld	hl,#(_text_box + 0x0009)
   0300 36 82               438 	ld	(hl),#0x82
   0302 21r9Ar00            439 	ld	hl,#(_text_box + 0x000a)
   0305 36 82               440 	ld	(hl),#0x82
   0307 21r9Br00            441 	ld	hl,#(_text_box + 0x000b)
   030A 36 82               442 	ld	(hl),#0x82
   030C 21r9Cr00            443 	ld	hl,#(_text_box + 0x000c)
   030F 36 82               444 	ld	(hl),#0x82
   0311 21r9Dr00            445 	ld	hl,#(_text_box + 0x000d)
   0314 36 82               446 	ld	(hl),#0x82
   0316 21r9Er00            447 	ld	hl,#(_text_box + 0x000e)
   0319 36 82               448 	ld	(hl),#0x82
   031B 21r9Fr00            449 	ld	hl,#(_text_box + 0x000f)
   031E 36 82               450 	ld	(hl),#0x82
   0320 21rA0r00            451 	ld	hl,#(_text_box + 0x0010)
   0323 36 82               452 	ld	(hl),#0x82
   0325 21rA1r00            453 	ld	hl,#(_text_box + 0x0011)
   0328 36 82               454 	ld	(hl),#0x82
   032A 21rA2r00            455 	ld	hl,#(_text_box + 0x0012)
   032D 36 82               456 	ld	(hl),#0x82
   032F 21rA3r00            457 	ld	hl,#(_text_box + 0x0013)
   0332 36 87               458 	ld	(hl),#0x87
   0334 21rA4r00            459 	ld	hl,#(_text_box + 0x0014)
   0337 36 81               460 	ld	(hl),#0x81
   0339 21rA5r00            461 	ld	hl,#(_text_box + 0x0015)
   033C 36 88               462 	ld	(hl),#0x88
   033E 21rA6r00            463 	ld	hl,#(_text_box + 0x0016)
   0341 36 88               464 	ld	(hl),#0x88
   0343 21rA7r00            465 	ld	hl,#(_text_box + 0x0017)
   0346 36 88               466 	ld	(hl),#0x88
   0348 21rA8r00            467 	ld	hl,#(_text_box + 0x0018)
   034B 36 88               468 	ld	(hl),#0x88
   034D 21rA9r00            469 	ld	hl,#(_text_box + 0x0019)
   0350 36 88               470 	ld	(hl),#0x88
   0352 21rAAr00            471 	ld	hl,#(_text_box + 0x001a)
   0355 36 88               472 	ld	(hl),#0x88
   0357 21rABr00            473 	ld	hl,#(_text_box + 0x001b)
   035A 36 88               474 	ld	(hl),#0x88
   035C 21rACr00            475 	ld	hl,#(_text_box + 0x001c)
   035F 36 88               476 	ld	(hl),#0x88
   0361 21rADr00            477 	ld	hl,#(_text_box + 0x001d)
   0364 36 88               478 	ld	(hl),#0x88
   0366 21rAEr00            479 	ld	hl,#(_text_box + 0x001e)
   0369 36 88               480 	ld	(hl),#0x88
   036B 21rAFr00            481 	ld	hl,#(_text_box + 0x001f)
   036E 36 88               482 	ld	(hl),#0x88
   0370 21rB0r00            483 	ld	hl,#(_text_box + 0x0020)
   0373 36 88               484 	ld	(hl),#0x88
   0375 21rB1r00            485 	ld	hl,#(_text_box + 0x0021)
   0378 36 88               486 	ld	(hl),#0x88
   037A 21rB2r00            487 	ld	hl,#(_text_box + 0x0022)
   037D 36 88               488 	ld	(hl),#0x88
   037F 21rB3r00            489 	ld	hl,#(_text_box + 0x0023)
   0382 36 88               490 	ld	(hl),#0x88
   0384 21rB4r00            491 	ld	hl,#(_text_box + 0x0024)
   0387 36 88               492 	ld	(hl),#0x88
   0389 21rB5r00            493 	ld	hl,#(_text_box + 0x0025)
   038C 36 88               494 	ld	(hl),#0x88
   038E 21rB6r00            495 	ld	hl,#(_text_box + 0x0026)
   0391 36 88               496 	ld	(hl),#0x88
   0393 21rB7r00            497 	ld	hl,#(_text_box + 0x0027)
   0396 36 86               498 	ld	(hl),#0x86
   0398 21rB8r00            499 	ld	hl,#(_text_box + 0x0028)
   039B 36 81               500 	ld	(hl),#0x81
   039D 21rB9r00            501 	ld	hl,#(_text_box + 0x0029)
   03A0 36 88               502 	ld	(hl),#0x88
   03A2 21rBAr00            503 	ld	hl,#(_text_box + 0x002a)
   03A5 36 88               504 	ld	(hl),#0x88
   03A7 21rBBr00            505 	ld	hl,#(_text_box + 0x002b)
   03AA 36 88               506 	ld	(hl),#0x88
   03AC 21rBCr00            507 	ld	hl,#(_text_box + 0x002c)
   03AF 36 88               508 	ld	(hl),#0x88
   03B1 21rBDr00            509 	ld	hl,#(_text_box + 0x002d)
   03B4 36 88               510 	ld	(hl),#0x88
   03B6 21rBEr00            511 	ld	hl,#(_text_box + 0x002e)
   03B9 36 88               512 	ld	(hl),#0x88
   03BB 21rBFr00            513 	ld	hl,#(_text_box + 0x002f)
   03BE 36 88               514 	ld	(hl),#0x88
   03C0 21rC0r00            515 	ld	hl,#(_text_box + 0x0030)
   03C3 36 88               516 	ld	(hl),#0x88
   03C5 21rC1r00            517 	ld	hl,#(_text_box + 0x0031)
   03C8 36 88               518 	ld	(hl),#0x88
   03CA 21rC2r00            519 	ld	hl,#(_text_box + 0x0032)
   03CD 36 88               520 	ld	(hl),#0x88
   03CF 21rC3r00            521 	ld	hl,#(_text_box + 0x0033)
   03D2 36 88               522 	ld	(hl),#0x88
   03D4 21rC4r00            523 	ld	hl,#(_text_box + 0x0034)
   03D7 36 88               524 	ld	(hl),#0x88
   03D9 21rC5r00            525 	ld	hl,#(_text_box + 0x0035)
   03DC 36 88               526 	ld	(hl),#0x88
   03DE 21rC6r00            527 	ld	hl,#(_text_box + 0x0036)
   03E1 36 88               528 	ld	(hl),#0x88
   03E3 21rC7r00            529 	ld	hl,#(_text_box + 0x0037)
   03E6 36 88               530 	ld	(hl),#0x88
   03E8 21rC8r00            531 	ld	hl,#(_text_box + 0x0038)
   03EB 36 88               532 	ld	(hl),#0x88
   03ED 21rC9r00            533 	ld	hl,#(_text_box + 0x0039)
   03F0 36 88               534 	ld	(hl),#0x88
   03F2 21rCAr00            535 	ld	hl,#(_text_box + 0x003a)
   03F5 36 88               536 	ld	(hl),#0x88
   03F7 21rCBr00            537 	ld	hl,#(_text_box + 0x003b)
   03FA 36 86               538 	ld	(hl),#0x86
   03FC 21rCCr00            539 	ld	hl,#(_text_box + 0x003c)
   03FF 36 81               540 	ld	(hl),#0x81
   0401 21rCDr00            541 	ld	hl,#(_text_box + 0x003d)
   0404 36 88               542 	ld	(hl),#0x88
   0406 21rCEr00            543 	ld	hl,#(_text_box + 0x003e)
   0409 36 88               544 	ld	(hl),#0x88
   040B 21rCFr00            545 	ld	hl,#(_text_box + 0x003f)
   040E 36 88               546 	ld	(hl),#0x88
   0410 21rD0r00            547 	ld	hl,#(_text_box + 0x0040)
   0413 36 88               548 	ld	(hl),#0x88
   0415 21rD1r00            549 	ld	hl,#(_text_box + 0x0041)
   0418 36 88               550 	ld	(hl),#0x88
   041A 21rD2r00            551 	ld	hl,#(_text_box + 0x0042)
   041D 36 88               552 	ld	(hl),#0x88
   041F 21rD3r00            553 	ld	hl,#(_text_box + 0x0043)
   0422 36 88               554 	ld	(hl),#0x88
   0424 21rD4r00            555 	ld	hl,#(_text_box + 0x0044)
   0427 36 88               556 	ld	(hl),#0x88
   0429 21rD5r00            557 	ld	hl,#(_text_box + 0x0045)
   042C 36 88               558 	ld	(hl),#0x88
   042E 21rD6r00            559 	ld	hl,#(_text_box + 0x0046)
   0431 36 88               560 	ld	(hl),#0x88
   0433 21rD7r00            561 	ld	hl,#(_text_box + 0x0047)
   0436 36 88               562 	ld	(hl),#0x88
   0438 21rD8r00            563 	ld	hl,#(_text_box + 0x0048)
   043B 36 88               564 	ld	(hl),#0x88
   043D 21rD9r00            565 	ld	hl,#(_text_box + 0x0049)
   0440 36 88               566 	ld	(hl),#0x88
   0442 21rDAr00            567 	ld	hl,#(_text_box + 0x004a)
   0445 36 88               568 	ld	(hl),#0x88
   0447 21rDBr00            569 	ld	hl,#(_text_box + 0x004b)
   044A 36 88               570 	ld	(hl),#0x88
   044C 21rDCr00            571 	ld	hl,#(_text_box + 0x004c)
   044F 36 88               572 	ld	(hl),#0x88
   0451 21rDDr00            573 	ld	hl,#(_text_box + 0x004d)
   0454 36 88               574 	ld	(hl),#0x88
   0456 21rDEr00            575 	ld	hl,#(_text_box + 0x004e)
   0459 36 88               576 	ld	(hl),#0x88
   045B 21rDFr00            577 	ld	hl,#(_text_box + 0x004f)
   045E 36 86               578 	ld	(hl),#0x86
   0460 21rE0r00            579 	ld	hl,#(_text_box + 0x0050)
   0463 36 81               580 	ld	(hl),#0x81
   0465 21rE1r00            581 	ld	hl,#(_text_box + 0x0051)
   0468 36 88               582 	ld	(hl),#0x88
   046A 21rE2r00            583 	ld	hl,#(_text_box + 0x0052)
   046D 36 88               584 	ld	(hl),#0x88
   046F 21rE3r00            585 	ld	hl,#(_text_box + 0x0053)
   0472 36 88               586 	ld	(hl),#0x88
   0474 21rE4r00            587 	ld	hl,#(_text_box + 0x0054)
   0477 36 88               588 	ld	(hl),#0x88
   0479 21rE5r00            589 	ld	hl,#(_text_box + 0x0055)
   047C 36 88               590 	ld	(hl),#0x88
   047E 21rE6r00            591 	ld	hl,#(_text_box + 0x0056)
   0481 36 88               592 	ld	(hl),#0x88
   0483 21rE7r00            593 	ld	hl,#(_text_box + 0x0057)
   0486 36 88               594 	ld	(hl),#0x88
   0488 21rE8r00            595 	ld	hl,#(_text_box + 0x0058)
   048B 36 88               596 	ld	(hl),#0x88
   048D 21rE9r00            597 	ld	hl,#(_text_box + 0x0059)
   0490 36 88               598 	ld	(hl),#0x88
   0492 21rEAr00            599 	ld	hl,#(_text_box + 0x005a)
   0495 36 88               600 	ld	(hl),#0x88
   0497 21rEBr00            601 	ld	hl,#(_text_box + 0x005b)
   049A 36 88               602 	ld	(hl),#0x88
   049C 21rECr00            603 	ld	hl,#(_text_box + 0x005c)
   049F 36 88               604 	ld	(hl),#0x88
   04A1 21rEDr00            605 	ld	hl,#(_text_box + 0x005d)
   04A4 36 88               606 	ld	(hl),#0x88
   04A6 21rEEr00            607 	ld	hl,#(_text_box + 0x005e)
   04A9 36 88               608 	ld	(hl),#0x88
   04AB 21rEFr00            609 	ld	hl,#(_text_box + 0x005f)
   04AE 36 88               610 	ld	(hl),#0x88
   04B0 21rF0r00            611 	ld	hl,#(_text_box + 0x0060)
   04B3 36 88               612 	ld	(hl),#0x88
   04B5 21rF1r00            613 	ld	hl,#(_text_box + 0x0061)
   04B8 36 88               614 	ld	(hl),#0x88
   04BA 21rF2r00            615 	ld	hl,#(_text_box + 0x0062)
   04BD 36 88               616 	ld	(hl),#0x88
   04BF 21rF3r00            617 	ld	hl,#(_text_box + 0x0063)
   04C2 36 86               618 	ld	(hl),#0x86
   04C4 21rF4r00            619 	ld	hl,#(_text_box + 0x0064)
   04C7 36 83               620 	ld	(hl),#0x83
   04C9 21rF5r00            621 	ld	hl,#(_text_box + 0x0065)
   04CC 36 84               622 	ld	(hl),#0x84
   04CE 21rF6r00            623 	ld	hl,#(_text_box + 0x0066)
   04D1 36 84               624 	ld	(hl),#0x84
   04D3 21rF7r00            625 	ld	hl,#(_text_box + 0x0067)
   04D6 36 84               626 	ld	(hl),#0x84
   04D8 21rF8r00            627 	ld	hl,#(_text_box + 0x0068)
   04DB 36 84               628 	ld	(hl),#0x84
   04DD 21rF9r00            629 	ld	hl,#(_text_box + 0x0069)
   04E0 36 84               630 	ld	(hl),#0x84
   04E2 21rFAr00            631 	ld	hl,#(_text_box + 0x006a)
   04E5 36 84               632 	ld	(hl),#0x84
   04E7 21rFBr00            633 	ld	hl,#(_text_box + 0x006b)
   04EA 36 84               634 	ld	(hl),#0x84
   04EC 21rFCr00            635 	ld	hl,#(_text_box + 0x006c)
   04EF 36 84               636 	ld	(hl),#0x84
   04F1 21rFDr00            637 	ld	hl,#(_text_box + 0x006d)
   04F4 36 84               638 	ld	(hl),#0x84
   04F6 21rFEr00            639 	ld	hl,#(_text_box + 0x006e)
   04F9 36 84               640 	ld	(hl),#0x84
   04FB 21rFFr00            641 	ld	hl,#(_text_box + 0x006f)
   04FE 36 84               642 	ld	(hl),#0x84
   0500 21r00r01            643 	ld	hl,#(_text_box + 0x0070)
   0503 36 84               644 	ld	(hl),#0x84
   0505 21r01r01            645 	ld	hl,#(_text_box + 0x0071)
   0508 36 84               646 	ld	(hl),#0x84
   050A 21r02r01            647 	ld	hl,#(_text_box + 0x0072)
   050D 36 84               648 	ld	(hl),#0x84
   050F 21r03r01            649 	ld	hl,#(_text_box + 0x0073)
   0512 36 84               650 	ld	(hl),#0x84
   0514 21r04r01            651 	ld	hl,#(_text_box + 0x0074)
   0517 36 84               652 	ld	(hl),#0x84
   0519 21r05r01            653 	ld	hl,#(_text_box + 0x0075)
   051C 36 84               654 	ld	(hl),#0x84
   051E 21r06r01            655 	ld	hl,#(_text_box + 0x0076)
   0521 36 84               656 	ld	(hl),#0x84
   0523 21r07r01            657 	ld	hl,#(_text_box + 0x0077)
   0526 36 85               658 	ld	(hl),#0x85
                            659 ;main.c:92: unsigned char alphabet[] =
   0528 21r08r01            660 	ld	hl,#_alphabet
   052B 36 7C               661 	ld	(hl),#0x7C
   052D 21r09r01            662 	ld	hl,#(_alphabet + 0x0001)
   0530 36 7C               663 	ld	(hl),#0x7C
   0532 21r0Ar01            664 	ld	hl,#(_alphabet + 0x0002)
   0535 36 82               665 	ld	(hl),#0x82
   0537 21r0Br01            666 	ld	hl,#(_alphabet + 0x0003)
   053A 36 82               667 	ld	(hl),#0x82
   053C 21r0Cr01            668 	ld	hl,#(_alphabet + 0x0004)
   053F 36 82               669 	ld	(hl),#0x82
   0541 21r0Dr01            670 	ld	hl,#(_alphabet + 0x0005)
   0544 36 82               671 	ld	(hl),#0x82
   0546 21r0Er01            672 	ld	hl,#(_alphabet + 0x0006)
   0549 36 82               673 	ld	(hl),#0x82
   054B 21r0Fr01            674 	ld	hl,#(_alphabet + 0x0007)
   054E 36 82               675 	ld	(hl),#0x82
   0550 21r10r01            676 	ld	hl,#(_alphabet + 0x0008)
   0553 36 82               677 	ld	(hl),#0x82
   0555 21r11r01            678 	ld	hl,#(_alphabet + 0x0009)
   0558 36 82               679 	ld	(hl),#0x82
   055A 21r12r01            680 	ld	hl,#(_alphabet + 0x000a)
   055D 36 82               681 	ld	(hl),#0x82
   055F 21r13r01            682 	ld	hl,#(_alphabet + 0x000b)
   0562 36 82               683 	ld	(hl),#0x82
   0564 21r14r01            684 	ld	hl,#(_alphabet + 0x000c)
   0567 36 7C               685 	ld	(hl),#0x7C
   0569 21r15r01            686 	ld	hl,#(_alphabet + 0x000d)
   056C 36 7C               687 	ld	(hl),#0x7C
   056E 01r16r01            688 	ld	bc,#_alphabet + 14
   0571 AF                  689 	xor	a, a
   0572 02                  690 	ld	(bc),a
   0573 01r17r01            691 	ld	bc,#_alphabet + 15
   0576 AF                  692 	xor	a, a
   0577 02                  693 	ld	(bc),a
   0578 21r18r01            694 	ld	hl,#(_alphabet + 0x0010)
   057B 36 10               695 	ld	(hl),#0x10
   057D 21r19r01            696 	ld	hl,#(_alphabet + 0x0011)
   0580 36 10               697 	ld	(hl),#0x10
   0582 21r1Ar01            698 	ld	hl,#(_alphabet + 0x0012)
   0585 36 30               699 	ld	(hl),#0x30
   0587 21r1Br01            700 	ld	hl,#(_alphabet + 0x0013)
   058A 36 30               701 	ld	(hl),#0x30
   058C 21r1Cr01            702 	ld	hl,#(_alphabet + 0x0014)
   058F 36 10               703 	ld	(hl),#0x10
   0591 21r1Dr01            704 	ld	hl,#(_alphabet + 0x0015)
   0594 36 10               705 	ld	(hl),#0x10
   0596 21r1Er01            706 	ld	hl,#(_alphabet + 0x0016)
   0599 36 10               707 	ld	(hl),#0x10
   059B 21r1Fr01            708 	ld	hl,#(_alphabet + 0x0017)
   059E 36 10               709 	ld	(hl),#0x10
   05A0 21r20r01            710 	ld	hl,#(_alphabet + 0x0018)
   05A3 36 10               711 	ld	(hl),#0x10
   05A5 21r21r01            712 	ld	hl,#(_alphabet + 0x0019)
   05A8 36 10               713 	ld	(hl),#0x10
   05AA 21r22r01            714 	ld	hl,#(_alphabet + 0x001a)
   05AD 36 10               715 	ld	(hl),#0x10
   05AF 21r23r01            716 	ld	hl,#(_alphabet + 0x001b)
   05B2 36 10               717 	ld	(hl),#0x10
   05B4 21r24r01            718 	ld	hl,#(_alphabet + 0x001c)
   05B7 36 7C               719 	ld	(hl),#0x7C
   05B9 21r25r01            720 	ld	hl,#(_alphabet + 0x001d)
   05BC 36 7C               721 	ld	(hl),#0x7C
   05BE 01r26r01            722 	ld	bc,#_alphabet + 30
   05C1 AF                  723 	xor	a, a
   05C2 02                  724 	ld	(bc),a
   05C3 01r27r01            725 	ld	bc,#_alphabet + 31
   05C6 AF                  726 	xor	a, a
   05C7 02                  727 	ld	(bc),a
   05C8 21r28r01            728 	ld	hl,#(_alphabet + 0x0020)
   05CB 36 7C               729 	ld	(hl),#0x7C
   05CD 21r29r01            730 	ld	hl,#(_alphabet + 0x0021)
   05D0 36 7C               731 	ld	(hl),#0x7C
   05D2 21r2Ar01            732 	ld	hl,#(_alphabet + 0x0022)
   05D5 36 82               733 	ld	(hl),#0x82
   05D7 21r2Br01            734 	ld	hl,#(_alphabet + 0x0023)
   05DA 36 82               735 	ld	(hl),#0x82
   05DC 21r2Cr01            736 	ld	hl,#(_alphabet + 0x0024)
   05DF 36 02               737 	ld	(hl),#0x02
   05E1 21r2Dr01            738 	ld	hl,#(_alphabet + 0x0025)
   05E4 36 02               739 	ld	(hl),#0x02
   05E6 21r2Er01            740 	ld	hl,#(_alphabet + 0x0026)
   05E9 36 0C               741 	ld	(hl),#0x0C
   05EB 21r2Fr01            742 	ld	hl,#(_alphabet + 0x0027)
   05EE 36 0C               743 	ld	(hl),#0x0C
   05F0 21r30r01            744 	ld	hl,#(_alphabet + 0x0028)
   05F3 36 30               745 	ld	(hl),#0x30
   05F5 21r31r01            746 	ld	hl,#(_alphabet + 0x0029)
   05F8 36 30               747 	ld	(hl),#0x30
   05FA 21r32r01            748 	ld	hl,#(_alphabet + 0x002a)
   05FD 36 40               749 	ld	(hl),#0x40
   05FF 21r33r01            750 	ld	hl,#(_alphabet + 0x002b)
   0602 36 40               751 	ld	(hl),#0x40
   0604 21r34r01            752 	ld	hl,#(_alphabet + 0x002c)
   0607 36 FE               753 	ld	(hl),#0xFE
   0609 21r35r01            754 	ld	hl,#(_alphabet + 0x002d)
   060C 36 FE               755 	ld	(hl),#0xFE
   060E 01r36r01            756 	ld	bc,#_alphabet + 46
   0611 AF                  757 	xor	a, a
   0612 02                  758 	ld	(bc),a
   0613 01r37r01            759 	ld	bc,#_alphabet + 47
   0616 AF                  760 	xor	a, a
   0617 02                  761 	ld	(bc),a
   0618 21r38r01            762 	ld	hl,#(_alphabet + 0x0030)
   061B 36 7C               763 	ld	(hl),#0x7C
   061D 21r39r01            764 	ld	hl,#(_alphabet + 0x0031)
   0620 36 7C               765 	ld	(hl),#0x7C
   0622 21r3Ar01            766 	ld	hl,#(_alphabet + 0x0032)
   0625 36 82               767 	ld	(hl),#0x82
   0627 21r3Br01            768 	ld	hl,#(_alphabet + 0x0033)
   062A 36 82               769 	ld	(hl),#0x82
   062C 21r3Cr01            770 	ld	hl,#(_alphabet + 0x0034)
   062F 36 02               771 	ld	(hl),#0x02
   0631 21r3Dr01            772 	ld	hl,#(_alphabet + 0x0035)
   0634 36 02               773 	ld	(hl),#0x02
   0636 21r3Er01            774 	ld	hl,#(_alphabet + 0x0036)
   0639 36 3C               775 	ld	(hl),#0x3C
   063B 21r3Fr01            776 	ld	hl,#(_alphabet + 0x0037)
   063E 36 3C               777 	ld	(hl),#0x3C
   0640 21r40r01            778 	ld	hl,#(_alphabet + 0x0038)
   0643 36 02               779 	ld	(hl),#0x02
   0645 21r41r01            780 	ld	hl,#(_alphabet + 0x0039)
   0648 36 02               781 	ld	(hl),#0x02
   064A 21r42r01            782 	ld	hl,#(_alphabet + 0x003a)
   064D 36 82               783 	ld	(hl),#0x82
   064F 21r43r01            784 	ld	hl,#(_alphabet + 0x003b)
   0652 36 82               785 	ld	(hl),#0x82
   0654 21r44r01            786 	ld	hl,#(_alphabet + 0x003c)
   0657 36 7C               787 	ld	(hl),#0x7C
   0659 21r45r01            788 	ld	hl,#(_alphabet + 0x003d)
   065C 36 7C               789 	ld	(hl),#0x7C
   065E 01r46r01            790 	ld	bc,#_alphabet + 62
   0661 AF                  791 	xor	a, a
   0662 02                  792 	ld	(bc),a
   0663 01r47r01            793 	ld	bc,#_alphabet + 63
   0666 AF                  794 	xor	a, a
   0667 02                  795 	ld	(bc),a
   0668 21r48r01            796 	ld	hl,#(_alphabet + 0x0040)
   066B 36 0C               797 	ld	(hl),#0x0C
   066D 21r49r01            798 	ld	hl,#(_alphabet + 0x0041)
   0670 36 0C               799 	ld	(hl),#0x0C
   0672 21r4Ar01            800 	ld	hl,#(_alphabet + 0x0042)
   0675 36 14               801 	ld	(hl),#0x14
   0677 21r4Br01            802 	ld	hl,#(_alphabet + 0x0043)
   067A 36 14               803 	ld	(hl),#0x14
   067C 21r4Cr01            804 	ld	hl,#(_alphabet + 0x0044)
   067F 36 24               805 	ld	(hl),#0x24
   0681 21r4Dr01            806 	ld	hl,#(_alphabet + 0x0045)
   0684 36 24               807 	ld	(hl),#0x24
   0686 21r4Er01            808 	ld	hl,#(_alphabet + 0x0046)
   0689 36 44               809 	ld	(hl),#0x44
   068B 21r4Fr01            810 	ld	hl,#(_alphabet + 0x0047)
   068E 36 44               811 	ld	(hl),#0x44
   0690 21r50r01            812 	ld	hl,#(_alphabet + 0x0048)
   0693 36 84               813 	ld	(hl),#0x84
   0695 21r51r01            814 	ld	hl,#(_alphabet + 0x0049)
   0698 36 84               815 	ld	(hl),#0x84
   069A 21r52r01            816 	ld	hl,#(_alphabet + 0x004a)
   069D 36 FE               817 	ld	(hl),#0xFE
   069F 21r53r01            818 	ld	hl,#(_alphabet + 0x004b)
   06A2 36 FE               819 	ld	(hl),#0xFE
   06A4 21r54r01            820 	ld	hl,#(_alphabet + 0x004c)
   06A7 36 04               821 	ld	(hl),#0x04
   06A9 21r55r01            822 	ld	hl,#(_alphabet + 0x004d)
   06AC 36 04               823 	ld	(hl),#0x04
   06AE 01r56r01            824 	ld	bc,#_alphabet + 78
   06B1 AF                  825 	xor	a, a
   06B2 02                  826 	ld	(bc),a
   06B3 01r57r01            827 	ld	bc,#_alphabet + 79
   06B6 AF                  828 	xor	a, a
   06B7 02                  829 	ld	(bc),a
   06B8 21r58r01            830 	ld	hl,#(_alphabet + 0x0050)
   06BB 36 FC               831 	ld	(hl),#0xFC
   06BD 21r59r01            832 	ld	hl,#(_alphabet + 0x0051)
   06C0 36 FC               833 	ld	(hl),#0xFC
   06C2 21r5Ar01            834 	ld	hl,#(_alphabet + 0x0052)
   06C5 36 80               835 	ld	(hl),#0x80
   06C7 21r5Br01            836 	ld	hl,#(_alphabet + 0x0053)
   06CA 36 80               837 	ld	(hl),#0x80
   06CC 21r5Cr01            838 	ld	hl,#(_alphabet + 0x0054)
   06CF 36 80               839 	ld	(hl),#0x80
   06D1 21r5Dr01            840 	ld	hl,#(_alphabet + 0x0055)
   06D4 36 80               841 	ld	(hl),#0x80
   06D6 21r5Er01            842 	ld	hl,#(_alphabet + 0x0056)
   06D9 36 FC               843 	ld	(hl),#0xFC
   06DB 21r5Fr01            844 	ld	hl,#(_alphabet + 0x0057)
   06DE 36 FC               845 	ld	(hl),#0xFC
   06E0 21r60r01            846 	ld	hl,#(_alphabet + 0x0058)
   06E3 36 02               847 	ld	(hl),#0x02
   06E5 21r61r01            848 	ld	hl,#(_alphabet + 0x0059)
   06E8 36 02               849 	ld	(hl),#0x02
   06EA 21r62r01            850 	ld	hl,#(_alphabet + 0x005a)
   06ED 36 82               851 	ld	(hl),#0x82
   06EF 21r63r01            852 	ld	hl,#(_alphabet + 0x005b)
   06F2 36 82               853 	ld	(hl),#0x82
   06F4 21r64r01            854 	ld	hl,#(_alphabet + 0x005c)
   06F7 36 7C               855 	ld	(hl),#0x7C
   06F9 21r65r01            856 	ld	hl,#(_alphabet + 0x005d)
   06FC 36 7C               857 	ld	(hl),#0x7C
   06FE 01r66r01            858 	ld	bc,#_alphabet + 94
   0701 AF                  859 	xor	a, a
   0702 02                  860 	ld	(bc),a
   0703 01r67r01            861 	ld	bc,#_alphabet + 95
   0706 AF                  862 	xor	a, a
   0707 02                  863 	ld	(bc),a
   0708 21r68r01            864 	ld	hl,#(_alphabet + 0x0060)
   070B 36 7C               865 	ld	(hl),#0x7C
   070D 21r69r01            866 	ld	hl,#(_alphabet + 0x0061)
   0710 36 7C               867 	ld	(hl),#0x7C
   0712 21r6Ar01            868 	ld	hl,#(_alphabet + 0x0062)
   0715 36 82               869 	ld	(hl),#0x82
   0717 21r6Br01            870 	ld	hl,#(_alphabet + 0x0063)
   071A 36 82               871 	ld	(hl),#0x82
   071C 21r6Cr01            872 	ld	hl,#(_alphabet + 0x0064)
   071F 36 80               873 	ld	(hl),#0x80
   0721 21r6Dr01            874 	ld	hl,#(_alphabet + 0x0065)
   0724 36 80               875 	ld	(hl),#0x80
   0726 21r6Er01            876 	ld	hl,#(_alphabet + 0x0066)
   0729 36 FC               877 	ld	(hl),#0xFC
   072B 21r6Fr01            878 	ld	hl,#(_alphabet + 0x0067)
   072E 36 FC               879 	ld	(hl),#0xFC
   0730 21r70r01            880 	ld	hl,#(_alphabet + 0x0068)
   0733 36 82               881 	ld	(hl),#0x82
   0735 21r71r01            882 	ld	hl,#(_alphabet + 0x0069)
   0738 36 82               883 	ld	(hl),#0x82
   073A 21r72r01            884 	ld	hl,#(_alphabet + 0x006a)
   073D 36 82               885 	ld	(hl),#0x82
   073F 21r73r01            886 	ld	hl,#(_alphabet + 0x006b)
   0742 36 82               887 	ld	(hl),#0x82
   0744 21r74r01            888 	ld	hl,#(_alphabet + 0x006c)
   0747 36 7C               889 	ld	(hl),#0x7C
   0749 21r75r01            890 	ld	hl,#(_alphabet + 0x006d)
   074C 36 7C               891 	ld	(hl),#0x7C
   074E 01r76r01            892 	ld	bc,#_alphabet + 110
   0751 AF                  893 	xor	a, a
   0752 02                  894 	ld	(bc),a
   0753 01r77r01            895 	ld	bc,#_alphabet + 111
   0756 AF                  896 	xor	a, a
   0757 02                  897 	ld	(bc),a
   0758 21r78r01            898 	ld	hl,#(_alphabet + 0x0070)
   075B 36 7E               899 	ld	(hl),#0x7E
   075D 21r79r01            900 	ld	hl,#(_alphabet + 0x0071)
   0760 36 7E               901 	ld	(hl),#0x7E
   0762 21r7Ar01            902 	ld	hl,#(_alphabet + 0x0072)
   0765 36 82               903 	ld	(hl),#0x82
   0767 21r7Br01            904 	ld	hl,#(_alphabet + 0x0073)
   076A 36 82               905 	ld	(hl),#0x82
   076C 21r7Cr01            906 	ld	hl,#(_alphabet + 0x0074)
   076F 36 02               907 	ld	(hl),#0x02
   0771 21r7Dr01            908 	ld	hl,#(_alphabet + 0x0075)
   0774 36 02               909 	ld	(hl),#0x02
   0776 21r7Er01            910 	ld	hl,#(_alphabet + 0x0076)
   0779 36 04               911 	ld	(hl),#0x04
   077B 21r7Fr01            912 	ld	hl,#(_alphabet + 0x0077)
   077E 36 04               913 	ld	(hl),#0x04
   0780 21r80r01            914 	ld	hl,#(_alphabet + 0x0078)
   0783 36 04               915 	ld	(hl),#0x04
   0785 21r81r01            916 	ld	hl,#(_alphabet + 0x0079)
   0788 36 04               917 	ld	(hl),#0x04
   078A 21r82r01            918 	ld	hl,#(_alphabet + 0x007a)
   078D 36 08               919 	ld	(hl),#0x08
   078F 21r83r01            920 	ld	hl,#(_alphabet + 0x007b)
   0792 36 08               921 	ld	(hl),#0x08
   0794 21r84r01            922 	ld	hl,#(_alphabet + 0x007c)
   0797 36 08               923 	ld	(hl),#0x08
   0799 21r85r01            924 	ld	hl,#(_alphabet + 0x007d)
   079C 36 08               925 	ld	(hl),#0x08
   079E 01r86r01            926 	ld	bc,#_alphabet + 126
   07A1 AF                  927 	xor	a, a
   07A2 02                  928 	ld	(bc),a
   07A3 01r87r01            929 	ld	bc,#_alphabet + 127
   07A6 AF                  930 	xor	a, a
   07A7 02                  931 	ld	(bc),a
   07A8 21r88r01            932 	ld	hl,#(_alphabet + 0x0080)
   07AB 36 7C               933 	ld	(hl),#0x7C
   07AD 21r89r01            934 	ld	hl,#(_alphabet + 0x0081)
   07B0 36 7C               935 	ld	(hl),#0x7C
   07B2 21r8Ar01            936 	ld	hl,#(_alphabet + 0x0082)
   07B5 36 82               937 	ld	(hl),#0x82
   07B7 21r8Br01            938 	ld	hl,#(_alphabet + 0x0083)
   07BA 36 82               939 	ld	(hl),#0x82
   07BC 21r8Cr01            940 	ld	hl,#(_alphabet + 0x0084)
   07BF 36 82               941 	ld	(hl),#0x82
   07C1 21r8Dr01            942 	ld	hl,#(_alphabet + 0x0085)
   07C4 36 82               943 	ld	(hl),#0x82
   07C6 21r8Er01            944 	ld	hl,#(_alphabet + 0x0086)
   07C9 36 7C               945 	ld	(hl),#0x7C
   07CB 21r8Fr01            946 	ld	hl,#(_alphabet + 0x0087)
   07CE 36 7C               947 	ld	(hl),#0x7C
   07D0 21r90r01            948 	ld	hl,#(_alphabet + 0x0088)
   07D3 36 82               949 	ld	(hl),#0x82
   07D5 21r91r01            950 	ld	hl,#(_alphabet + 0x0089)
   07D8 36 82               951 	ld	(hl),#0x82
   07DA 21r92r01            952 	ld	hl,#(_alphabet + 0x008a)
   07DD 36 82               953 	ld	(hl),#0x82
   07DF 21r93r01            954 	ld	hl,#(_alphabet + 0x008b)
   07E2 36 82               955 	ld	(hl),#0x82
   07E4 21r94r01            956 	ld	hl,#(_alphabet + 0x008c)
   07E7 36 7C               957 	ld	(hl),#0x7C
   07E9 21r95r01            958 	ld	hl,#(_alphabet + 0x008d)
   07EC 36 7C               959 	ld	(hl),#0x7C
   07EE 01r96r01            960 	ld	bc,#_alphabet + 142
   07F1 AF                  961 	xor	a, a
   07F2 02                  962 	ld	(bc),a
   07F3 01r97r01            963 	ld	bc,#_alphabet + 143
   07F6 AF                  964 	xor	a, a
   07F7 02                  965 	ld	(bc),a
   07F8 21r98r01            966 	ld	hl,#(_alphabet + 0x0090)
   07FB 36 7C               967 	ld	(hl),#0x7C
   07FD 21r99r01            968 	ld	hl,#(_alphabet + 0x0091)
   0800 36 7C               969 	ld	(hl),#0x7C
   0802 21r9Ar01            970 	ld	hl,#(_alphabet + 0x0092)
   0805 36 82               971 	ld	(hl),#0x82
   0807 21r9Br01            972 	ld	hl,#(_alphabet + 0x0093)
   080A 36 82               973 	ld	(hl),#0x82
   080C 21r9Cr01            974 	ld	hl,#(_alphabet + 0x0094)
   080F 36 82               975 	ld	(hl),#0x82
   0811 21r9Dr01            976 	ld	hl,#(_alphabet + 0x0095)
   0814 36 82               977 	ld	(hl),#0x82
   0816 21r9Er01            978 	ld	hl,#(_alphabet + 0x0096)
   0819 36 7E               979 	ld	(hl),#0x7E
   081B 21r9Fr01            980 	ld	hl,#(_alphabet + 0x0097)
   081E 36 7E               981 	ld	(hl),#0x7E
   0820 21rA0r01            982 	ld	hl,#(_alphabet + 0x0098)
   0823 36 02               983 	ld	(hl),#0x02
   0825 21rA1r01            984 	ld	hl,#(_alphabet + 0x0099)
   0828 36 02               985 	ld	(hl),#0x02
   082A 21rA2r01            986 	ld	hl,#(_alphabet + 0x009a)
   082D 36 82               987 	ld	(hl),#0x82
   082F 21rA3r01            988 	ld	hl,#(_alphabet + 0x009b)
   0832 36 82               989 	ld	(hl),#0x82
   0834 21rA4r01            990 	ld	hl,#(_alphabet + 0x009c)
   0837 36 7C               991 	ld	(hl),#0x7C
   0839 21rA5r01            992 	ld	hl,#(_alphabet + 0x009d)
   083C 36 7C               993 	ld	(hl),#0x7C
   083E 01rA6r01            994 	ld	bc,#_alphabet + 158
   0841 AF                  995 	xor	a, a
   0842 02                  996 	ld	(bc),a
   0843 01rA7r01            997 	ld	bc,#_alphabet + 159
   0846 AF                  998 	xor	a, a
   0847 02                  999 	ld	(bc),a
   0848 21rA8r01           1000 	ld	hl,#(_alphabet + 0x00a0)
   084B 36 10              1001 	ld	(hl),#0x10
   084D 21rA9r01           1002 	ld	hl,#(_alphabet + 0x00a1)
   0850 36 10              1003 	ld	(hl),#0x10
   0852 21rAAr01           1004 	ld	hl,#(_alphabet + 0x00a2)
   0855 36 28              1005 	ld	(hl),#0x28
   0857 21rABr01           1006 	ld	hl,#(_alphabet + 0x00a3)
   085A 36 28              1007 	ld	(hl),#0x28
   085C 21rACr01           1008 	ld	hl,#(_alphabet + 0x00a4)
   085F 36 28              1009 	ld	(hl),#0x28
   0861 21rADr01           1010 	ld	hl,#(_alphabet + 0x00a5)
   0864 36 28              1011 	ld	(hl),#0x28
   0866 21rAEr01           1012 	ld	hl,#(_alphabet + 0x00a6)
   0869 36 44              1013 	ld	(hl),#0x44
   086B 21rAFr01           1014 	ld	hl,#(_alphabet + 0x00a7)
   086E 36 44              1015 	ld	(hl),#0x44
   0870 21rB0r01           1016 	ld	hl,#(_alphabet + 0x00a8)
   0873 36 7C              1017 	ld	(hl),#0x7C
   0875 21rB1r01           1018 	ld	hl,#(_alphabet + 0x00a9)
   0878 36 7C              1019 	ld	(hl),#0x7C
   087A 21rB2r01           1020 	ld	hl,#(_alphabet + 0x00aa)
   087D 36 82              1021 	ld	(hl),#0x82
   087F 21rB3r01           1022 	ld	hl,#(_alphabet + 0x00ab)
   0882 36 82              1023 	ld	(hl),#0x82
   0884 21rB4r01           1024 	ld	hl,#(_alphabet + 0x00ac)
   0887 36 82              1025 	ld	(hl),#0x82
   0889 21rB5r01           1026 	ld	hl,#(_alphabet + 0x00ad)
   088C 36 82              1027 	ld	(hl),#0x82
   088E 01rB6r01           1028 	ld	bc,#_alphabet + 174
   0891 AF                 1029 	xor	a, a
   0892 02                 1030 	ld	(bc),a
   0893 01rB7r01           1031 	ld	bc,#_alphabet + 175
   0896 AF                 1032 	xor	a, a
   0897 02                 1033 	ld	(bc),a
   0898 21rB8r01           1034 	ld	hl,#(_alphabet + 0x00b0)
   089B 36 F8              1035 	ld	(hl),#0xF8
   089D 21rB9r01           1036 	ld	hl,#(_alphabet + 0x00b1)
   08A0 36 F8              1037 	ld	(hl),#0xF8
   08A2 21rBAr01           1038 	ld	hl,#(_alphabet + 0x00b2)
   08A5 36 84              1039 	ld	(hl),#0x84
   08A7 21rBBr01           1040 	ld	hl,#(_alphabet + 0x00b3)
   08AA 36 84              1041 	ld	(hl),#0x84
   08AC 21rBCr01           1042 	ld	hl,#(_alphabet + 0x00b4)
   08AF 36 84              1043 	ld	(hl),#0x84
   08B1 21rBDr01           1044 	ld	hl,#(_alphabet + 0x00b5)
   08B4 36 84              1045 	ld	(hl),#0x84
   08B6 21rBEr01           1046 	ld	hl,#(_alphabet + 0x00b6)
   08B9 36 FC              1047 	ld	(hl),#0xFC
   08BB 21rBFr01           1048 	ld	hl,#(_alphabet + 0x00b7)
   08BE 36 FC              1049 	ld	(hl),#0xFC
   08C0 21rC0r01           1050 	ld	hl,#(_alphabet + 0x00b8)
   08C3 36 82              1051 	ld	(hl),#0x82
   08C5 21rC1r01           1052 	ld	hl,#(_alphabet + 0x00b9)
   08C8 36 82              1053 	ld	(hl),#0x82
   08CA 21rC2r01           1054 	ld	hl,#(_alphabet + 0x00ba)
   08CD 36 82              1055 	ld	(hl),#0x82
   08CF 21rC3r01           1056 	ld	hl,#(_alphabet + 0x00bb)
   08D2 36 82              1057 	ld	(hl),#0x82
   08D4 21rC4r01           1058 	ld	hl,#(_alphabet + 0x00bc)
   08D7 36 FC              1059 	ld	(hl),#0xFC
   08D9 21rC5r01           1060 	ld	hl,#(_alphabet + 0x00bd)
   08DC 36 FC              1061 	ld	(hl),#0xFC
   08DE 01rC6r01           1062 	ld	bc,#_alphabet + 190
   08E1 AF                 1063 	xor	a, a
   08E2 02                 1064 	ld	(bc),a
   08E3 01rC7r01           1065 	ld	bc,#_alphabet + 191
   08E6 AF                 1066 	xor	a, a
   08E7 02                 1067 	ld	(bc),a
   08E8 21rC8r01           1068 	ld	hl,#(_alphabet + 0x00c0)
   08EB 36 3C              1069 	ld	(hl),#0x3C
   08ED 21rC9r01           1070 	ld	hl,#(_alphabet + 0x00c1)
   08F0 36 3C              1071 	ld	(hl),#0x3C
   08F2 21rCAr01           1072 	ld	hl,#(_alphabet + 0x00c2)
   08F5 36 42              1073 	ld	(hl),#0x42
   08F7 21rCBr01           1074 	ld	hl,#(_alphabet + 0x00c3)
   08FA 36 42              1075 	ld	(hl),#0x42
   08FC 21rCCr01           1076 	ld	hl,#(_alphabet + 0x00c4)
   08FF 36 80              1077 	ld	(hl),#0x80
   0901 21rCDr01           1078 	ld	hl,#(_alphabet + 0x00c5)
   0904 36 80              1079 	ld	(hl),#0x80
   0906 21rCEr01           1080 	ld	hl,#(_alphabet + 0x00c6)
   0909 36 80              1081 	ld	(hl),#0x80
   090B 21rCFr01           1082 	ld	hl,#(_alphabet + 0x00c7)
   090E 36 80              1083 	ld	(hl),#0x80
   0910 21rD0r01           1084 	ld	hl,#(_alphabet + 0x00c8)
   0913 36 80              1085 	ld	(hl),#0x80
   0915 21rD1r01           1086 	ld	hl,#(_alphabet + 0x00c9)
   0918 36 80              1087 	ld	(hl),#0x80
   091A 21rD2r01           1088 	ld	hl,#(_alphabet + 0x00ca)
   091D 36 42              1089 	ld	(hl),#0x42
   091F 21rD3r01           1090 	ld	hl,#(_alphabet + 0x00cb)
   0922 36 42              1091 	ld	(hl),#0x42
   0924 21rD4r01           1092 	ld	hl,#(_alphabet + 0x00cc)
   0927 36 3C              1093 	ld	(hl),#0x3C
   0929 21rD5r01           1094 	ld	hl,#(_alphabet + 0x00cd)
   092C 36 3C              1095 	ld	(hl),#0x3C
   092E 01rD6r01           1096 	ld	bc,#_alphabet + 206
   0931 AF                 1097 	xor	a, a
   0932 02                 1098 	ld	(bc),a
   0933 01rD7r01           1099 	ld	bc,#_alphabet + 207
   0936 AF                 1100 	xor	a, a
   0937 02                 1101 	ld	(bc),a
   0938 21rD8r01           1102 	ld	hl,#(_alphabet + 0x00d0)
   093B 36 F8              1103 	ld	(hl),#0xF8
   093D 21rD9r01           1104 	ld	hl,#(_alphabet + 0x00d1)
   0940 36 F8              1105 	ld	(hl),#0xF8
   0942 21rDAr01           1106 	ld	hl,#(_alphabet + 0x00d2)
   0945 36 84              1107 	ld	(hl),#0x84
   0947 21rDBr01           1108 	ld	hl,#(_alphabet + 0x00d3)
   094A 36 84              1109 	ld	(hl),#0x84
   094C 21rDCr01           1110 	ld	hl,#(_alphabet + 0x00d4)
   094F 36 82              1111 	ld	(hl),#0x82
   0951 21rDDr01           1112 	ld	hl,#(_alphabet + 0x00d5)
   0954 36 82              1113 	ld	(hl),#0x82
   0956 21rDEr01           1114 	ld	hl,#(_alphabet + 0x00d6)
   0959 36 82              1115 	ld	(hl),#0x82
   095B 21rDFr01           1116 	ld	hl,#(_alphabet + 0x00d7)
   095E 36 82              1117 	ld	(hl),#0x82
   0960 21rE0r01           1118 	ld	hl,#(_alphabet + 0x00d8)
   0963 36 82              1119 	ld	(hl),#0x82
   0965 21rE1r01           1120 	ld	hl,#(_alphabet + 0x00d9)
   0968 36 82              1121 	ld	(hl),#0x82
   096A 21rE2r01           1122 	ld	hl,#(_alphabet + 0x00da)
   096D 36 84              1123 	ld	(hl),#0x84
   096F 21rE3r01           1124 	ld	hl,#(_alphabet + 0x00db)
   0972 36 84              1125 	ld	(hl),#0x84
   0974 21rE4r01           1126 	ld	hl,#(_alphabet + 0x00dc)
   0977 36 F8              1127 	ld	(hl),#0xF8
   0979 21rE5r01           1128 	ld	hl,#(_alphabet + 0x00dd)
   097C 36 F8              1129 	ld	(hl),#0xF8
   097E 01rE6r01           1130 	ld	bc,#_alphabet + 222
   0981 AF                 1131 	xor	a, a
   0982 02                 1132 	ld	(bc),a
   0983 01rE7r01           1133 	ld	bc,#_alphabet + 223
   0986 AF                 1134 	xor	a, a
   0987 02                 1135 	ld	(bc),a
   0988 21rE8r01           1136 	ld	hl,#(_alphabet + 0x00e0)
   098B 36 FE              1137 	ld	(hl),#0xFE
   098D 21rE9r01           1138 	ld	hl,#(_alphabet + 0x00e1)
   0990 36 FE              1139 	ld	(hl),#0xFE
   0992 21rEAr01           1140 	ld	hl,#(_alphabet + 0x00e2)
   0995 36 80              1141 	ld	(hl),#0x80
   0997 21rEBr01           1142 	ld	hl,#(_alphabet + 0x00e3)
   099A 36 80              1143 	ld	(hl),#0x80
   099C 21rECr01           1144 	ld	hl,#(_alphabet + 0x00e4)
   099F 36 80              1145 	ld	(hl),#0x80
   09A1 21rEDr01           1146 	ld	hl,#(_alphabet + 0x00e5)
   09A4 36 80              1147 	ld	(hl),#0x80
   09A6 21rEEr01           1148 	ld	hl,#(_alphabet + 0x00e6)
   09A9 36 FC              1149 	ld	(hl),#0xFC
   09AB 21rEFr01           1150 	ld	hl,#(_alphabet + 0x00e7)
   09AE 36 FC              1151 	ld	(hl),#0xFC
   09B0 21rF0r01           1152 	ld	hl,#(_alphabet + 0x00e8)
   09B3 36 80              1153 	ld	(hl),#0x80
   09B5 21rF1r01           1154 	ld	hl,#(_alphabet + 0x00e9)
   09B8 36 80              1155 	ld	(hl),#0x80
   09BA 21rF2r01           1156 	ld	hl,#(_alphabet + 0x00ea)
   09BD 36 80              1157 	ld	(hl),#0x80
   09BF 21rF3r01           1158 	ld	hl,#(_alphabet + 0x00eb)
   09C2 36 80              1159 	ld	(hl),#0x80
   09C4 21rF4r01           1160 	ld	hl,#(_alphabet + 0x00ec)
   09C7 36 FE              1161 	ld	(hl),#0xFE
   09C9 21rF5r01           1162 	ld	hl,#(_alphabet + 0x00ed)
   09CC 36 FE              1163 	ld	(hl),#0xFE
   09CE 01rF6r01           1164 	ld	bc,#_alphabet + 238
   09D1 AF                 1165 	xor	a, a
   09D2 02                 1166 	ld	(bc),a
   09D3 01rF7r01           1167 	ld	bc,#_alphabet + 239
   09D6 AF                 1168 	xor	a, a
   09D7 02                 1169 	ld	(bc),a
   09D8 21rF8r01           1170 	ld	hl,#(_alphabet + 0x00f0)
   09DB 36 FE              1171 	ld	(hl),#0xFE
   09DD 21rF9r01           1172 	ld	hl,#(_alphabet + 0x00f1)
   09E0 36 FE              1173 	ld	(hl),#0xFE
   09E2 21rFAr01           1174 	ld	hl,#(_alphabet + 0x00f2)
   09E5 36 80              1175 	ld	(hl),#0x80
   09E7 21rFBr01           1176 	ld	hl,#(_alphabet + 0x00f3)
   09EA 36 80              1177 	ld	(hl),#0x80
   09EC 21rFCr01           1178 	ld	hl,#(_alphabet + 0x00f4)
   09EF 36 80              1179 	ld	(hl),#0x80
   09F1 21rFDr01           1180 	ld	hl,#(_alphabet + 0x00f5)
   09F4 36 80              1181 	ld	(hl),#0x80
   09F6 21rFEr01           1182 	ld	hl,#(_alphabet + 0x00f6)
   09F9 36 FC              1183 	ld	(hl),#0xFC
   09FB 21rFFr01           1184 	ld	hl,#(_alphabet + 0x00f7)
   09FE 36 FC              1185 	ld	(hl),#0xFC
   0A00 21r00r02           1186 	ld	hl,#(_alphabet + 0x00f8)
   0A03 36 80              1187 	ld	(hl),#0x80
   0A05 21r01r02           1188 	ld	hl,#(_alphabet + 0x00f9)
   0A08 36 80              1189 	ld	(hl),#0x80
   0A0A 21r02r02           1190 	ld	hl,#(_alphabet + 0x00fa)
   0A0D 36 80              1191 	ld	(hl),#0x80
   0A0F 21r03r02           1192 	ld	hl,#(_alphabet + 0x00fb)
   0A12 36 80              1193 	ld	(hl),#0x80
   0A14 21r04r02           1194 	ld	hl,#(_alphabet + 0x00fc)
   0A17 36 80              1195 	ld	(hl),#0x80
   0A19 21r05r02           1196 	ld	hl,#(_alphabet + 0x00fd)
   0A1C 36 80              1197 	ld	(hl),#0x80
   0A1E 01r06r02           1198 	ld	bc,#_alphabet + 254
   0A21 AF                 1199 	xor	a, a
   0A22 02                 1200 	ld	(bc),a
   0A23 01r07r02           1201 	ld	bc,#_alphabet + 255
   0A26 AF                 1202 	xor	a, a
   0A27 02                 1203 	ld	(bc),a
   0A28 21r08r02           1204 	ld	hl,#(_alphabet + 0x0100)
   0A2B 36 3C              1205 	ld	(hl),#0x3C
   0A2D 21r09r02           1206 	ld	hl,#(_alphabet + 0x0101)
   0A30 36 3C              1207 	ld	(hl),#0x3C
   0A32 21r0Ar02           1208 	ld	hl,#(_alphabet + 0x0102)
   0A35 36 42              1209 	ld	(hl),#0x42
   0A37 21r0Br02           1210 	ld	hl,#(_alphabet + 0x0103)
   0A3A 36 42              1211 	ld	(hl),#0x42
   0A3C 21r0Cr02           1212 	ld	hl,#(_alphabet + 0x0104)
   0A3F 36 80              1213 	ld	(hl),#0x80
   0A41 21r0Dr02           1214 	ld	hl,#(_alphabet + 0x0105)
   0A44 36 80              1215 	ld	(hl),#0x80
   0A46 21r0Er02           1216 	ld	hl,#(_alphabet + 0x0106)
   0A49 36 9E              1217 	ld	(hl),#0x9E
   0A4B 21r0Fr02           1218 	ld	hl,#(_alphabet + 0x0107)
   0A4E 36 9E              1219 	ld	(hl),#0x9E
   0A50 21r10r02           1220 	ld	hl,#(_alphabet + 0x0108)
   0A53 36 82              1221 	ld	(hl),#0x82
   0A55 21r11r02           1222 	ld	hl,#(_alphabet + 0x0109)
   0A58 36 82              1223 	ld	(hl),#0x82
   0A5A 21r12r02           1224 	ld	hl,#(_alphabet + 0x010a)
   0A5D 36 42              1225 	ld	(hl),#0x42
   0A5F 21r13r02           1226 	ld	hl,#(_alphabet + 0x010b)
   0A62 36 42              1227 	ld	(hl),#0x42
   0A64 21r14r02           1228 	ld	hl,#(_alphabet + 0x010c)
   0A67 36 3C              1229 	ld	(hl),#0x3C
   0A69 21r15r02           1230 	ld	hl,#(_alphabet + 0x010d)
   0A6C 36 3C              1231 	ld	(hl),#0x3C
   0A6E 01r16r02           1232 	ld	bc,#_alphabet + 270
   0A71 AF                 1233 	xor	a, a
   0A72 02                 1234 	ld	(bc),a
   0A73 01r17r02           1235 	ld	bc,#_alphabet + 271
   0A76 AF                 1236 	xor	a, a
   0A77 02                 1237 	ld	(bc),a
   0A78 21r18r02           1238 	ld	hl,#(_alphabet + 0x0110)
   0A7B 36 82              1239 	ld	(hl),#0x82
   0A7D 21r19r02           1240 	ld	hl,#(_alphabet + 0x0111)
   0A80 36 82              1241 	ld	(hl),#0x82
   0A82 21r1Ar02           1242 	ld	hl,#(_alphabet + 0x0112)
   0A85 36 82              1243 	ld	(hl),#0x82
   0A87 21r1Br02           1244 	ld	hl,#(_alphabet + 0x0113)
   0A8A 36 82              1245 	ld	(hl),#0x82
   0A8C 21r1Cr02           1246 	ld	hl,#(_alphabet + 0x0114)
   0A8F 36 82              1247 	ld	(hl),#0x82
   0A91 21r1Dr02           1248 	ld	hl,#(_alphabet + 0x0115)
   0A94 36 82              1249 	ld	(hl),#0x82
   0A96 21r1Er02           1250 	ld	hl,#(_alphabet + 0x0116)
   0A99 36 FE              1251 	ld	(hl),#0xFE
   0A9B 21r1Fr02           1252 	ld	hl,#(_alphabet + 0x0117)
   0A9E 36 FE              1253 	ld	(hl),#0xFE
   0AA0 21r20r02           1254 	ld	hl,#(_alphabet + 0x0118)
   0AA3 36 82              1255 	ld	(hl),#0x82
   0AA5 21r21r02           1256 	ld	hl,#(_alphabet + 0x0119)
   0AA8 36 82              1257 	ld	(hl),#0x82
   0AAA 21r22r02           1258 	ld	hl,#(_alphabet + 0x011a)
   0AAD 36 82              1259 	ld	(hl),#0x82
   0AAF 21r23r02           1260 	ld	hl,#(_alphabet + 0x011b)
   0AB2 36 82              1261 	ld	(hl),#0x82
   0AB4 21r24r02           1262 	ld	hl,#(_alphabet + 0x011c)
   0AB7 36 82              1263 	ld	(hl),#0x82
   0AB9 21r25r02           1264 	ld	hl,#(_alphabet + 0x011d)
   0ABC 36 82              1265 	ld	(hl),#0x82
   0ABE 01r26r02           1266 	ld	bc,#_alphabet + 286
   0AC1 AF                 1267 	xor	a, a
   0AC2 02                 1268 	ld	(bc),a
   0AC3 01r27r02           1269 	ld	bc,#_alphabet + 287
   0AC6 AF                 1270 	xor	a, a
   0AC7 02                 1271 	ld	(bc),a
   0AC8 21r28r02           1272 	ld	hl,#(_alphabet + 0x0120)
   0ACB 36 7C              1273 	ld	(hl),#0x7C
   0ACD 21r29r02           1274 	ld	hl,#(_alphabet + 0x0121)
   0AD0 36 7C              1275 	ld	(hl),#0x7C
   0AD2 21r2Ar02           1276 	ld	hl,#(_alphabet + 0x0122)
   0AD5 36 10              1277 	ld	(hl),#0x10
   0AD7 21r2Br02           1278 	ld	hl,#(_alphabet + 0x0123)
   0ADA 36 10              1279 	ld	(hl),#0x10
   0ADC 21r2Cr02           1280 	ld	hl,#(_alphabet + 0x0124)
   0ADF 36 10              1281 	ld	(hl),#0x10
   0AE1 21r2Dr02           1282 	ld	hl,#(_alphabet + 0x0125)
   0AE4 36 10              1283 	ld	(hl),#0x10
   0AE6 21r2Er02           1284 	ld	hl,#(_alphabet + 0x0126)
   0AE9 36 10              1285 	ld	(hl),#0x10
   0AEB 21r2Fr02           1286 	ld	hl,#(_alphabet + 0x0127)
   0AEE 36 10              1287 	ld	(hl),#0x10
   0AF0 21r30r02           1288 	ld	hl,#(_alphabet + 0x0128)
   0AF3 36 10              1289 	ld	(hl),#0x10
   0AF5 21r31r02           1290 	ld	hl,#(_alphabet + 0x0129)
   0AF8 36 10              1291 	ld	(hl),#0x10
   0AFA 21r32r02           1292 	ld	hl,#(_alphabet + 0x012a)
   0AFD 36 10              1293 	ld	(hl),#0x10
   0AFF 21r33r02           1294 	ld	hl,#(_alphabet + 0x012b)
   0B02 36 10              1295 	ld	(hl),#0x10
   0B04 21r34r02           1296 	ld	hl,#(_alphabet + 0x012c)
   0B07 36 7C              1297 	ld	(hl),#0x7C
   0B09 21r35r02           1298 	ld	hl,#(_alphabet + 0x012d)
   0B0C 36 7C              1299 	ld	(hl),#0x7C
   0B0E 01r36r02           1300 	ld	bc,#_alphabet + 302
   0B11 AF                 1301 	xor	a, a
   0B12 02                 1302 	ld	(bc),a
   0B13 01r37r02           1303 	ld	bc,#_alphabet + 303
   0B16 AF                 1304 	xor	a, a
   0B17 02                 1305 	ld	(bc),a
   0B18 21r38r02           1306 	ld	hl,#(_alphabet + 0x0130)
   0B1B 36 7E              1307 	ld	(hl),#0x7E
   0B1D 21r39r02           1308 	ld	hl,#(_alphabet + 0x0131)
   0B20 36 7E              1309 	ld	(hl),#0x7E
   0B22 21r3Ar02           1310 	ld	hl,#(_alphabet + 0x0132)
   0B25 36 08              1311 	ld	(hl),#0x08
   0B27 21r3Br02           1312 	ld	hl,#(_alphabet + 0x0133)
   0B2A 36 08              1313 	ld	(hl),#0x08
   0B2C 21r3Cr02           1314 	ld	hl,#(_alphabet + 0x0134)
   0B2F 36 08              1315 	ld	(hl),#0x08
   0B31 21r3Dr02           1316 	ld	hl,#(_alphabet + 0x0135)
   0B34 36 08              1317 	ld	(hl),#0x08
   0B36 21r3Er02           1318 	ld	hl,#(_alphabet + 0x0136)
   0B39 36 08              1319 	ld	(hl),#0x08
   0B3B 21r3Fr02           1320 	ld	hl,#(_alphabet + 0x0137)
   0B3E 36 08              1321 	ld	(hl),#0x08
   0B40 21r40r02           1322 	ld	hl,#(_alphabet + 0x0138)
   0B43 36 88              1323 	ld	(hl),#0x88
   0B45 21r41r02           1324 	ld	hl,#(_alphabet + 0x0139)
   0B48 36 88              1325 	ld	(hl),#0x88
   0B4A 21r42r02           1326 	ld	hl,#(_alphabet + 0x013a)
   0B4D 36 88              1327 	ld	(hl),#0x88
   0B4F 21r43r02           1328 	ld	hl,#(_alphabet + 0x013b)
   0B52 36 88              1329 	ld	(hl),#0x88
   0B54 21r44r02           1330 	ld	hl,#(_alphabet + 0x013c)
   0B57 36 70              1331 	ld	(hl),#0x70
   0B59 21r45r02           1332 	ld	hl,#(_alphabet + 0x013d)
   0B5C 36 70              1333 	ld	(hl),#0x70
   0B5E 01r46r02           1334 	ld	bc,#_alphabet + 318
   0B61 AF                 1335 	xor	a, a
   0B62 02                 1336 	ld	(bc),a
   0B63 01r47r02           1337 	ld	bc,#_alphabet + 319
   0B66 AF                 1338 	xor	a, a
   0B67 02                 1339 	ld	(bc),a
   0B68 21r48r02           1340 	ld	hl,#(_alphabet + 0x0140)
   0B6B 36 84              1341 	ld	(hl),#0x84
   0B6D 21r49r02           1342 	ld	hl,#(_alphabet + 0x0141)
   0B70 36 84              1343 	ld	(hl),#0x84
   0B72 21r4Ar02           1344 	ld	hl,#(_alphabet + 0x0142)
   0B75 36 88              1345 	ld	(hl),#0x88
   0B77 21r4Br02           1346 	ld	hl,#(_alphabet + 0x0143)
   0B7A 36 88              1347 	ld	(hl),#0x88
   0B7C 21r4Cr02           1348 	ld	hl,#(_alphabet + 0x0144)
   0B7F 36 90              1349 	ld	(hl),#0x90
   0B81 21r4Dr02           1350 	ld	hl,#(_alphabet + 0x0145)
   0B84 36 90              1351 	ld	(hl),#0x90
   0B86 21r4Er02           1352 	ld	hl,#(_alphabet + 0x0146)
   0B89 36 B0              1353 	ld	(hl),#0xB0
   0B8B 21r4Fr02           1354 	ld	hl,#(_alphabet + 0x0147)
   0B8E 36 B0              1355 	ld	(hl),#0xB0
   0B90 21r50r02           1356 	ld	hl,#(_alphabet + 0x0148)
   0B93 36 C8              1357 	ld	(hl),#0xC8
   0B95 21r51r02           1358 	ld	hl,#(_alphabet + 0x0149)
   0B98 36 C8              1359 	ld	(hl),#0xC8
   0B9A 21r52r02           1360 	ld	hl,#(_alphabet + 0x014a)
   0B9D 36 84              1361 	ld	(hl),#0x84
   0B9F 21r53r02           1362 	ld	hl,#(_alphabet + 0x014b)
   0BA2 36 84              1363 	ld	(hl),#0x84
   0BA4 21r54r02           1364 	ld	hl,#(_alphabet + 0x014c)
   0BA7 36 82              1365 	ld	(hl),#0x82
   0BA9 21r55r02           1366 	ld	hl,#(_alphabet + 0x014d)
   0BAC 36 82              1367 	ld	(hl),#0x82
   0BAE 01r56r02           1368 	ld	bc,#_alphabet + 334
   0BB1 AF                 1369 	xor	a, a
   0BB2 02                 1370 	ld	(bc),a
   0BB3 01r57r02           1371 	ld	bc,#_alphabet + 335
   0BB6 AF                 1372 	xor	a, a
   0BB7 02                 1373 	ld	(bc),a
   0BB8 21r58r02           1374 	ld	hl,#(_alphabet + 0x0150)
   0BBB 36 80              1375 	ld	(hl),#0x80
   0BBD 21r59r02           1376 	ld	hl,#(_alphabet + 0x0151)
   0BC0 36 80              1377 	ld	(hl),#0x80
   0BC2 21r5Ar02           1378 	ld	hl,#(_alphabet + 0x0152)
   0BC5 36 80              1379 	ld	(hl),#0x80
   0BC7 21r5Br02           1380 	ld	hl,#(_alphabet + 0x0153)
   0BCA 36 80              1381 	ld	(hl),#0x80
   0BCC 21r5Cr02           1382 	ld	hl,#(_alphabet + 0x0154)
   0BCF 36 80              1383 	ld	(hl),#0x80
   0BD1 21r5Dr02           1384 	ld	hl,#(_alphabet + 0x0155)
   0BD4 36 80              1385 	ld	(hl),#0x80
   0BD6 21r5Er02           1386 	ld	hl,#(_alphabet + 0x0156)
   0BD9 36 80              1387 	ld	(hl),#0x80
   0BDB 21r5Fr02           1388 	ld	hl,#(_alphabet + 0x0157)
   0BDE 36 80              1389 	ld	(hl),#0x80
   0BE0 21r60r02           1390 	ld	hl,#(_alphabet + 0x0158)
   0BE3 36 80              1391 	ld	(hl),#0x80
   0BE5 21r61r02           1392 	ld	hl,#(_alphabet + 0x0159)
   0BE8 36 80              1393 	ld	(hl),#0x80
   0BEA 21r62r02           1394 	ld	hl,#(_alphabet + 0x015a)
   0BED 36 80              1395 	ld	(hl),#0x80
   0BEF 21r63r02           1396 	ld	hl,#(_alphabet + 0x015b)
   0BF2 36 80              1397 	ld	(hl),#0x80
   0BF4 21r64r02           1398 	ld	hl,#(_alphabet + 0x015c)
   0BF7 36 FE              1399 	ld	(hl),#0xFE
   0BF9 21r65r02           1400 	ld	hl,#(_alphabet + 0x015d)
   0BFC 36 FE              1401 	ld	(hl),#0xFE
   0BFE 01r66r02           1402 	ld	bc,#_alphabet + 350
   0C01 AF                 1403 	xor	a, a
   0C02 02                 1404 	ld	(bc),a
   0C03 01r67r02           1405 	ld	bc,#_alphabet + 351
   0C06 AF                 1406 	xor	a, a
   0C07 02                 1407 	ld	(bc),a
   0C08 21r68r02           1408 	ld	hl,#(_alphabet + 0x0160)
   0C0B 36 82              1409 	ld	(hl),#0x82
   0C0D 21r69r02           1410 	ld	hl,#(_alphabet + 0x0161)
   0C10 36 82              1411 	ld	(hl),#0x82
   0C12 21r6Ar02           1412 	ld	hl,#(_alphabet + 0x0162)
   0C15 36 C6              1413 	ld	(hl),#0xC6
   0C17 21r6Br02           1414 	ld	hl,#(_alphabet + 0x0163)
   0C1A 36 C6              1415 	ld	(hl),#0xC6
   0C1C 21r6Cr02           1416 	ld	hl,#(_alphabet + 0x0164)
   0C1F 36 AA              1417 	ld	(hl),#0xAA
   0C21 21r6Dr02           1418 	ld	hl,#(_alphabet + 0x0165)
   0C24 36 AA              1419 	ld	(hl),#0xAA
   0C26 21r6Er02           1420 	ld	hl,#(_alphabet + 0x0166)
   0C29 36 92              1421 	ld	(hl),#0x92
   0C2B 21r6Fr02           1422 	ld	hl,#(_alphabet + 0x0167)
   0C2E 36 92              1423 	ld	(hl),#0x92
   0C30 21r70r02           1424 	ld	hl,#(_alphabet + 0x0168)
   0C33 36 82              1425 	ld	(hl),#0x82
   0C35 21r71r02           1426 	ld	hl,#(_alphabet + 0x0169)
   0C38 36 82              1427 	ld	(hl),#0x82
   0C3A 21r72r02           1428 	ld	hl,#(_alphabet + 0x016a)
   0C3D 36 82              1429 	ld	(hl),#0x82
   0C3F 21r73r02           1430 	ld	hl,#(_alphabet + 0x016b)
   0C42 36 82              1431 	ld	(hl),#0x82
   0C44 21r74r02           1432 	ld	hl,#(_alphabet + 0x016c)
   0C47 36 82              1433 	ld	(hl),#0x82
   0C49 21r75r02           1434 	ld	hl,#(_alphabet + 0x016d)
   0C4C 36 82              1435 	ld	(hl),#0x82
   0C4E 01r76r02           1436 	ld	bc,#_alphabet + 366
   0C51 AF                 1437 	xor	a, a
   0C52 02                 1438 	ld	(bc),a
   0C53 01r77r02           1439 	ld	bc,#_alphabet + 367
   0C56 AF                 1440 	xor	a, a
   0C57 02                 1441 	ld	(bc),a
   0C58 21r78r02           1442 	ld	hl,#(_alphabet + 0x0170)
   0C5B 36 82              1443 	ld	(hl),#0x82
   0C5D 21r79r02           1444 	ld	hl,#(_alphabet + 0x0171)
   0C60 36 82              1445 	ld	(hl),#0x82
   0C62 21r7Ar02           1446 	ld	hl,#(_alphabet + 0x0172)
   0C65 36 C2              1447 	ld	(hl),#0xC2
   0C67 21r7Br02           1448 	ld	hl,#(_alphabet + 0x0173)
   0C6A 36 C2              1449 	ld	(hl),#0xC2
   0C6C 21r7Cr02           1450 	ld	hl,#(_alphabet + 0x0174)
   0C6F 36 A2              1451 	ld	(hl),#0xA2
   0C71 21r7Dr02           1452 	ld	hl,#(_alphabet + 0x0175)
   0C74 36 A2              1453 	ld	(hl),#0xA2
   0C76 21r7Er02           1454 	ld	hl,#(_alphabet + 0x0176)
   0C79 36 92              1455 	ld	(hl),#0x92
   0C7B 21r7Fr02           1456 	ld	hl,#(_alphabet + 0x0177)
   0C7E 36 92              1457 	ld	(hl),#0x92
   0C80 21r80r02           1458 	ld	hl,#(_alphabet + 0x0178)
   0C83 36 8A              1459 	ld	(hl),#0x8A
   0C85 21r81r02           1460 	ld	hl,#(_alphabet + 0x0179)
   0C88 36 8A              1461 	ld	(hl),#0x8A
   0C8A 21r82r02           1462 	ld	hl,#(_alphabet + 0x017a)
   0C8D 36 86              1463 	ld	(hl),#0x86
   0C8F 21r83r02           1464 	ld	hl,#(_alphabet + 0x017b)
   0C92 36 86              1465 	ld	(hl),#0x86
   0C94 21r84r02           1466 	ld	hl,#(_alphabet + 0x017c)
   0C97 36 82              1467 	ld	(hl),#0x82
   0C99 21r85r02           1468 	ld	hl,#(_alphabet + 0x017d)
   0C9C 36 82              1469 	ld	(hl),#0x82
   0C9E 01r86r02           1470 	ld	bc,#_alphabet + 382
   0CA1 AF                 1471 	xor	a, a
   0CA2 02                 1472 	ld	(bc),a
   0CA3 01r87r02           1473 	ld	bc,#_alphabet + 383
   0CA6 AF                 1474 	xor	a, a
   0CA7 02                 1475 	ld	(bc),a
   0CA8 21r88r02           1476 	ld	hl,#(_alphabet + 0x0180)
   0CAB 36 38              1477 	ld	(hl),#0x38
   0CAD 21r89r02           1478 	ld	hl,#(_alphabet + 0x0181)
   0CB0 36 38              1479 	ld	(hl),#0x38
   0CB2 21r8Ar02           1480 	ld	hl,#(_alphabet + 0x0182)
   0CB5 36 44              1481 	ld	(hl),#0x44
   0CB7 21r8Br02           1482 	ld	hl,#(_alphabet + 0x0183)
   0CBA 36 44              1483 	ld	(hl),#0x44
   0CBC 21r8Cr02           1484 	ld	hl,#(_alphabet + 0x0184)
   0CBF 36 82              1485 	ld	(hl),#0x82
   0CC1 21r8Dr02           1486 	ld	hl,#(_alphabet + 0x0185)
   0CC4 36 82              1487 	ld	(hl),#0x82
   0CC6 21r8Er02           1488 	ld	hl,#(_alphabet + 0x0186)
   0CC9 36 82              1489 	ld	(hl),#0x82
   0CCB 21r8Fr02           1490 	ld	hl,#(_alphabet + 0x0187)
   0CCE 36 82              1491 	ld	(hl),#0x82
   0CD0 21r90r02           1492 	ld	hl,#(_alphabet + 0x0188)
   0CD3 36 82              1493 	ld	(hl),#0x82
   0CD5 21r91r02           1494 	ld	hl,#(_alphabet + 0x0189)
   0CD8 36 82              1495 	ld	(hl),#0x82
   0CDA 21r92r02           1496 	ld	hl,#(_alphabet + 0x018a)
   0CDD 36 44              1497 	ld	(hl),#0x44
   0CDF 21r93r02           1498 	ld	hl,#(_alphabet + 0x018b)
   0CE2 36 44              1499 	ld	(hl),#0x44
   0CE4 21r94r02           1500 	ld	hl,#(_alphabet + 0x018c)
   0CE7 36 38              1501 	ld	(hl),#0x38
   0CE9 21r95r02           1502 	ld	hl,#(_alphabet + 0x018d)
   0CEC 36 38              1503 	ld	(hl),#0x38
   0CEE 01r96r02           1504 	ld	bc,#_alphabet + 398
   0CF1 AF                 1505 	xor	a, a
   0CF2 02                 1506 	ld	(bc),a
   0CF3 01r97r02           1507 	ld	bc,#_alphabet + 399
   0CF6 AF                 1508 	xor	a, a
   0CF7 02                 1509 	ld	(bc),a
   0CF8 21r98r02           1510 	ld	hl,#(_alphabet + 0x0190)
   0CFB 36 FC              1511 	ld	(hl),#0xFC
   0CFD 21r99r02           1512 	ld	hl,#(_alphabet + 0x0191)
   0D00 36 FC              1513 	ld	(hl),#0xFC
   0D02 21r9Ar02           1514 	ld	hl,#(_alphabet + 0x0192)
   0D05 36 82              1515 	ld	(hl),#0x82
   0D07 21r9Br02           1516 	ld	hl,#(_alphabet + 0x0193)
   0D0A 36 82              1517 	ld	(hl),#0x82
   0D0C 21r9Cr02           1518 	ld	hl,#(_alphabet + 0x0194)
   0D0F 36 82              1519 	ld	(hl),#0x82
   0D11 21r9Dr02           1520 	ld	hl,#(_alphabet + 0x0195)
   0D14 36 82              1521 	ld	(hl),#0x82
   0D16 21r9Er02           1522 	ld	hl,#(_alphabet + 0x0196)
   0D19 36 FC              1523 	ld	(hl),#0xFC
   0D1B 21r9Fr02           1524 	ld	hl,#(_alphabet + 0x0197)
   0D1E 36 FC              1525 	ld	(hl),#0xFC
   0D20 21rA0r02           1526 	ld	hl,#(_alphabet + 0x0198)
   0D23 36 80              1527 	ld	(hl),#0x80
   0D25 21rA1r02           1528 	ld	hl,#(_alphabet + 0x0199)
   0D28 36 80              1529 	ld	(hl),#0x80
   0D2A 21rA2r02           1530 	ld	hl,#(_alphabet + 0x019a)
   0D2D 36 80              1531 	ld	(hl),#0x80
   0D2F 21rA3r02           1532 	ld	hl,#(_alphabet + 0x019b)
   0D32 36 80              1533 	ld	(hl),#0x80
   0D34 21rA4r02           1534 	ld	hl,#(_alphabet + 0x019c)
   0D37 36 80              1535 	ld	(hl),#0x80
   0D39 21rA5r02           1536 	ld	hl,#(_alphabet + 0x019d)
   0D3C 36 80              1537 	ld	(hl),#0x80
   0D3E 01rA6r02           1538 	ld	bc,#_alphabet + 414
   0D41 AF                 1539 	xor	a, a
   0D42 02                 1540 	ld	(bc),a
   0D43 01rA7r02           1541 	ld	bc,#_alphabet + 415
   0D46 AF                 1542 	xor	a, a
   0D47 02                 1543 	ld	(bc),a
   0D48 21rA8r02           1544 	ld	hl,#(_alphabet + 0x01a0)
   0D4B 36 38              1545 	ld	(hl),#0x38
   0D4D 21rA9r02           1546 	ld	hl,#(_alphabet + 0x01a1)
   0D50 36 38              1547 	ld	(hl),#0x38
   0D52 21rAAr02           1548 	ld	hl,#(_alphabet + 0x01a2)
   0D55 36 44              1549 	ld	(hl),#0x44
   0D57 21rABr02           1550 	ld	hl,#(_alphabet + 0x01a3)
   0D5A 36 44              1551 	ld	(hl),#0x44
   0D5C 21rACr02           1552 	ld	hl,#(_alphabet + 0x01a4)
   0D5F 36 82              1553 	ld	(hl),#0x82
   0D61 21rADr02           1554 	ld	hl,#(_alphabet + 0x01a5)
   0D64 36 82              1555 	ld	(hl),#0x82
   0D66 21rAEr02           1556 	ld	hl,#(_alphabet + 0x01a6)
   0D69 36 82              1557 	ld	(hl),#0x82
   0D6B 21rAFr02           1558 	ld	hl,#(_alphabet + 0x01a7)
   0D6E 36 82              1559 	ld	(hl),#0x82
   0D70 21rB0r02           1560 	ld	hl,#(_alphabet + 0x01a8)
   0D73 36 8A              1561 	ld	(hl),#0x8A
   0D75 21rB1r02           1562 	ld	hl,#(_alphabet + 0x01a9)
   0D78 36 8A              1563 	ld	(hl),#0x8A
   0D7A 21rB2r02           1564 	ld	hl,#(_alphabet + 0x01aa)
   0D7D 36 44              1565 	ld	(hl),#0x44
   0D7F 21rB3r02           1566 	ld	hl,#(_alphabet + 0x01ab)
   0D82 36 44              1567 	ld	(hl),#0x44
   0D84 21rB4r02           1568 	ld	hl,#(_alphabet + 0x01ac)
   0D87 36 3A              1569 	ld	(hl),#0x3A
   0D89 21rB5r02           1570 	ld	hl,#(_alphabet + 0x01ad)
   0D8C 36 3A              1571 	ld	(hl),#0x3A
   0D8E 01rB6r02           1572 	ld	bc,#_alphabet + 430
   0D91 AF                 1573 	xor	a, a
   0D92 02                 1574 	ld	(bc),a
   0D93 01rB7r02           1575 	ld	bc,#_alphabet + 431
   0D96 AF                 1576 	xor	a, a
   0D97 02                 1577 	ld	(bc),a
   0D98 21rB8r02           1578 	ld	hl,#(_alphabet + 0x01b0)
   0D9B 36 FC              1579 	ld	(hl),#0xFC
   0D9D 21rB9r02           1580 	ld	hl,#(_alphabet + 0x01b1)
   0DA0 36 FC              1581 	ld	(hl),#0xFC
   0DA2 21rBAr02           1582 	ld	hl,#(_alphabet + 0x01b2)
   0DA5 36 82              1583 	ld	(hl),#0x82
   0DA7 21rBBr02           1584 	ld	hl,#(_alphabet + 0x01b3)
   0DAA 36 82              1585 	ld	(hl),#0x82
   0DAC 21rBCr02           1586 	ld	hl,#(_alphabet + 0x01b4)
   0DAF 36 82              1587 	ld	(hl),#0x82
   0DB1 21rBDr02           1588 	ld	hl,#(_alphabet + 0x01b5)
   0DB4 36 82              1589 	ld	(hl),#0x82
   0DB6 21rBEr02           1590 	ld	hl,#(_alphabet + 0x01b6)
   0DB9 36 FC              1591 	ld	(hl),#0xFC
   0DBB 21rBFr02           1592 	ld	hl,#(_alphabet + 0x01b7)
   0DBE 36 FC              1593 	ld	(hl),#0xFC
   0DC0 21rC0r02           1594 	ld	hl,#(_alphabet + 0x01b8)
   0DC3 36 88              1595 	ld	(hl),#0x88
   0DC5 21rC1r02           1596 	ld	hl,#(_alphabet + 0x01b9)
   0DC8 36 88              1597 	ld	(hl),#0x88
   0DCA 21rC2r02           1598 	ld	hl,#(_alphabet + 0x01ba)
   0DCD 36 84              1599 	ld	(hl),#0x84
   0DCF 21rC3r02           1600 	ld	hl,#(_alphabet + 0x01bb)
   0DD2 36 84              1601 	ld	(hl),#0x84
   0DD4 21rC4r02           1602 	ld	hl,#(_alphabet + 0x01bc)
   0DD7 36 82              1603 	ld	(hl),#0x82
   0DD9 21rC5r02           1604 	ld	hl,#(_alphabet + 0x01bd)
   0DDC 36 82              1605 	ld	(hl),#0x82
   0DDE 01rC6r02           1606 	ld	bc,#_alphabet + 446
   0DE1 AF                 1607 	xor	a, a
   0DE2 02                 1608 	ld	(bc),a
   0DE3 01rC7r02           1609 	ld	bc,#_alphabet + 447
   0DE6 AF                 1610 	xor	a, a
   0DE7 02                 1611 	ld	(bc),a
   0DE8 21rC8r02           1612 	ld	hl,#(_alphabet + 0x01c0)
   0DEB 36 78              1613 	ld	(hl),#0x78
   0DED 21rC9r02           1614 	ld	hl,#(_alphabet + 0x01c1)
   0DF0 36 78              1615 	ld	(hl),#0x78
   0DF2 21rCAr02           1616 	ld	hl,#(_alphabet + 0x01c2)
   0DF5 36 84              1617 	ld	(hl),#0x84
   0DF7 21rCBr02           1618 	ld	hl,#(_alphabet + 0x01c3)
   0DFA 36 84              1619 	ld	(hl),#0x84
   0DFC 21rCCr02           1620 	ld	hl,#(_alphabet + 0x01c4)
   0DFF 36 80              1621 	ld	(hl),#0x80
   0E01 21rCDr02           1622 	ld	hl,#(_alphabet + 0x01c5)
   0E04 36 80              1623 	ld	(hl),#0x80
   0E06 21rCEr02           1624 	ld	hl,#(_alphabet + 0x01c6)
   0E09 36 7C              1625 	ld	(hl),#0x7C
   0E0B 21rCFr02           1626 	ld	hl,#(_alphabet + 0x01c7)
   0E0E 36 7C              1627 	ld	(hl),#0x7C
   0E10 21rD0r02           1628 	ld	hl,#(_alphabet + 0x01c8)
   0E13 36 02              1629 	ld	(hl),#0x02
   0E15 21rD1r02           1630 	ld	hl,#(_alphabet + 0x01c9)
   0E18 36 02              1631 	ld	(hl),#0x02
   0E1A 21rD2r02           1632 	ld	hl,#(_alphabet + 0x01ca)
   0E1D 36 82              1633 	ld	(hl),#0x82
   0E1F 21rD3r02           1634 	ld	hl,#(_alphabet + 0x01cb)
   0E22 36 82              1635 	ld	(hl),#0x82
   0E24 21rD4r02           1636 	ld	hl,#(_alphabet + 0x01cc)
   0E27 36 7C              1637 	ld	(hl),#0x7C
   0E29 21rD5r02           1638 	ld	hl,#(_alphabet + 0x01cd)
   0E2C 36 7C              1639 	ld	(hl),#0x7C
   0E2E 01rD6r02           1640 	ld	bc,#_alphabet + 462
   0E31 AF                 1641 	xor	a, a
   0E32 02                 1642 	ld	(bc),a
   0E33 01rD7r02           1643 	ld	bc,#_alphabet + 463
   0E36 AF                 1644 	xor	a, a
   0E37 02                 1645 	ld	(bc),a
   0E38 21rD8r02           1646 	ld	hl,#(_alphabet + 0x01d0)
   0E3B 36 FE              1647 	ld	(hl),#0xFE
   0E3D 21rD9r02           1648 	ld	hl,#(_alphabet + 0x01d1)
   0E40 36 FE              1649 	ld	(hl),#0xFE
   0E42 21rDAr02           1650 	ld	hl,#(_alphabet + 0x01d2)
   0E45 36 10              1651 	ld	(hl),#0x10
   0E47 21rDBr02           1652 	ld	hl,#(_alphabet + 0x01d3)
   0E4A 36 10              1653 	ld	(hl),#0x10
   0E4C 21rDCr02           1654 	ld	hl,#(_alphabet + 0x01d4)
   0E4F 36 10              1655 	ld	(hl),#0x10
   0E51 21rDDr02           1656 	ld	hl,#(_alphabet + 0x01d5)
   0E54 36 10              1657 	ld	(hl),#0x10
   0E56 21rDEr02           1658 	ld	hl,#(_alphabet + 0x01d6)
   0E59 36 10              1659 	ld	(hl),#0x10
   0E5B 21rDFr02           1660 	ld	hl,#(_alphabet + 0x01d7)
   0E5E 36 10              1661 	ld	(hl),#0x10
   0E60 21rE0r02           1662 	ld	hl,#(_alphabet + 0x01d8)
   0E63 36 10              1663 	ld	(hl),#0x10
   0E65 21rE1r02           1664 	ld	hl,#(_alphabet + 0x01d9)
   0E68 36 10              1665 	ld	(hl),#0x10
   0E6A 21rE2r02           1666 	ld	hl,#(_alphabet + 0x01da)
   0E6D 36 10              1667 	ld	(hl),#0x10
   0E6F 21rE3r02           1668 	ld	hl,#(_alphabet + 0x01db)
   0E72 36 10              1669 	ld	(hl),#0x10
   0E74 21rE4r02           1670 	ld	hl,#(_alphabet + 0x01dc)
   0E77 36 10              1671 	ld	(hl),#0x10
   0E79 21rE5r02           1672 	ld	hl,#(_alphabet + 0x01dd)
   0E7C 36 10              1673 	ld	(hl),#0x10
   0E7E 01rE6r02           1674 	ld	bc,#_alphabet + 478
   0E81 AF                 1675 	xor	a, a
   0E82 02                 1676 	ld	(bc),a
   0E83 01rE7r02           1677 	ld	bc,#_alphabet + 479
   0E86 AF                 1678 	xor	a, a
   0E87 02                 1679 	ld	(bc),a
   0E88 21rE8r02           1680 	ld	hl,#(_alphabet + 0x01e0)
   0E8B 36 82              1681 	ld	(hl),#0x82
   0E8D 21rE9r02           1682 	ld	hl,#(_alphabet + 0x01e1)
   0E90 36 82              1683 	ld	(hl),#0x82
   0E92 21rEAr02           1684 	ld	hl,#(_alphabet + 0x01e2)
   0E95 36 82              1685 	ld	(hl),#0x82
   0E97 21rEBr02           1686 	ld	hl,#(_alphabet + 0x01e3)
   0E9A 36 82              1687 	ld	(hl),#0x82
   0E9C 21rECr02           1688 	ld	hl,#(_alphabet + 0x01e4)
   0E9F 36 82              1689 	ld	(hl),#0x82
   0EA1 21rEDr02           1690 	ld	hl,#(_alphabet + 0x01e5)
   0EA4 36 82              1691 	ld	(hl),#0x82
   0EA6 21rEEr02           1692 	ld	hl,#(_alphabet + 0x01e6)
   0EA9 36 82              1693 	ld	(hl),#0x82
   0EAB 21rEFr02           1694 	ld	hl,#(_alphabet + 0x01e7)
   0EAE 36 82              1695 	ld	(hl),#0x82
   0EB0 21rF0r02           1696 	ld	hl,#(_alphabet + 0x01e8)
   0EB3 36 82              1697 	ld	(hl),#0x82
   0EB5 21rF1r02           1698 	ld	hl,#(_alphabet + 0x01e9)
   0EB8 36 82              1699 	ld	(hl),#0x82
   0EBA 21rF2r02           1700 	ld	hl,#(_alphabet + 0x01ea)
   0EBD 36 82              1701 	ld	(hl),#0x82
   0EBF 21rF3r02           1702 	ld	hl,#(_alphabet + 0x01eb)
   0EC2 36 82              1703 	ld	(hl),#0x82
   0EC4 21rF4r02           1704 	ld	hl,#(_alphabet + 0x01ec)
   0EC7 36 7C              1705 	ld	(hl),#0x7C
   0EC9 21rF5r02           1706 	ld	hl,#(_alphabet + 0x01ed)
   0ECC 36 7C              1707 	ld	(hl),#0x7C
   0ECE 01rF6r02           1708 	ld	bc,#_alphabet + 494
   0ED1 AF                 1709 	xor	a, a
   0ED2 02                 1710 	ld	(bc),a
   0ED3 01rF7r02           1711 	ld	bc,#_alphabet + 495
   0ED6 AF                 1712 	xor	a, a
   0ED7 02                 1713 	ld	(bc),a
   0ED8 21rF8r02           1714 	ld	hl,#(_alphabet + 0x01f0)
   0EDB 36 82              1715 	ld	(hl),#0x82
   0EDD 21rF9r02           1716 	ld	hl,#(_alphabet + 0x01f1)
   0EE0 36 82              1717 	ld	(hl),#0x82
   0EE2 21rFAr02           1718 	ld	hl,#(_alphabet + 0x01f2)
   0EE5 36 82              1719 	ld	(hl),#0x82
   0EE7 21rFBr02           1720 	ld	hl,#(_alphabet + 0x01f3)
   0EEA 36 82              1721 	ld	(hl),#0x82
   0EEC 21rFCr02           1722 	ld	hl,#(_alphabet + 0x01f4)
   0EEF 36 44              1723 	ld	(hl),#0x44
   0EF1 21rFDr02           1724 	ld	hl,#(_alphabet + 0x01f5)
   0EF4 36 44              1725 	ld	(hl),#0x44
   0EF6 21rFEr02           1726 	ld	hl,#(_alphabet + 0x01f6)
   0EF9 36 44              1727 	ld	(hl),#0x44
   0EFB 21rFFr02           1728 	ld	hl,#(_alphabet + 0x01f7)
   0EFE 36 44              1729 	ld	(hl),#0x44
   0F00 21r00r03           1730 	ld	hl,#(_alphabet + 0x01f8)
   0F03 36 28              1731 	ld	(hl),#0x28
   0F05 21r01r03           1732 	ld	hl,#(_alphabet + 0x01f9)
   0F08 36 28              1733 	ld	(hl),#0x28
   0F0A 21r02r03           1734 	ld	hl,#(_alphabet + 0x01fa)
   0F0D 36 28              1735 	ld	(hl),#0x28
   0F0F 21r03r03           1736 	ld	hl,#(_alphabet + 0x01fb)
   0F12 36 28              1737 	ld	(hl),#0x28
   0F14 21r04r03           1738 	ld	hl,#(_alphabet + 0x01fc)
   0F17 36 10              1739 	ld	(hl),#0x10
   0F19 21r05r03           1740 	ld	hl,#(_alphabet + 0x01fd)
   0F1C 36 10              1741 	ld	(hl),#0x10
   0F1E 01r06r03           1742 	ld	bc,#_alphabet + 510
   0F21 AF                 1743 	xor	a, a
   0F22 02                 1744 	ld	(bc),a
   0F23 01r07r03           1745 	ld	bc,#_alphabet + 511
   0F26 AF                 1746 	xor	a, a
   0F27 02                 1747 	ld	(bc),a
   0F28 21r08r03           1748 	ld	hl,#(_alphabet + 0x0200)
   0F2B 36 82              1749 	ld	(hl),#0x82
   0F2D 21r09r03           1750 	ld	hl,#(_alphabet + 0x0201)
   0F30 36 82              1751 	ld	(hl),#0x82
   0F32 21r0Ar03           1752 	ld	hl,#(_alphabet + 0x0202)
   0F35 36 92              1753 	ld	(hl),#0x92
   0F37 21r0Br03           1754 	ld	hl,#(_alphabet + 0x0203)
   0F3A 36 92              1755 	ld	(hl),#0x92
   0F3C 21r0Cr03           1756 	ld	hl,#(_alphabet + 0x0204)
   0F3F 36 AA              1757 	ld	(hl),#0xAA
   0F41 21r0Dr03           1758 	ld	hl,#(_alphabet + 0x0205)
   0F44 36 AA              1759 	ld	(hl),#0xAA
   0F46 21r0Er03           1760 	ld	hl,#(_alphabet + 0x0206)
   0F49 36 AA              1761 	ld	(hl),#0xAA
   0F4B 21r0Fr03           1762 	ld	hl,#(_alphabet + 0x0207)
   0F4E 36 AA              1763 	ld	(hl),#0xAA
   0F50 21r10r03           1764 	ld	hl,#(_alphabet + 0x0208)
   0F53 36 C6              1765 	ld	(hl),#0xC6
   0F55 21r11r03           1766 	ld	hl,#(_alphabet + 0x0209)
   0F58 36 C6              1767 	ld	(hl),#0xC6
   0F5A 21r12r03           1768 	ld	hl,#(_alphabet + 0x020a)
   0F5D 36 C6              1769 	ld	(hl),#0xC6
   0F5F 21r13r03           1770 	ld	hl,#(_alphabet + 0x020b)
   0F62 36 C6              1771 	ld	(hl),#0xC6
   0F64 21r14r03           1772 	ld	hl,#(_alphabet + 0x020c)
   0F67 36 82              1773 	ld	(hl),#0x82
   0F69 21r15r03           1774 	ld	hl,#(_alphabet + 0x020d)
   0F6C 36 82              1775 	ld	(hl),#0x82
   0F6E 01r16r03           1776 	ld	bc,#_alphabet + 526
   0F71 AF                 1777 	xor	a, a
   0F72 02                 1778 	ld	(bc),a
   0F73 01r17r03           1779 	ld	bc,#_alphabet + 527
   0F76 AF                 1780 	xor	a, a
   0F77 02                 1781 	ld	(bc),a
   0F78 21r18r03           1782 	ld	hl,#(_alphabet + 0x0210)
   0F7B 36 C6              1783 	ld	(hl),#0xC6
   0F7D 21r19r03           1784 	ld	hl,#(_alphabet + 0x0211)
   0F80 36 C6              1785 	ld	(hl),#0xC6
   0F82 21r1Ar03           1786 	ld	hl,#(_alphabet + 0x0212)
   0F85 36 44              1787 	ld	(hl),#0x44
   0F87 21r1Br03           1788 	ld	hl,#(_alphabet + 0x0213)
   0F8A 36 44              1789 	ld	(hl),#0x44
   0F8C 21r1Cr03           1790 	ld	hl,#(_alphabet + 0x0214)
   0F8F 36 28              1791 	ld	(hl),#0x28
   0F91 21r1Dr03           1792 	ld	hl,#(_alphabet + 0x0215)
   0F94 36 28              1793 	ld	(hl),#0x28
   0F96 21r1Er03           1794 	ld	hl,#(_alphabet + 0x0216)
   0F99 36 10              1795 	ld	(hl),#0x10
   0F9B 21r1Fr03           1796 	ld	hl,#(_alphabet + 0x0217)
   0F9E 36 10              1797 	ld	(hl),#0x10
   0FA0 21r20r03           1798 	ld	hl,#(_alphabet + 0x0218)
   0FA3 36 28              1799 	ld	(hl),#0x28
   0FA5 21r21r03           1800 	ld	hl,#(_alphabet + 0x0219)
   0FA8 36 28              1801 	ld	(hl),#0x28
   0FAA 21r22r03           1802 	ld	hl,#(_alphabet + 0x021a)
   0FAD 36 44              1803 	ld	(hl),#0x44
   0FAF 21r23r03           1804 	ld	hl,#(_alphabet + 0x021b)
   0FB2 36 44              1805 	ld	(hl),#0x44
   0FB4 21r24r03           1806 	ld	hl,#(_alphabet + 0x021c)
   0FB7 36 C6              1807 	ld	(hl),#0xC6
   0FB9 21r25r03           1808 	ld	hl,#(_alphabet + 0x021d)
   0FBC 36 C6              1809 	ld	(hl),#0xC6
   0FBE 01r26r03           1810 	ld	bc,#_alphabet + 542
   0FC1 AF                 1811 	xor	a, a
   0FC2 02                 1812 	ld	(bc),a
   0FC3 01r27r03           1813 	ld	bc,#_alphabet + 543
   0FC6 AF                 1814 	xor	a, a
   0FC7 02                 1815 	ld	(bc),a
   0FC8 21r28r03           1816 	ld	hl,#(_alphabet + 0x0220)
   0FCB 36 82              1817 	ld	(hl),#0x82
   0FCD 21r29r03           1818 	ld	hl,#(_alphabet + 0x0221)
   0FD0 36 82              1819 	ld	(hl),#0x82
   0FD2 21r2Ar03           1820 	ld	hl,#(_alphabet + 0x0222)
   0FD5 36 44              1821 	ld	(hl),#0x44
   0FD7 21r2Br03           1822 	ld	hl,#(_alphabet + 0x0223)
   0FDA 36 44              1823 	ld	(hl),#0x44
   0FDC 21r2Cr03           1824 	ld	hl,#(_alphabet + 0x0224)
   0FDF 36 28              1825 	ld	(hl),#0x28
   0FE1 21r2Dr03           1826 	ld	hl,#(_alphabet + 0x0225)
   0FE4 36 28              1827 	ld	(hl),#0x28
   0FE6 21r2Er03           1828 	ld	hl,#(_alphabet + 0x0226)
   0FE9 36 10              1829 	ld	(hl),#0x10
   0FEB 21r2Fr03           1830 	ld	hl,#(_alphabet + 0x0227)
   0FEE 36 10              1831 	ld	(hl),#0x10
   0FF0 21r30r03           1832 	ld	hl,#(_alphabet + 0x0228)
   0FF3 36 10              1833 	ld	(hl),#0x10
   0FF5 21r31r03           1834 	ld	hl,#(_alphabet + 0x0229)
   0FF8 36 10              1835 	ld	(hl),#0x10
   0FFA 21r32r03           1836 	ld	hl,#(_alphabet + 0x022a)
   0FFD 36 10              1837 	ld	(hl),#0x10
   0FFF 21r33r03           1838 	ld	hl,#(_alphabet + 0x022b)
   1002 36 10              1839 	ld	(hl),#0x10
   1004 21r34r03           1840 	ld	hl,#(_alphabet + 0x022c)
   1007 36 10              1841 	ld	(hl),#0x10
   1009 21r35r03           1842 	ld	hl,#(_alphabet + 0x022d)
   100C 36 10              1843 	ld	(hl),#0x10
   100E 01r36r03           1844 	ld	bc,#_alphabet + 558
   1011 AF                 1845 	xor	a, a
   1012 02                 1846 	ld	(bc),a
   1013 01r37r03           1847 	ld	bc,#_alphabet + 559
   1016 AF                 1848 	xor	a, a
   1017 02                 1849 	ld	(bc),a
   1018 21r38r03           1850 	ld	hl,#(_alphabet + 0x0230)
   101B 36 FE              1851 	ld	(hl),#0xFE
   101D 21r39r03           1852 	ld	hl,#(_alphabet + 0x0231)
   1020 36 FE              1853 	ld	(hl),#0xFE
   1022 21r3Ar03           1854 	ld	hl,#(_alphabet + 0x0232)
   1025 36 04              1855 	ld	(hl),#0x04
   1027 21r3Br03           1856 	ld	hl,#(_alphabet + 0x0233)
   102A 36 04              1857 	ld	(hl),#0x04
   102C 21r3Cr03           1858 	ld	hl,#(_alphabet + 0x0234)
   102F 36 08              1859 	ld	(hl),#0x08
   1031 21r3Dr03           1860 	ld	hl,#(_alphabet + 0x0235)
   1034 36 08              1861 	ld	(hl),#0x08
   1036 21r3Er03           1862 	ld	hl,#(_alphabet + 0x0236)
   1039 36 10              1863 	ld	(hl),#0x10
   103B 21r3Fr03           1864 	ld	hl,#(_alphabet + 0x0237)
   103E 36 10              1865 	ld	(hl),#0x10
   1040 21r40r03           1866 	ld	hl,#(_alphabet + 0x0238)
   1043 36 20              1867 	ld	(hl),#0x20
   1045 21r41r03           1868 	ld	hl,#(_alphabet + 0x0239)
   1048 36 20              1869 	ld	(hl),#0x20
   104A 21r42r03           1870 	ld	hl,#(_alphabet + 0x023a)
   104D 36 40              1871 	ld	(hl),#0x40
   104F 21r43r03           1872 	ld	hl,#(_alphabet + 0x023b)
   1052 36 40              1873 	ld	(hl),#0x40
   1054 21r44r03           1874 	ld	hl,#(_alphabet + 0x023c)
   1057 36 FE              1875 	ld	(hl),#0xFE
   1059 21r45r03           1876 	ld	hl,#(_alphabet + 0x023d)
   105C 36 FE              1877 	ld	(hl),#0xFE
   105E 01r46r03           1878 	ld	bc,#_alphabet + 574
   1061 AF                 1879 	xor	a, a
   1062 02                 1880 	ld	(bc),a
   1063 01r47r03           1881 	ld	bc,#_alphabet + 575
   1066 AF                 1882 	xor	a, a
   1067 02                 1883 	ld	(bc),a
   1068 01r48r03           1884 	ld	bc,#_alphabet + 576
   106B AF                 1885 	xor	a, a
   106C 02                 1886 	ld	(bc),a
   106D 01r49r03           1887 	ld	bc,#_alphabet + 577
   1070 AF                 1888 	xor	a, a
   1071 02                 1889 	ld	(bc),a
   1072 01r4Ar03           1890 	ld	bc,#_alphabet + 578
   1075 AF                 1891 	xor	a, a
   1076 02                 1892 	ld	(bc),a
   1077 01r4Br03           1893 	ld	bc,#_alphabet + 579
   107A AF                 1894 	xor	a, a
   107B 02                 1895 	ld	(bc),a
   107C 01r4Cr03           1896 	ld	bc,#_alphabet + 580
   107F AF                 1897 	xor	a, a
   1080 02                 1898 	ld	(bc),a
   1081 01r4Dr03           1899 	ld	bc,#_alphabet + 581
   1084 AF                 1900 	xor	a, a
   1085 02                 1901 	ld	(bc),a
   1086 01r4Er03           1902 	ld	bc,#_alphabet + 582
   1089 AF                 1903 	xor	a, a
   108A 02                 1904 	ld	(bc),a
   108B 01r4Fr03           1905 	ld	bc,#_alphabet + 583
   108E AF                 1906 	xor	a, a
   108F 02                 1907 	ld	(bc),a
   1090 01r50r03           1908 	ld	bc,#_alphabet + 584
   1093 AF                 1909 	xor	a, a
   1094 02                 1910 	ld	(bc),a
   1095 01r51r03           1911 	ld	bc,#_alphabet + 585
   1098 AF                 1912 	xor	a, a
   1099 02                 1913 	ld	(bc),a
   109A 01r52r03           1914 	ld	bc,#_alphabet + 586
   109D AF                 1915 	xor	a, a
   109E 02                 1916 	ld	(bc),a
   109F 01r53r03           1917 	ld	bc,#_alphabet + 587
   10A2 AF                 1918 	xor	a, a
   10A3 02                 1919 	ld	(bc),a
   10A4 01r54r03           1920 	ld	bc,#_alphabet + 588
   10A7 AF                 1921 	xor	a, a
   10A8 02                 1922 	ld	(bc),a
   10A9 01r55r03           1923 	ld	bc,#_alphabet + 589
   10AC AF                 1924 	xor	a, a
   10AD 02                 1925 	ld	(bc),a
   10AE 01r56r03           1926 	ld	bc,#_alphabet + 590
   10B1 AF                 1927 	xor	a, a
   10B2 02                 1928 	ld	(bc),a
   10B3 01r57r03           1929 	ld	bc,#_alphabet + 591
   10B6 AF                 1930 	xor	a, a
   10B7 02                 1931 	ld	(bc),a
   10B8 01r58r03           1932 	ld	bc,#_alphabet + 592
   10BB AF                 1933 	xor	a, a
   10BC 02                 1934 	ld	(bc),a
   10BD 01r59r03           1935 	ld	bc,#_alphabet + 593
   10C0 AF                 1936 	xor	a, a
   10C1 02                 1937 	ld	(bc),a
   10C2 01r5Ar03           1938 	ld	bc,#_alphabet + 594
   10C5 AF                 1939 	xor	a, a
   10C6 02                 1940 	ld	(bc),a
   10C7 01r5Br03           1941 	ld	bc,#_alphabet + 595
   10CA AF                 1942 	xor	a, a
   10CB 02                 1943 	ld	(bc),a
   10CC 21r5Cr03           1944 	ld	hl,#(_alphabet + 0x0254)
   10CF 36 60              1945 	ld	(hl),#0x60
   10D1 21r5Dr03           1946 	ld	hl,#(_alphabet + 0x0255)
   10D4 36 60              1947 	ld	(hl),#0x60
   10D6 21r5Er03           1948 	ld	hl,#(_alphabet + 0x0256)
   10D9 36 92              1949 	ld	(hl),#0x92
   10DB 21r5Fr03           1950 	ld	hl,#(_alphabet + 0x0257)
   10DE 36 92              1951 	ld	(hl),#0x92
   10E0 21r60r03           1952 	ld	hl,#(_alphabet + 0x0258)
   10E3 36 0C              1953 	ld	(hl),#0x0C
   10E5 21r61r03           1954 	ld	hl,#(_alphabet + 0x0259)
   10E8 36 0C              1955 	ld	(hl),#0x0C
   10EA 01r62r03           1956 	ld	bc,#_alphabet + 602
   10ED AF                 1957 	xor	a, a
   10EE 02                 1958 	ld	(bc),a
   10EF 01r63r03           1959 	ld	bc,#_alphabet + 603
   10F2 AF                 1960 	xor	a, a
   10F3 02                 1961 	ld	(bc),a
   10F4 01r64r03           1962 	ld	bc,#_alphabet + 604
   10F7 AF                 1963 	xor	a, a
   10F8 02                 1964 	ld	(bc),a
   10F9 01r65r03           1965 	ld	bc,#_alphabet + 605
   10FC AF                 1966 	xor	a, a
   10FD 02                 1967 	ld	(bc),a
   10FE 01r66r03           1968 	ld	bc,#_alphabet + 606
   1101 AF                 1969 	xor	a, a
   1102 02                 1970 	ld	(bc),a
   1103 01r67r03           1971 	ld	bc,#_alphabet + 607
   1106 AF                 1972 	xor	a, a
   1107 02                 1973 	ld	(bc),a
   1108 01r68r03           1974 	ld	bc,#_alphabet + 608
   110B AF                 1975 	xor	a, a
   110C 02                 1976 	ld	(bc),a
   110D 01r69r03           1977 	ld	bc,#_alphabet + 609
   1110 AF                 1978 	xor	a, a
   1111 02                 1979 	ld	(bc),a
   1112 01r6Ar03           1980 	ld	bc,#_alphabet + 610
   1115 AF                 1981 	xor	a, a
   1116 02                 1982 	ld	(bc),a
   1117 01r6Br03           1983 	ld	bc,#_alphabet + 611
   111A AF                 1984 	xor	a, a
   111B 02                 1985 	ld	(bc),a
   111C 01r6Cr03           1986 	ld	bc,#_alphabet + 612
   111F AF                 1987 	xor	a, a
   1120 02                 1988 	ld	(bc),a
   1121 01r6Dr03           1989 	ld	bc,#_alphabet + 613
   1124 AF                 1990 	xor	a, a
   1125 02                 1991 	ld	(bc),a
   1126 01r6Er03           1992 	ld	bc,#_alphabet + 614
   1129 AF                 1993 	xor	a, a
   112A 02                 1994 	ld	(bc),a
   112B 01r6Fr03           1995 	ld	bc,#_alphabet + 615
   112E AF                 1996 	xor	a, a
   112F 02                 1997 	ld	(bc),a
   1130 01r70r03           1998 	ld	bc,#_alphabet + 616
   1133 AF                 1999 	xor	a, a
   1134 02                 2000 	ld	(bc),a
   1135 01r71r03           2001 	ld	bc,#_alphabet + 617
   1138 AF                 2002 	xor	a, a
   1139 02                 2003 	ld	(bc),a
   113A 01r72r03           2004 	ld	bc,#_alphabet + 618
   113D AF                 2005 	xor	a, a
   113E 02                 2006 	ld	(bc),a
   113F 01r73r03           2007 	ld	bc,#_alphabet + 619
   1142 AF                 2008 	xor	a, a
   1143 02                 2009 	ld	(bc),a
   1144 21r74r03           2010 	ld	hl,#(_alphabet + 0x026c)
   1147 36 FE              2011 	ld	(hl),#0xFE
   1149 21r75r03           2012 	ld	hl,#(_alphabet + 0x026d)
   114C 36 FE              2013 	ld	(hl),#0xFE
   114E 01r76r03           2014 	ld	bc,#_alphabet + 622
   1151 AF                 2015 	xor	a, a
   1152 02                 2016 	ld	(bc),a
   1153 01r77r03           2017 	ld	bc,#_alphabet + 623
   1156 AF                 2018 	xor	a, a
   1157 02                 2019 	ld	(bc),a
   1158 21r78r03           2020 	ld	hl,#(_alphabet + 0x0270)
   115B 36 10              2021 	ld	(hl),#0x10
   115D 21r79r03           2022 	ld	hl,#(_alphabet + 0x0271)
   1160 36 10              2023 	ld	(hl),#0x10
   1162 21r7Ar03           2024 	ld	hl,#(_alphabet + 0x0272)
   1165 36 10              2025 	ld	(hl),#0x10
   1167 21r7Br03           2026 	ld	hl,#(_alphabet + 0x0273)
   116A 36 10              2027 	ld	(hl),#0x10
   116C 21r7Cr03           2028 	ld	hl,#(_alphabet + 0x0274)
   116F 36 10              2029 	ld	(hl),#0x10
   1171 21r7Dr03           2030 	ld	hl,#(_alphabet + 0x0275)
   1174 36 10              2031 	ld	(hl),#0x10
   1176 21r7Er03           2032 	ld	hl,#(_alphabet + 0x0276)
   1179 36 10              2033 	ld	(hl),#0x10
   117B 21r7Fr03           2034 	ld	hl,#(_alphabet + 0x0277)
   117E 36 10              2035 	ld	(hl),#0x10
   1180 21r80r03           2036 	ld	hl,#(_alphabet + 0x0278)
   1183 36 10              2037 	ld	(hl),#0x10
   1185 21r81r03           2038 	ld	hl,#(_alphabet + 0x0279)
   1188 36 10              2039 	ld	(hl),#0x10
   118A 01r82r03           2040 	ld	bc,#_alphabet + 634
   118D AF                 2041 	xor	a, a
   118E 02                 2042 	ld	(bc),a
   118F 01r83r03           2043 	ld	bc,#_alphabet + 635
   1192 AF                 2044 	xor	a, a
   1193 02                 2045 	ld	(bc),a
   1194 21r84r03           2046 	ld	hl,#(_alphabet + 0x027c)
   1197 36 10              2047 	ld	(hl),#0x10
   1199 21r85r03           2048 	ld	hl,#(_alphabet + 0x027d)
   119C 36 10              2049 	ld	(hl),#0x10
   119E 01r86r03           2050 	ld	bc,#_alphabet + 638
   11A1 AF                 2051 	xor	a, a
   11A2 02                 2052 	ld	(bc),a
   11A3 01r87r03           2053 	ld	bc,#_alphabet + 639
   11A6 AF                 2054 	xor	a, a
   11A7 02                 2055 	ld	(bc),a
   11A8 21r88r03           2056 	ld	hl,#(_alphabet + 0x0280)
   11AB 36 3C              2057 	ld	(hl),#0x3C
   11AD 21r89r03           2058 	ld	hl,#(_alphabet + 0x0281)
   11B0 36 3C              2059 	ld	(hl),#0x3C
   11B2 21r8Ar03           2060 	ld	hl,#(_alphabet + 0x0282)
   11B5 36 42              2061 	ld	(hl),#0x42
   11B7 21r8Br03           2062 	ld	hl,#(_alphabet + 0x0283)
   11BA 36 42              2063 	ld	(hl),#0x42
   11BC 21r8Cr03           2064 	ld	hl,#(_alphabet + 0x0284)
   11BF 36 42              2065 	ld	(hl),#0x42
   11C1 21r8Dr03           2066 	ld	hl,#(_alphabet + 0x0285)
   11C4 36 42              2067 	ld	(hl),#0x42
   11C6 21r8Er03           2068 	ld	hl,#(_alphabet + 0x0286)
   11C9 36 1C              2069 	ld	(hl),#0x1C
   11CB 21r8Fr03           2070 	ld	hl,#(_alphabet + 0x0287)
   11CE 36 1C              2071 	ld	(hl),#0x1C
   11D0 21r90r03           2072 	ld	hl,#(_alphabet + 0x0288)
   11D3 36 10              2073 	ld	(hl),#0x10
   11D5 21r91r03           2074 	ld	hl,#(_alphabet + 0x0289)
   11D8 36 10              2075 	ld	(hl),#0x10
   11DA 01r92r03           2076 	ld	bc,#_alphabet + 650
   11DD AF                 2077 	xor	a, a
   11DE 02                 2078 	ld	(bc),a
   11DF 01r93r03           2079 	ld	bc,#_alphabet + 651
   11E2 AF                 2080 	xor	a, a
   11E3 02                 2081 	ld	(bc),a
   11E4 21r94r03           2082 	ld	hl,#(_alphabet + 0x028c)
   11E7 36 10              2083 	ld	(hl),#0x10
   11E9 21r95r03           2084 	ld	hl,#(_alphabet + 0x028d)
   11EC 36 10              2085 	ld	(hl),#0x10
   11EE 01r96r03           2086 	ld	bc,#_alphabet + 654
   11F1 AF                 2087 	xor	a, a
   11F2 02                 2088 	ld	(bc),a
   11F3 01r97r03           2089 	ld	bc,#_alphabet + 655
   11F6 AF                 2090 	xor	a, a
   11F7 02                 2091 	ld	(bc),a
   11F8 21r98r03           2092 	ld	hl,#(_alphabet + 0x0290)
   11FB 36 18              2093 	ld	(hl),#0x18
   11FD 21r99r03           2094 	ld	hl,#(_alphabet + 0x0291)
   1200 36 18              2095 	ld	(hl),#0x18
   1202 21r9Ar03           2096 	ld	hl,#(_alphabet + 0x0292)
   1205 36 18              2097 	ld	(hl),#0x18
   1207 21r9Br03           2098 	ld	hl,#(_alphabet + 0x0293)
   120A 36 18              2099 	ld	(hl),#0x18
   120C 21r9Cr03           2100 	ld	hl,#(_alphabet + 0x0294)
   120F 36 08              2101 	ld	(hl),#0x08
   1211 21r9Dr03           2102 	ld	hl,#(_alphabet + 0x0295)
   1214 36 08              2103 	ld	(hl),#0x08
   1216 21r9Er03           2104 	ld	hl,#(_alphabet + 0x0296)
   1219 36 10              2105 	ld	(hl),#0x10
   121B 21r9Fr03           2106 	ld	hl,#(_alphabet + 0x0297)
   121E 36 10              2107 	ld	(hl),#0x10
   1220 01rA0r03           2108 	ld	bc,#_alphabet + 664
   1223 AF                 2109 	xor	a, a
   1224 02                 2110 	ld	(bc),a
   1225 01rA1r03           2111 	ld	bc,#_alphabet + 665
   1228 AF                 2112 	xor	a, a
   1229 02                 2113 	ld	(bc),a
   122A 01rA2r03           2114 	ld	bc,#_alphabet + 666
   122D AF                 2115 	xor	a, a
   122E 02                 2116 	ld	(bc),a
   122F 01rA3r03           2117 	ld	bc,#_alphabet + 667
   1232 AF                 2118 	xor	a, a
   1233 02                 2119 	ld	(bc),a
   1234 01rA4r03           2120 	ld	bc,#_alphabet + 668
   1237 AF                 2121 	xor	a, a
   1238 02                 2122 	ld	(bc),a
   1239 01rA5r03           2123 	ld	bc,#_alphabet + 669
   123C AF                 2124 	xor	a, a
   123D 02                 2125 	ld	(bc),a
   123E 01rA6r03           2126 	ld	bc,#_alphabet + 670
   1241 AF                 2127 	xor	a, a
   1242 02                 2128 	ld	(bc),a
   1243 01rA7r03           2129 	ld	bc,#_alphabet + 671
   1246 AF                 2130 	xor	a, a
   1247 02                 2131 	ld	(bc),a
   1248 01rA8r03           2132 	ld	bc,#_alphabet + 672
   124B AF                 2133 	xor	a, a
   124C 02                 2134 	ld	(bc),a
   124D 01rA9r03           2135 	ld	bc,#_alphabet + 673
   1250 AF                 2136 	xor	a, a
   1251 02                 2137 	ld	(bc),a
   1252 01rAAr03           2138 	ld	bc,#_alphabet + 674
   1255 AF                 2139 	xor	a, a
   1256 02                 2140 	ld	(bc),a
   1257 01rABr03           2141 	ld	bc,#_alphabet + 675
   125A AF                 2142 	xor	a, a
   125B 02                 2143 	ld	(bc),a
   125C 01rACr03           2144 	ld	bc,#_alphabet + 676
   125F AF                 2145 	xor	a, a
   1260 02                 2146 	ld	(bc),a
   1261 01rADr03           2147 	ld	bc,#_alphabet + 677
   1264 AF                 2148 	xor	a, a
   1265 02                 2149 	ld	(bc),a
   1266 01rAEr03           2150 	ld	bc,#_alphabet + 678
   1269 AF                 2151 	xor	a, a
   126A 02                 2152 	ld	(bc),a
   126B 01rAFr03           2153 	ld	bc,#_alphabet + 679
   126E AF                 2154 	xor	a, a
   126F 02                 2155 	ld	(bc),a
   1270 01rB0r03           2156 	ld	bc,#_alphabet + 680
   1273 AF                 2157 	xor	a, a
   1274 02                 2158 	ld	(bc),a
   1275 01rB1r03           2159 	ld	bc,#_alphabet + 681
   1278 AF                 2160 	xor	a, a
   1279 02                 2161 	ld	(bc),a
   127A 21rB2r03           2162 	ld	hl,#(_alphabet + 0x02aa)
   127D 36 18              2163 	ld	(hl),#0x18
   127F 21rB3r03           2164 	ld	hl,#(_alphabet + 0x02ab)
   1282 36 18              2165 	ld	(hl),#0x18
   1284 21rB4r03           2166 	ld	hl,#(_alphabet + 0x02ac)
   1287 36 18              2167 	ld	(hl),#0x18
   1289 21rB5r03           2168 	ld	hl,#(_alphabet + 0x02ad)
   128C 36 18              2169 	ld	(hl),#0x18
   128E 01rB6r03           2170 	ld	bc,#_alphabet + 686
   1291 AF                 2171 	xor	a, a
   1292 02                 2172 	ld	(bc),a
   1293 01rB7r03           2173 	ld	bc,#_alphabet + 687
   1296 AF                 2174 	xor	a, a
   1297 02                 2175 	ld	(bc),a
   1298 01rB8r03           2176 	ld	bc,#_alphabet + 688
   129B AF                 2177 	xor	a, a
   129C 02                 2178 	ld	(bc),a
   129D 01rB9r03           2179 	ld	bc,#_alphabet + 689
   12A0 AF                 2180 	xor	a, a
   12A1 02                 2181 	ld	(bc),a
   12A2 01rBAr03           2182 	ld	bc,#_alphabet + 690
   12A5 AF                 2183 	xor	a, a
   12A6 02                 2184 	ld	(bc),a
   12A7 01rBBr03           2185 	ld	bc,#_alphabet + 691
   12AA AF                 2186 	xor	a, a
   12AB 02                 2187 	ld	(bc),a
   12AC 01rBCr03           2188 	ld	bc,#_alphabet + 692
   12AF AF                 2189 	xor	a, a
   12B0 02                 2190 	ld	(bc),a
   12B1 01rBDr03           2191 	ld	bc,#_alphabet + 693
   12B4 AF                 2192 	xor	a, a
   12B5 02                 2193 	ld	(bc),a
   12B6 21rBEr03           2194 	ld	hl,#(_alphabet + 0x02b6)
   12B9 36 18              2195 	ld	(hl),#0x18
   12BB 21rBFr03           2196 	ld	hl,#(_alphabet + 0x02b7)
   12BE 36 18              2197 	ld	(hl),#0x18
   12C0 21rC0r03           2198 	ld	hl,#(_alphabet + 0x02b8)
   12C3 36 18              2199 	ld	(hl),#0x18
   12C5 21rC1r03           2200 	ld	hl,#(_alphabet + 0x02b9)
   12C8 36 18              2201 	ld	(hl),#0x18
   12CA 21rC2r03           2202 	ld	hl,#(_alphabet + 0x02ba)
   12CD 36 08              2203 	ld	(hl),#0x08
   12CF 21rC3r03           2204 	ld	hl,#(_alphabet + 0x02bb)
   12D2 36 08              2205 	ld	(hl),#0x08
   12D4 21rC4r03           2206 	ld	hl,#(_alphabet + 0x02bc)
   12D7 36 10              2207 	ld	(hl),#0x10
   12D9 21rC5r03           2208 	ld	hl,#(_alphabet + 0x02bd)
   12DC 36 10              2209 	ld	(hl),#0x10
   12DE 01rC6r03           2210 	ld	bc,#_alphabet + 702
   12E1 AF                 2211 	xor	a, a
   12E2 02                 2212 	ld	(bc),a
   12E3 01rC7r03           2213 	ld	bc,#_alphabet + 703
   12E6 AF                 2214 	xor	a, a
   12E7 02                 2215 	ld	(bc),a
   12E8 01rC8r03           2216 	ld	bc,#_alphabet + 704
   12EB AF                 2217 	xor	a, a
   12EC 02                 2218 	ld	(bc),a
   12ED 01rC9r03           2219 	ld	bc,#_alphabet + 705
   12F0 AF                 2220 	xor	a, a
   12F1 02                 2221 	ld	(bc),a
   12F2 01rCAr03           2222 	ld	bc,#_alphabet + 706
   12F5 AF                 2223 	xor	a, a
   12F6 02                 2224 	ld	(bc),a
   12F7 01rCBr03           2225 	ld	bc,#_alphabet + 707
   12FA AF                 2226 	xor	a, a
   12FB 02                 2227 	ld	(bc),a
   12FC 01rCCr03           2228 	ld	bc,#_alphabet + 708
   12FF AF                 2229 	xor	a, a
   1300 02                 2230 	ld	(bc),a
   1301 01rCDr03           2231 	ld	bc,#_alphabet + 709
   1304 AF                 2232 	xor	a, a
   1305 02                 2233 	ld	(bc),a
   1306 21rCEr03           2234 	ld	hl,#(_alphabet + 0x02c6)
   1309 36 54              2235 	ld	(hl),#0x54
   130B 21rCFr03           2236 	ld	hl,#(_alphabet + 0x02c7)
   130E 36 54              2237 	ld	(hl),#0x54
   1310 01rD0r03           2238 	ld	bc,#_alphabet + 712
   1313 AF                 2239 	xor	a, a
   1314 02                 2240 	ld	(bc),a
   1315 01rD1r03           2241 	ld	bc,#_alphabet + 713
   1318 AF                 2242 	xor	a, a
   1319 02                 2243 	ld	(bc),a
   131A 01rD2r03           2244 	ld	bc,#_alphabet + 714
   131D AF                 2245 	xor	a, a
   131E 02                 2246 	ld	(bc),a
   131F 01rD3r03           2247 	ld	bc,#_alphabet + 715
   1322 AF                 2248 	xor	a, a
   1323 02                 2249 	ld	(bc),a
   1324 01rD4r03           2250 	ld	bc,#_alphabet + 716
   1327 AF                 2251 	xor	a, a
   1328 02                 2252 	ld	(bc),a
   1329 01rD5r03           2253 	ld	bc,#_alphabet + 717
   132C AF                 2254 	xor	a, a
   132D 02                 2255 	ld	(bc),a
   132E 01rD6r03           2256 	ld	bc,#_alphabet + 718
   1331 AF                 2257 	xor	a, a
   1332 02                 2258 	ld	(bc),a
   1333 01rD7r03           2259 	ld	bc,#_alphabet + 719
   1336 AF                 2260 	xor	a, a
   1337 02                 2261 	ld	(bc),a
   1338 01rD8r03           2262 	ld	bc,#_alphabet + 720
   133B AF                 2263 	xor	a, a
   133C 02                 2264 	ld	(bc),a
   133D 01rD9r03           2265 	ld	bc,#_alphabet + 721
   1340 AF                 2266 	xor	a, a
   1341 02                 2267 	ld	(bc),a
   1342 01rDAr03           2268 	ld	bc,#_alphabet + 722
   1345 AF                 2269 	xor	a, a
   1346 02                 2270 	ld	(bc),a
   1347 01rDBr03           2271 	ld	bc,#_alphabet + 723
   134A AF                 2272 	xor	a, a
   134B 02                 2273 	ld	(bc),a
   134C 01rDCr03           2274 	ld	bc,#_alphabet + 724
   134F AF                 2275 	xor	a, a
   1350 02                 2276 	ld	(bc),a
   1351 01rDDr03           2277 	ld	bc,#_alphabet + 725
   1354 AF                 2278 	xor	a, a
   1355 02                 2279 	ld	(bc),a
   1356 21rDEr03           2280 	ld	hl,#(_alphabet + 0x02d6)
   1359 36 10              2281 	ld	(hl),#0x10
   135B 21rDFr03           2282 	ld	hl,#(_alphabet + 0x02d7)
   135E 36 10              2283 	ld	(hl),#0x10
   1360 01rE0r03           2284 	ld	bc,#_alphabet + 728
   1363 AF                 2285 	xor	a, a
   1364 02                 2286 	ld	(bc),a
   1365 01rE1r03           2287 	ld	bc,#_alphabet + 729
   1368 AF                 2288 	xor	a, a
   1369 02                 2289 	ld	(bc),a
   136A 21rE2r03           2290 	ld	hl,#(_alphabet + 0x02da)
   136D 36 10              2291 	ld	(hl),#0x10
   136F 21rE3r03           2292 	ld	hl,#(_alphabet + 0x02db)
   1372 36 10              2293 	ld	(hl),#0x10
   1374 01rE4r03           2294 	ld	bc,#_alphabet + 732
   1377 AF                 2295 	xor	a, a
   1378 02                 2296 	ld	(bc),a
   1379 01rE5r03           2297 	ld	bc,#_alphabet + 733
   137C AF                 2298 	xor	a, a
   137D 02                 2299 	ld	(bc),a
   137E 01rE6r03           2300 	ld	bc,#_alphabet + 734
   1381 AF                 2301 	xor	a, a
   1382 02                 2302 	ld	(bc),a
   1383 01rE7r03           2303 	ld	bc,#_alphabet + 735
   1386 AF                 2304 	xor	a, a
   1387 02                 2305 	ld	(bc),a
                           2306 ;main.c:194: unsigned char arrow_tile[] =
   1388 21rE8r03           2307 	ld	hl,#_arrow_tile
   138B 36 00              2308 	ld	(hl),#0x00
   138D 01rE9r03           2309 	ld	bc,#_arrow_tile + 1
   1390 AF                 2310 	xor	a, a
   1391 02                 2311 	ld	(bc),a
   1392 01rEAr03           2312 	ld	bc,#_arrow_tile + 2
   1395 AF                 2313 	xor	a, a
   1396 02                 2314 	ld	(bc),a
   1397 01rEBr03           2315 	ld	bc,#_arrow_tile + 3
   139A AF                 2316 	xor	a, a
   139B 02                 2317 	ld	(bc),a
   139C 01rECr03           2318 	ld	bc,#_arrow_tile + 4
   139F AF                 2319 	xor	a, a
   13A0 02                 2320 	ld	(bc),a
   13A1 01rEDr03           2321 	ld	bc,#_arrow_tile + 5
   13A4 AF                 2322 	xor	a, a
   13A5 02                 2323 	ld	(bc),a
   13A6 01rEEr03           2324 	ld	bc,#_arrow_tile + 6
   13A9 AF                 2325 	xor	a, a
   13AA 02                 2326 	ld	(bc),a
   13AB 21rEFr03           2327 	ld	hl,#(_arrow_tile + 0x0007)
   13AE 36 7E              2328 	ld	(hl),#0x7E
   13B0 21rF0r03           2329 	ld	hl,#(_arrow_tile + 0x0008)
   13B3 36 7E              2330 	ld	(hl),#0x7E
   13B5 21rF1r03           2331 	ld	hl,#(_arrow_tile + 0x0009)
   13B8 36 7E              2332 	ld	(hl),#0x7E
   13BA 21rF2r03           2333 	ld	hl,#(_arrow_tile + 0x000a)
   13BD 36 7E              2334 	ld	(hl),#0x7E
   13BF 21rF3r03           2335 	ld	hl,#(_arrow_tile + 0x000b)
   13C2 36 7E              2336 	ld	(hl),#0x7E
   13C4 21rF4r03           2337 	ld	hl,#(_arrow_tile + 0x000c)
   13C7 36 3C              2338 	ld	(hl),#0x3C
   13C9 21rF5r03           2339 	ld	hl,#(_arrow_tile + 0x000d)
   13CC 36 3C              2340 	ld	(hl),#0x3C
   13CE 21rF6r03           2341 	ld	hl,#(_arrow_tile + 0x000e)
   13D1 36 18              2342 	ld	(hl),#0x18
   13D3 21rF7r03           2343 	ld	hl,#(_arrow_tile + 0x000f)
   13D6 36 18              2344 	ld	(hl),#0x18
   13D8 01rF8r03           2345 	ld	bc,#_arrow_tile + 16
   13DB AF                 2346 	xor	a, a
   13DC 02                 2347 	ld	(bc),a
   13DD 01rF9r03           2348 	ld	bc,#_arrow_tile + 17
   13E0 AF                 2349 	xor	a, a
   13E1 02                 2350 	ld	(bc),a
   13E2 01rFAr03           2351 	ld	bc,#_arrow_tile + 18
   13E5 AF                 2352 	xor	a, a
   13E6 02                 2353 	ld	(bc),a
   13E7 01rFBr03           2354 	ld	bc,#_arrow_tile + 19
   13EA AF                 2355 	xor	a, a
   13EB 02                 2356 	ld	(bc),a
   13EC 01rFCr03           2357 	ld	bc,#_arrow_tile + 20
   13EF AF                 2358 	xor	a, a
   13F0 02                 2359 	ld	(bc),a
   13F1 21rFDr03           2360 	ld	hl,#(_arrow_tile + 0x0015)
   13F4 36 7E              2361 	ld	(hl),#0x7E
   13F6 21rFEr03           2362 	ld	hl,#(_arrow_tile + 0x0016)
   13F9 36 7E              2363 	ld	(hl),#0x7E
   13FB 21rFFr03           2364 	ld	hl,#(_arrow_tile + 0x0017)
   13FE 36 7E              2365 	ld	(hl),#0x7E
   1400 21r00r04           2366 	ld	hl,#(_arrow_tile + 0x0018)
   1403 36 7E              2367 	ld	(hl),#0x7E
   1405 21r01r04           2368 	ld	hl,#(_arrow_tile + 0x0019)
   1408 36 7E              2369 	ld	(hl),#0x7E
   140A 21r02r04           2370 	ld	hl,#(_arrow_tile + 0x001a)
   140D 36 3C              2371 	ld	(hl),#0x3C
   140F 21r03r04           2372 	ld	hl,#(_arrow_tile + 0x001b)
   1412 36 3C              2373 	ld	(hl),#0x3C
   1414 21r04r04           2374 	ld	hl,#(_arrow_tile + 0x001c)
   1417 36 18              2375 	ld	(hl),#0x18
   1419 21r05r04           2376 	ld	hl,#(_arrow_tile + 0x001d)
   141C 36 18              2377 	ld	(hl),#0x18
   141E 01r06r04           2378 	ld	bc,#_arrow_tile + 30
   1421 AF                 2379 	xor	a, a
   1422 02                 2380 	ld	(bc),a
   1423 01r07r04           2381 	ld	bc,#_arrow_tile + 31
   1426 AF                 2382 	xor	a, a
   1427 02                 2383 	ld	(bc),a
                           2384 ;main.c:204: unsigned char text_map[] =
   1428 21r08r04           2385 	ld	hl,#_text_map
   142B 36 16              2386 	ld	(hl),#0x16
   142D 21r09r04           2387 	ld	hl,#(_text_map + 0x0001)
   1430 36 17              2388 	ld	(hl),#0x17
   1432 21r0Ar04           2389 	ld	hl,#(_text_map + 0x0002)
   1435 36 29              2390 	ld	(hl),#0x29
   1437 21r0Br04           2391 	ld	hl,#(_text_map + 0x0003)
   143A 36 04              2392 	ld	(hl),#0x04
   143C 21r0Cr04           2393 	ld	hl,#(_text_map + 0x0004)
   143F 36 04              2394 	ld	(hl),#0x04
   1441 21r0Dr04           2395 	ld	hl,#(_text_map + 0x0005)
   1444 36 04              2396 	ld	(hl),#0x04
   1446 21r0Er04           2397 	ld	hl,#(_text_map + 0x0006)
   1449 36 04              2398 	ld	(hl),#0x04
   144B 21r0Fr04           2399 	ld	hl,#(_text_map + 0x0007)
   144E 36 04              2400 	ld	(hl),#0x04
   1450 21r10r04           2401 	ld	hl,#(_text_map + 0x0008)
   1453 36 04              2402 	ld	(hl),#0x04
   1455 21r11r04           2403 	ld	hl,#(_text_map + 0x0009)
   1458 36 04              2404 	ld	(hl),#0x04
   145A 21r12r04           2405 	ld	hl,#(_text_map + 0x000a)
   145D 36 04              2406 	ld	(hl),#0x04
   145F 21r13r04           2407 	ld	hl,#(_text_map + 0x000b)
   1462 36 04              2408 	ld	(hl),#0x04
   1464 21r14r04           2409 	ld	hl,#(_text_map + 0x000c)
   1467 36 04              2410 	ld	(hl),#0x04
   1469 21r15r04           2411 	ld	hl,#(_text_map + 0x000d)
   146C 36 04              2412 	ld	(hl),#0x04
   146E 21r16r04           2413 	ld	hl,#(_text_map + 0x000e)
   1471 36 04              2414 	ld	(hl),#0x04
   1473 21r17r04           2415 	ld	hl,#(_text_map + 0x000f)
   1476 36 04              2416 	ld	(hl),#0x04
   1478 21r18r04           2417 	ld	hl,#(_text_map + 0x0010)
   147B 36 04              2418 	ld	(hl),#0x04
   147D 21r19r04           2419 	ld	hl,#(_text_map + 0x0011)
   1480 36 04              2420 	ld	(hl),#0x04
   1482 21r1Ar04           2421 	ld	hl,#(_text_map + 0x0012)
   1485 36 04              2422 	ld	(hl),#0x04
   1487 21r1Br04           2423 	ld	hl,#(_text_map + 0x0013)
   148A 36 04              2424 	ld	(hl),#0x04
   148C 21r1Cr04           2425 	ld	hl,#(_text_map + 0x0014)
   148F 36 04              2426 	ld	(hl),#0x04
   1491 21r1Dr04           2427 	ld	hl,#(_text_map + 0x0015)
   1494 36 04              2428 	ld	(hl),#0x04
   1496 21r1Er04           2429 	ld	hl,#(_text_map + 0x0016)
   1499 36 04              2430 	ld	(hl),#0x04
   149B 21r1Fr04           2431 	ld	hl,#(_text_map + 0x0017)
   149E 36 04              2432 	ld	(hl),#0x04
   14A0 21r20r04           2433 	ld	hl,#(_text_map + 0x0018)
   14A3 36 04              2434 	ld	(hl),#0x04
   14A5 21r21r04           2435 	ld	hl,#(_text_map + 0x0019)
   14A8 36 04              2436 	ld	(hl),#0x04
   14AA 21r22r04           2437 	ld	hl,#(_text_map + 0x001a)
   14AD 36 04              2438 	ld	(hl),#0x04
   14AF 21r23r04           2439 	ld	hl,#(_text_map + 0x001b)
   14B2 36 04              2440 	ld	(hl),#0x04
   14B4 21r24r04           2441 	ld	hl,#(_text_map + 0x001c)
   14B7 36 04              2442 	ld	(hl),#0x04
   14B9 21r25r04           2443 	ld	hl,#(_text_map + 0x001d)
   14BC 36 04              2444 	ld	(hl),#0x04
   14BE 21r26r04           2445 	ld	hl,#(_text_map + 0x001e)
   14C1 36 04              2446 	ld	(hl),#0x04
   14C3 21r27r04           2447 	ld	hl,#(_text_map + 0x001f)
   14C6 36 04              2448 	ld	(hl),#0x04
                           2449 ;main.c:223: UINT8 input_seq_ctr = 0;
   14C8 21r38r04           2450 	ld	hl,#_input_seq_ctr
   14CB 36 00              2451 	ld	(hl),#0x00
                           2452 ;main.c:227: UINT8 flag_a[] =
   14CD 21r39r04           2453 	ld	hl,#_flag_a
   14D0 36 12              2454 	ld	(hl),#0x12
   14D2 21r3Ar04           2455 	ld	hl,#(_flag_a + 0x0001)
   14D5 36 64              2456 	ld	(hl),#0x64
   14D7 21r3Br04           2457 	ld	hl,#(_flag_a + 0x0002)
   14DA 36 88              2458 	ld	(hl),#0x88
   14DC 21r3Cr04           2459 	ld	hl,#(_flag_a + 0x0003)
   14DF 36 F7              2460 	ld	(hl),#0xF7
   14E1 21r3Dr04           2461 	ld	hl,#(_flag_a + 0x0004)
   14E4 36 77              2462 	ld	(hl),#0x77
   14E6 21r3Er04           2463 	ld	hl,#(_flag_a + 0x0005)
   14E9 36 95              2464 	ld	(hl),#0x95
   14EB 21r3Fr04           2465 	ld	hl,#(_flag_a + 0x0006)
   14EE 36 8A              2466 	ld	(hl),#0x8A
   14F0 21r40r04           2467 	ld	hl,#(_flag_a + 0x0007)
   14F3 36 5A              2468 	ld	(hl),#0x5A
                           2469 ;main.c:231: UINT8 flag_b[] =
   14F5 21r41r04           2470 	ld	hl,#_flag_b
   14F8 36 E1              2471 	ld	(hl),#0xE1
   14FA 21r42r04           2472 	ld	hl,#(_flag_b + 0x0001)
   14FD 36 D5              2473 	ld	(hl),#0xD5
   14FF 21r43r04           2474 	ld	hl,#(_flag_b + 0x0002)
   1502 36 FA              2475 	ld	(hl),#0xFA
   1504 21r44r04           2476 	ld	hl,#(_flag_b + 0x0003)
   1507 36 93              2477 	ld	(hl),#0x93
   1509 21r45r04           2478 	ld	hl,#(_flag_b + 0x0004)
   150C 36 3E              2479 	ld	(hl),#0x3E
   150E 21r46r04           2480 	ld	hl,#(_flag_b + 0x0005)
   1511 36 13              2481 	ld	(hl),#0x13
   1513 21r47r04           2482 	ld	hl,#(_flag_b + 0x0006)
   1516 36 30              2483 	ld	(hl),#0x30
   1518 21r48r04           2484 	ld	hl,#(_flag_b + 0x0007)
   151B 36 5F              2485 	ld	(hl),#0x5F
                           2486 ;--------------------------------------------------------
                           2487 ; Home
                           2488 ;--------------------------------------------------------
                           2489 	.area _HOME
                           2490 	.area _HOME
                           2491 ;--------------------------------------------------------
                           2492 ; code
                           2493 ;--------------------------------------------------------
                           2494 	.area _CODE
                           2495 ;main.c:249: UINT8 divide_UINT8(UINT8 a, UINT8 b)
                           2496 ;	---------------------------------
                           2497 ; Function divide_UINT8
                           2498 ; ---------------------------------
   0000                    2499 _divide_UINT8::
                           2500 ;main.c:253: while (a >= b) {
   0000 06 00              2501 	ld	b,#0x00
   0002                    2502 00101$:
   0002 F8 02              2503 	ldhl	sp,#2
   0004 2A                 2504 	ld	a,(hl+)
   0005 96                 2505 	sub	a, (hl)
   0006 38 08              2506 	jr	C,00103$
                           2507 ;main.c:254: a -= b;
   0008 2B                 2508 	dec	hl
   0009 2A                 2509 	ld	a,(hl+)
   000A 96                 2510 	sub	a, (hl)
   000B 2B                 2511 	dec	hl
   000C 77                 2512 	ld	(hl),a
                           2513 ;main.c:255: result++;
   000D 04                 2514 	inc	b
   000E 18 F2              2515 	jr	00101$
   0010                    2516 00103$:
                           2517 ;main.c:257: return result;
   0010 58                 2518 	ld	e,b
   0011 C9                 2519 	ret
   0012                    2520 _agent:
   0012 00                 2521 	.db #0x00	; 0
   0013 07                 2522 	.db #0x07	; 7
   0014 00                 2523 	.db #0x00	; 0
   0015 0F                 2524 	.db #0x0F	; 15
   0016 00                 2525 	.db #0x00	; 0
   0017 0F                 2526 	.db #0x0F	; 15
   0018 00                 2527 	.db #0x00	; 0
   0019 7F                 2528 	.db #0x7F	; 127
   001A 00                 2529 	.db #0x00	; 0
   001B 6F                 2530 	.db #0x6F	; 111	'o'
   001C 01                 2531 	.db #0x01	; 1
   001D 6E                 2532 	.db #0x6E	; 110	'n'
   001E 01                 2533 	.db #0x01	; 1
   001F EE                 2534 	.db #0xEE	; 238
   0020 00                 2535 	.db #0x00	; 0
   0021 0F                 2536 	.db #0x0F	; 15
   0022 00                 2537 	.db #0x00	; 0
   0023 03                 2538 	.db #0x03	; 3
   0024 01                 2539 	.db #0x01	; 1
   0025 00                 2540 	.db #0x00	; 0
   0026 00                 2541 	.db #0x00	; 0
   0027 01                 2542 	.db #0x01	; 1
   0028 00                 2543 	.db #0x00	; 0
   0029 07                 2544 	.db #0x07	; 7
   002A 00                 2545 	.db #0x00	; 0
   002B 0F                 2546 	.db #0x0F	; 15
   002C 01                 2547 	.db #0x01	; 1
   002D 0E                 2548 	.db #0x0E	; 14
   002E 00                 2549 	.db #0x00	; 0
   002F 1F                 2550 	.db #0x1F	; 31
   0030 01                 2551 	.db #0x01	; 1
   0031 1E                 2552 	.db #0x1E	; 30
   0032 00                 2553 	.db #0x00	; 0
   0033 F8                 2554 	.db #0xF8	; 248
   0034 00                 2555 	.db #0x00	; 0
   0035 FC                 2556 	.db #0xFC	; 252
   0036 00                 2557 	.db #0x00	; 0
   0037 FC                 2558 	.db #0xFC	; 252
   0038 3C                 2559 	.db #0x3C	; 60
   0039 C0                 2560 	.db #0xC0	; 192
   003A 3C                 2561 	.db #0x3C	; 60
   003B C8                 2562 	.db #0xC8	; 200
   003C BC                 2563 	.db #0xBC	; 188
   003D 50                 2564 	.db #0x50	; 80	'P'
   003E BC                 2565 	.db #0xBC	; 188
   003F 50                 2566 	.db #0x50	; 80	'P'
   0040 6C                 2567 	.db #0x6C	; 108	'l'
   0041 90                 2568 	.db #0x90	; 144
   0042 38                 2569 	.db #0x38	; 56	'8'
   0043 C0                 2570 	.db #0xC0	; 192
   0044 F0                 2571 	.db #0xF0	; 240
   0045 00                 2572 	.db #0x00	; 0
   0046 00                 2573 	.db #0x00	; 0
   0047 C0                 2574 	.db #0xC0	; 192
   0048 00                 2575 	.db #0x00	; 0
   0049 F0                 2576 	.db #0xF0	; 240
   004A 00                 2577 	.db #0x00	; 0
   004B F8                 2578 	.db #0xF8	; 248
   004C 00                 2579 	.db #0x00	; 0
   004D F8                 2580 	.db #0xF8	; 248
   004E 00                 2581 	.db #0x00	; 0
   004F F8                 2582 	.db #0xF8	; 248
   0050 00                 2583 	.db #0x00	; 0
   0051 F8                 2584 	.db #0xF8	; 248
   0052 00                 2585 	.db #0x00	; 0
   0053 1F                 2586 	.db #0x1F	; 31
   0054 1D                 2587 	.db #0x1D	; 29
   0055 02                 2588 	.db #0x02	; 2
   0056 1C                 2589 	.db #0x1C	; 28
   0057 03                 2590 	.db #0x03	; 3
   0058 1C                 2591 	.db #0x1C	; 28
   0059 03                 2592 	.db #0x03	; 3
   005A 1C                 2593 	.db #0x1C	; 28
   005B 03                 2594 	.db #0x03	; 3
   005C 1E                 2595 	.db #0x1E	; 30
   005D 01                 2596 	.db #0x01	; 1
   005E 1E                 2597 	.db #0x1E	; 30
   005F 01                 2598 	.db #0x01	; 1
   0060 1E                 2599 	.db #0x1E	; 30
   0061 01                 2600 	.db #0x01	; 1
   0062 00                 2601 	.db #0x00	; 0
   0063 0F                 2602 	.db #0x0F	; 15
   0064 00                 2603 	.db #0x00	; 0
   0065 0F                 2604 	.db #0x0F	; 15
   0066 0F                 2605 	.db #0x0F	; 15
   0067 00                 2606 	.db #0x00	; 0
   0068 00                 2607 	.db #0x00	; 0
   0069 1E                 2608 	.db #0x1E	; 30
   006A 00                 2609 	.db #0x00	; 0
   006B 1E                 2610 	.db #0x1E	; 30
   006C 00                 2611 	.db #0x00	; 0
   006D 3E                 2612 	.db #0x3E	; 62
   006E 00                 2613 	.db #0x00	; 0
   006F 3E                 2614 	.db #0x3E	; 62
   0070 00                 2615 	.db #0x00	; 0
   0071 3F                 2616 	.db #0x3F	; 63
   0072 00                 2617 	.db #0x00	; 0
   0073 F8                 2618 	.db #0xF8	; 248
   0074 00                 2619 	.db #0x00	; 0
   0075 F8                 2620 	.db #0xF8	; 248
   0076 00                 2621 	.db #0x00	; 0
   0077 FC                 2622 	.db #0xFC	; 252
   0078 00                 2623 	.db #0x00	; 0
   0079 FC                 2624 	.db #0xFC	; 252
   007A 02                 2625 	.db #0x02	; 2
   007B FC                 2626 	.db #0xFC	; 252
   007C 02                 2627 	.db #0x02	; 2
   007D FC                 2628 	.db #0xFC	; 252
   007E 02                 2629 	.db #0x02	; 2
   007F FC                 2630 	.db #0xFC	; 252
   0080 02                 2631 	.db #0x02	; 2
   0081 FC                 2632 	.db #0xFC	; 252
   0082 00                 2633 	.db #0x00	; 0
   0083 3C                 2634 	.db #0x3C	; 60
   0084 00                 2635 	.db #0x00	; 0
   0085 3C                 2636 	.db #0x3C	; 60
   0086 3C                 2637 	.db #0x3C	; 60
   0087 00                 2638 	.db #0x00	; 0
   0088 00                 2639 	.db #0x00	; 0
   0089 3C                 2640 	.db #0x3C	; 60
   008A 00                 2641 	.db #0x00	; 0
   008B 3C                 2642 	.db #0x3C	; 60
   008C 00                 2643 	.db #0x00	; 0
   008D 3C                 2644 	.db #0x3C	; 60
   008E 00                 2645 	.db #0x00	; 0
   008F 3E                 2646 	.db #0x3E	; 62
   0090 00                 2647 	.db #0x00	; 0
   0091 3F                 2648 	.db #0x3F	; 63
   0092                    2649 _solution_seq:
   0092 08                 2650 	.db #0x08	; 8
   0093 02                 2651 	.db #0x02	; 2
   0094 10                 2652 	.db #0x10	; 16
   0095 04                 2653 	.db #0x04	; 4
   0096 20                 2654 	.db #0x20	; 32
   0097 10                 2655 	.db #0x10	; 16
   0098 04                 2656 	.db #0x04	; 4
   0099 08                 2657 	.db #0x08	; 8
   009A 08                 2658 	.db #0x08	; 8
   009B 10                 2659 	.db #0x10	; 16
   009C 04                 2660 	.db #0x04	; 4
   009D 01                 2661 	.db #0x01	; 1
   009E 02                 2662 	.db #0x02	; 2
   009F 01                 2663 	.db #0x01	; 1
   00A0 20                 2664 	.db #0x20	; 32
   00A1 08                 2665 	.db #0x08	; 8
                           2666 ;main.c:268: void set_text_map(char *text, UINT8 len)
                           2667 ;	---------------------------------
                           2668 ; Function set_text_map
                           2669 ; ---------------------------------
   00A2                    2670 _set_text_map::
   00A2 E8 FB              2671 	add	sp, #-5
                           2672 ;main.c:277: memset(text_map, EMPTY_TILE_ADDR, text_map_width*text_map_height);
   00A4 11r08r04           2673 	ld	de,#_text_map
   00A7 21 20 00           2674 	ld	hl,#0x0020
   00AA E5                 2675 	push	hl
   00AB 2E 24              2676 	ld	l, #0x24
   00AD E5                 2677 	push	hl
   00AE D5                 2678 	push	de
   00AF CDr00r00           2679 	call	_memset
   00B2 E8 06              2680 	add	sp, #6
                           2681 ;main.c:280: if (!text || len > 0x20U || len <= 0x0U) {
   00B4 F8 08              2682 	ldhl	sp,#8
   00B6 3A                 2683 	ld	a,(hl-)
   00B7 B6                 2684 	or	a,(hl)
   00B8 CAr05r02           2685 	jp	Z,00141$
   00BB 23                 2686 	inc	hl
   00BC 23                 2687 	inc	hl
   00BD 46                 2688 	ld	b,(hl)
   00BE 0E 00              2689 	ld	c,#0x00
   00C0 3E 20              2690 	ld	a,#0x20
   00C2 B8                 2691 	cp	a, b
   00C3 3E 00              2692 	ld	a,#0x00
   00C5 99                 2693 	sbc	a, c
   00C6 DAr05r02           2694 	jp	C,00141$
   00C9 7E                 2695 	ld	a,(hl)
   00CA B7                 2696 	or	a, a
                           2697 ;main.c:281: return;
                           2698 ;main.c:287: for (i = 0; i < len; ++i) {
   00CB CAr05r02           2699 	jp	Z,00141$
   00CE F8 00              2700 	ldhl	sp,#0
   00D0 36 00              2701 	ld	(hl),#0x00
   00D2                    2702 00139$:
   00D2 F8 00              2703 	ldhl	sp,#0
   00D4 7E                 2704 	ld	a,(hl)
   00D5 F8 09              2705 	ldhl	sp,#9
   00D7 96                 2706 	sub	a, (hl)
   00D8 D2rF7r01           2707 	jp	NC,00137$
                           2708 ;main.c:289: if (text[i] >= 'A' && text[i] <= 'Z') {
   00DB 2B                 2709 	dec	hl
   00DC 2B                 2710 	dec	hl
   00DD 5E                 2711 	ld	e,(hl)
   00DE 23                 2712 	inc	hl
   00DF 56                 2713 	ld	d,(hl)
   00E0 F8 00              2714 	ldhl	sp,#0
   00E2 6E                 2715 	ld	l,(hl)
   00E3 26 00              2716 	ld	h,#0x00
   00E5 19                 2717 	add	hl,de
   00E6 7D                 2718 	ld	a,l
   00E7 54                 2719 	ld	d,h
   00E8 F8 03              2720 	ldhl	sp,#3
   00EA 22                 2721 	ld	(hl+),a
   00EB 72                 2722 	ld	(hl),d
   00EC 2B                 2723 	dec	hl
   00ED 5E                 2724 	ld	e,(hl)
   00EE 23                 2725 	inc	hl
   00EF 56                 2726 	ld	d,(hl)
   00F0 1A                 2727 	ld	a,(de)
   00F1 47                 2728 	ld	b,a
                           2729 ;main.c:290: text_map[i] = text[i] - 'A' + 0xAU; // eg. character A - ascii value of A + index of A in VRAM
   00F2 11r08r04           2730 	ld	de,#_text_map
   00F5 F8 00              2731 	ldhl	sp,#0
   00F7 6E                 2732 	ld	l,(hl)
   00F8 26 00              2733 	ld	h,#0x00
   00FA 19                 2734 	add	hl,de
   00FB 7D                 2735 	ld	a,l
   00FC 54                 2736 	ld	d,h
   00FD F8 01              2737 	ldhl	sp,#1
   00FF 22                 2738 	ld	(hl+),a
   0100 72                 2739 	ld	(hl),d
                           2740 ;main.c:289: if (text[i] >= 'A' && text[i] <= 'Z') {
   0101 3E 41              2741 	ld	a,#0x41
   0103 5F                 2742 	ld	e,a
   0104 78                 2743 	ld	a,b
   0105 57                 2744 	ld	d,a
   0106 78                 2745 	ld	a,b
   0107 EE 80              2746 	xor	a, #0x80
   0109 D6 C1              2747 	sub	a, #0xC1
   010B 38 24              2748 	jr	C,00106$
   010D 78                 2749 	ld	a,b
   010E 5F                 2750 	ld	e,a
   010F 3E 5A              2751 	ld	a,#0x5A
   0111 57                 2752 	ld	d,a
   0112 3E 5A              2753 	ld	a,#0x5A
   0114 90                 2754 	sub	a, b
   0115 CB 7B              2755 	bit	7, e
   0117 28 07              2756 	jr	Z,00212$
   0119 CB 7A              2757 	bit	7, d
   011B 20 08              2758 	jr	NZ,00213$
   011D BF                 2759 	cp	a, a
   011E 18 05              2760 	jr	00213$
   0120                    2761 00212$:
   0120 CB 7A              2762 	bit	7, d
   0122 28 01              2763 	jr	Z,00213$
   0124 37                 2764 	scf
   0125                    2765 00213$:
   0125 38 0A              2766 	jr	C,00106$
                           2767 ;main.c:290: text_map[i] = text[i] - 'A' + 0xAU; // eg. character A - ascii value of A + index of A in VRAM
   0127 78                 2768 	ld	a,b
   0128 C6 C9              2769 	add	a, #0xC9
   012A 47                 2770 	ld	b,a
   012B F8 01              2771 	ldhl	sp,#1
   012D 2A                 2772 	ld	a,(hl+)
   012E 66                 2773 	ld	h,(hl)
   012F 6F                 2774 	ld	l,a
   0130 70                 2775 	ld	(hl),b
   0131                    2776 00106$:
                           2777 ;main.c:294: if (text[i] >= '0' && text[i] <= '9') {
   0131 F8 04              2778 	ldhl	sp,#4
   0133 2B                 2779 	dec	hl
   0134 5E                 2780 	ld	e,(hl)
   0135 23                 2781 	inc	hl
   0136 56                 2782 	ld	d,(hl)
   0137 1A                 2783 	ld	a,(de)
   0138 47                 2784 	ld	b,a
   0139 3E 30              2785 	ld	a,#0x30
   013B 5F                 2786 	ld	e,a
   013C 78                 2787 	ld	a,b
   013D 57                 2788 	ld	d,a
   013E 78                 2789 	ld	a,b
   013F EE 80              2790 	xor	a, #0x80
   0141 D6 B0              2791 	sub	a, #0xB0
   0143 38 24              2792 	jr	C,00109$
   0145 78                 2793 	ld	a,b
   0146 5F                 2794 	ld	e,a
   0147 3E 39              2795 	ld	a,#0x39
   0149 57                 2796 	ld	d,a
   014A 3E 39              2797 	ld	a,#0x39
   014C 90                 2798 	sub	a, b
   014D CB 7B              2799 	bit	7, e
   014F 28 07              2800 	jr	Z,00214$
   0151 CB 7A              2801 	bit	7, d
   0153 20 08              2802 	jr	NZ,00215$
   0155 BF                 2803 	cp	a, a
   0156 18 05              2804 	jr	00215$
   0158                    2805 00214$:
   0158 CB 7A              2806 	bit	7, d
   015A 28 01              2807 	jr	Z,00215$
   015C 37                 2808 	scf
   015D                    2809 00215$:
   015D 38 0A              2810 	jr	C,00109$
                           2811 ;main.c:295: text_map[i] = text[i] - '0';
   015F 78                 2812 	ld	a,b
   0160 C6 D0              2813 	add	a,#0xD0
   0162 47                 2814 	ld	b,a
   0163 F8 01              2815 	ldhl	sp,#1
   0165 2A                 2816 	ld	a,(hl+)
   0166 66                 2817 	ld	h,(hl)
   0167 6F                 2818 	ld	l,a
   0168 70                 2819 	ld	(hl),b
   0169                    2820 00109$:
                           2821 ;main.c:299: if (text[i] == '~') {
   0169 F8 04              2822 	ldhl	sp,#4
   016B 2B                 2823 	dec	hl
   016C 5E                 2824 	ld	e,(hl)
   016D 23                 2825 	inc	hl
   016E 56                 2826 	ld	d,(hl)
   016F 1A                 2827 	ld	a,(de)
   0170 47                 2828 	ld	b,a
   0171 D6 7E              2829 	sub	a, #0x7E
   0173 20 0A              2830 	jr	NZ,00135$
                           2831 ;main.c:300: text_map[i] = 0x25U;
   0175 F8 01              2832 	ldhl	sp,#1
   0177 2A                 2833 	ld	a,(hl+)
   0178 66                 2834 	ld	h,(hl)
   0179 6F                 2835 	ld	l,a
   017A 36 25              2836 	ld	(hl),#0x25
   017C C3rF1r01           2837 	jp	00140$
   017F                    2838 00135$:
                           2839 ;main.c:301: } else if (text[i] == '_') {
   017F 78                 2840 	ld	a,b
   0180 D6 5F              2841 	sub	a, #0x5F
   0182 20 0A              2842 	jr	NZ,00132$
                           2843 ;main.c:302: text_map[i] = 0x26U;
   0184 F8 01              2844 	ldhl	sp,#1
   0186 2A                 2845 	ld	a,(hl+)
   0187 66                 2846 	ld	h,(hl)
   0188 6F                 2847 	ld	l,a
   0189 36 26              2848 	ld	(hl),#0x26
   018B C3rF1r01           2849 	jp	00140$
   018E                    2850 00132$:
                           2851 ;main.c:303: } else if (text[i] == '!') {
   018E 78                 2852 	ld	a,b
   018F D6 21              2853 	sub	a, #0x21
   0191 20 0A              2854 	jr	NZ,00129$
                           2855 ;main.c:304: text_map[i] = 0x27U;
   0193 F8 01              2856 	ldhl	sp,#1
   0195 2A                 2857 	ld	a,(hl+)
   0196 66                 2858 	ld	h,(hl)
   0197 6F                 2859 	ld	l,a
   0198 36 27              2860 	ld	(hl),#0x27
   019A C3rF1r01           2861 	jp	00140$
   019D                    2862 00129$:
                           2863 ;main.c:305: } else if (text[i] == '?') {
   019D 78                 2864 	ld	a,b
   019E D6 3F              2865 	sub	a, #0x3F
   01A0 20 0A              2866 	jr	NZ,00126$
                           2867 ;main.c:306: text_map[i] = 0x28U;
   01A2 F8 01              2868 	ldhl	sp,#1
   01A4 2A                 2869 	ld	a,(hl+)
   01A5 66                 2870 	ld	h,(hl)
   01A6 6F                 2871 	ld	l,a
   01A7 36 28              2872 	ld	(hl),#0x28
   01A9 C3rF1r01           2873 	jp	00140$
   01AC                    2874 00126$:
                           2875 ;main.c:307: } else if (text[i] == '\'') {
   01AC 78                 2876 	ld	a,b
   01AD D6 27              2877 	sub	a, #0x27
   01AF 20 0A              2878 	jr	NZ,00123$
                           2879 ;main.c:308: text_map[i] = 0x29U;
   01B1 F8 01              2880 	ldhl	sp,#1
   01B3 2A                 2881 	ld	a,(hl+)
   01B4 66                 2882 	ld	h,(hl)
   01B5 6F                 2883 	ld	l,a
   01B6 36 29              2884 	ld	(hl),#0x29
   01B8 C3rF1r01           2885 	jp	00140$
   01BB                    2886 00123$:
                           2887 ;main.c:309: } else if (text[i] == '.') {
   01BB 78                 2888 	ld	a,b
   01BC D6 2E              2889 	sub	a, #0x2E
   01BE 20 09              2890 	jr	NZ,00120$
                           2891 ;main.c:310: text_map[i] = 0x2AU;
   01C0 F8 01              2892 	ldhl	sp,#1
   01C2 2A                 2893 	ld	a,(hl+)
   01C3 66                 2894 	ld	h,(hl)
   01C4 6F                 2895 	ld	l,a
   01C5 36 2A              2896 	ld	(hl),#0x2A
   01C7 18 28              2897 	jr	00140$
   01C9                    2898 00120$:
                           2899 ;main.c:311: } else if (text[i] == ',') {
   01C9 78                 2900 	ld	a,b
   01CA D6 2C              2901 	sub	a, #0x2C
   01CC 20 09              2902 	jr	NZ,00117$
                           2903 ;main.c:312: text_map[i] = 0x2BU;
   01CE F8 01              2904 	ldhl	sp,#1
   01D0 2A                 2905 	ld	a,(hl+)
   01D1 66                 2906 	ld	h,(hl)
   01D2 6F                 2907 	ld	l,a
   01D3 36 2B              2908 	ld	(hl),#0x2B
   01D5 18 1A              2909 	jr	00140$
   01D7                    2910 00117$:
                           2911 ;main.c:313: } else if (text[i] == '') {
   01D7 78                 2912 	ld	a,b
   01D8 D6 E2              2913 	sub	a, #0xE2
   01DA 20 09              2914 	jr	NZ,00114$
                           2915 ;main.c:314: text_map[i] = 0x2CU;
   01DC F8 01              2916 	ldhl	sp,#1
   01DE 2A                 2917 	ld	a,(hl+)
   01DF 66                 2918 	ld	h,(hl)
   01E0 6F                 2919 	ld	l,a
   01E1 36 2C              2920 	ld	(hl),#0x2C
   01E3 18 0C              2921 	jr	00140$
   01E5                    2922 00114$:
                           2923 ;main.c:315: } else if (text[i] == ':') {
   01E5 78                 2924 	ld	a,b
   01E6 D6 3A              2925 	sub	a, #0x3A
   01E8 20 07              2926 	jr	NZ,00140$
                           2927 ;main.c:316: text_map[i] = 0x2DU;
   01EA F8 01              2928 	ldhl	sp,#1
   01EC 2A                 2929 	ld	a,(hl+)
   01ED 66                 2930 	ld	h,(hl)
   01EE 6F                 2931 	ld	l,a
   01EF 36 2D              2932 	ld	(hl),#0x2D
   01F1                    2933 00140$:
                           2934 ;main.c:287: for (i = 0; i < len; ++i) {
   01F1 F8 00              2935 	ldhl	sp,#0
   01F3 34                 2936 	inc	(hl)
   01F4 C3rD2r00           2937 	jp	00139$
   01F7                    2938 00137$:
                           2939 ;main.c:321: text_map[len] = arrow_address_1;
   01F7 11r08r04           2940 	ld	de,#_text_map
   01FA F8 09              2941 	ldhl	sp,#9
   01FC 6E                 2942 	ld	l,(hl)
   01FD 26 00              2943 	ld	h,#0x00
   01FF 19                 2944 	add	hl,de
   0200 4D                 2945 	ld	c,l
   0201 44                 2946 	ld	b,h
   0202 3E 2E              2947 	ld	a,#0x2E
   0204 02                 2948 	ld	(bc),a
   0205                    2949 00141$:
   0205 E8 05              2950 	add	sp, #5
   0207 C9                 2951 	ret
                           2952 ;main.c:326: void clear_window()
                           2953 ;	---------------------------------
                           2954 ; Function clear_window
                           2955 ; ---------------------------------
   0208                    2956 _clear_window::
                           2957 ;main.c:329: memset(text_map, EMPTY_TILE_ADDR, text_map_width * text_map_height);
   0208 11r08r04           2958 	ld	de,#_text_map
   020B 21 20 00           2959 	ld	hl,#0x0020
   020E E5                 2960 	push	hl
   020F 2E 24              2961 	ld	l, #0x24
   0211 E5                 2962 	push	hl
   0212 D5                 2963 	push	de
   0213 CDr00r00           2964 	call	_memset
   0216 E8 06              2965 	add	sp, #6
                           2966 ;main.c:330: set_win_tiles(0x2U, 0x2U, text_map_width, text_map_height, text_map);
   0218 11r08r04           2967 	ld	de,#_text_map
   021B D5                 2968 	push	de
   021C 21 10 02           2969 	ld	hl,#0x0210
   021F E5                 2970 	push	hl
   0220 2E 02              2971 	ld	l, #0x02
   0222 E5                 2972 	push	hl
   0223 CDr00r00           2973 	call	_set_win_tiles
   0226 E8 06              2974 	add	sp, #6
   0228 C9                 2975 	ret
                           2976 ;main.c:333: void show_text(char *text)
                           2977 ;	---------------------------------
                           2978 ; Function show_text
                           2979 ; ---------------------------------
   0229                    2980 _show_text::
   0229 E8 FD              2981 	add	sp, #-3
                           2982 ;main.c:336: UINT8 cursor_state = 0;
   022B F8 01              2983 	ldhl	sp,#1
   022D 36 00              2984 	ld	(hl),#0x00
                           2985 ;main.c:337: UINT8 text_len = strlen(text);
   022F F8 05              2986 	ldhl	sp,#5
   0231 2A                 2987 	ld	a,(hl+)
   0232 66                 2988 	ld	h,(hl)
   0233 6F                 2989 	ld	l,a
   0234 E5                 2990 	push	hl
   0235 CDr00r00           2991 	call	_strlen
   0238 E8 02              2992 	add	sp, #2
   023A 43                 2993 	ld	b,e
                           2994 ;main.c:338: UINT8 cursor_index = text_len;
   023B 48                 2995 	ld	c,b
                           2996 ;main.c:340: clear_window();
   023C C5                 2997 	push	bc
   023D CDr08r02           2998 	call	_clear_window
   0240 C1                 2999 	pop	bc
                           3000 ;main.c:341: set_text_map(text, text_len);
   0241 C5                 3001 	push	bc
   0242 C5                 3002 	push	bc
   0243 33                 3003 	inc	sp
   0244 F8 08              3004 	ldhl	sp,#8
   0246 2A                 3005 	ld	a,(hl+)
   0247 66                 3006 	ld	h,(hl)
   0248 6F                 3007 	ld	l,a
   0249 E5                 3008 	push	hl
   024A CDrA2r00           3009 	call	_set_text_map
   024D E8 03              3010 	add	sp, #3
   024F C1                 3011 	pop	bc
                           3012 ;main.c:344: text_len++;
   0250 04                 3013 	inc	b
                           3014 ;main.c:345: scroll_text(text_len);
   0251 C5                 3015 	push	bc
   0252 C5                 3016 	push	bc
   0253 33                 3017 	inc	sp
   0254 CDrD2r02           3018 	call	_scroll_text
   0257 33                 3019 	inc	sp
   0258 C1                 3020 	pop	bc
                           3021 ;main.c:349: x = 2 + (cursor_index % 16);
   0259 79                 3022 	ld	a,c
   025A E6 0F              3023 	and	a, #0x0F
   025C C6 02              3024 	add	a, #0x02
   025E F8 00              3025 	ldhl	sp,#0
   0260 77                 3026 	ld	(hl),a
                           3027 ;main.c:351: y = 2 + divide_UINT8(cursor_index, 16);
   0261 C5                 3028 	push	bc
   0262 3E 10              3029 	ld	a,#0x10
   0264 F5                 3030 	push	af
   0265 33                 3031 	inc	sp
   0266 79                 3032 	ld	a,c
   0267 F5                 3033 	push	af
   0268 33                 3034 	inc	sp
   0269 CDr00r00           3035 	call	_divide_UINT8
   026C E8 02              3036 	add	sp, #2
   026E 7B                 3037 	ld	a,e
   026F C1                 3038 	pop	bc
   0270 C6 02              3039 	add	a, #0x02
   0272 F8 02              3040 	ldhl	sp,#2
   0274 77                 3041 	ld	(hl),a
                           3042 ;main.c:353: while (!joypad()) {
   0275 3Er08              3043 	ld	a,#<(_text_map)
   0277 81                 3044 	add	a, c
   0278 4F                 3045 	ld	c,a
   0279 3Es04              3046 	ld	a,#>(_text_map)
   027B CE 00              3047 	adc	a, #0x00
   027D 47                 3048 	ld	b,a
   027E                    3049 00104$:
   027E C5                 3050 	push	bc
   027F CDr00r00           3051 	call	_joypad
   0282 7B                 3052 	ld	a,e
   0283 C1                 3053 	pop	bc
   0284 B7                 3054 	or	a, a
   0285 C2rCFr02           3055 	jp	NZ,00107$
                           3056 ;main.c:354: if (cursor_state == 0) {
   0288 F8 01              3057 	ldhl	sp,#1
   028A 7E                 3058 	ld	a,(hl)
   028B B7                 3059 	or	a, a
   028C 20 05              3060 	jr	NZ,00102$
                           3061 ;main.c:355: text_map[cursor_index] = arrow_address_2;
   028E 3E 2F              3062 	ld	a,#0x2F
   0290 02                 3063 	ld	(bc),a
   0291 18 03              3064 	jr	00103$
   0293                    3065 00102$:
                           3066 ;main.c:357: text_map[cursor_index] = arrow_address_1;
   0293 3E 2E              3067 	ld	a,#0x2E
   0295 02                 3068 	ld	(bc),a
   0296                    3069 00103$:
                           3070 ;main.c:360: set_win_tiles(x, y, 1, 1, &text_map[cursor_index]);
   0296 59                 3071 	ld	e, c
   0297 50                 3072 	ld	d, b
   0298 C5                 3073 	push	bc
   0299 D5                 3074 	push	de
   029A 21 01 01           3075 	ld	hl,#0x0101
   029D E5                 3076 	push	hl
   029E F8 08              3077 	ldhl	sp,#8
   02A0 7E                 3078 	ld	a,(hl)
   02A1 F5                 3079 	push	af
   02A2 33                 3080 	inc	sp
   02A3 2B                 3081 	dec	hl
   02A4 2B                 3082 	dec	hl
   02A5 7E                 3083 	ld	a,(hl)
   02A6 F5                 3084 	push	af
   02A7 33                 3085 	inc	sp
   02A8 CDr00r00           3086 	call	_set_win_tiles
   02AB E8 06              3087 	add	sp, #6
   02AD C1                 3088 	pop	bc
                           3089 ;main.c:361: cursor_state = !cursor_state;
   02AE F8 01              3090 	ldhl	sp,#1
   02B0 7E                 3091 	ld	a,(hl)
   02B1 D6 01              3092 	sub	a,#0x01
   02B3 3E 00              3093 	ld	a,#0x00
   02B5 17                 3094 	rla
   02B6 77                 3095 	ld	(hl),a
                           3096 ;main.c:362: delay(50);
   02B7 C5                 3097 	push	bc
   02B8 21 32 00           3098 	ld	hl,#0x0032
   02BB E5                 3099 	push	hl
   02BC CDr00r00           3100 	call	_delay
   02BF E8 02              3101 	add	sp, #2
   02C1 C1                 3102 	pop	bc
                           3103 ;main.c:363: sleep(4);
   02C2 C5                 3104 	push	bc
   02C3 3E 04              3105 	ld	a,#0x04
   02C5 F5                 3106 	push	af
   02C6 33                 3107 	inc	sp
   02C7 CDr2Br03           3108 	call	_sleep
   02CA 33                 3109 	inc	sp
   02CB C1                 3110 	pop	bc
   02CC C3r7Er02           3111 	jp	00104$
   02CF                    3112 00107$:
   02CF E8 03              3113 	add	sp, #3
   02D1 C9                 3114 	ret
                           3115 ;main.c:372: void scroll_text(UINT8 len)
                           3116 ;	---------------------------------
                           3117 ; Function scroll_text
                           3118 ; ---------------------------------
   02D2                    3119 _scroll_text::
   02D2 E8 FD              3120 	add	sp, #-3
                           3121 ;main.c:375: for (counter = 0; counter < len; ++counter) {
   02D4 06 00              3122 	ld	b,#0x00
   02D6                    3123 00103$:
   02D6 78                 3124 	ld	a,b
   02D7 F8 05              3125 	ldhl	sp,#5
   02D9 96                 3126 	sub	a, (hl)
   02DA D2r28r03           3127 	jp	NC,00105$
                           3128 ;main.c:376: x = 2 + (counter % 16);
   02DD 78                 3129 	ld	a,b
   02DE E6 0F              3130 	and	a, #0x0F
   02E0 C6 02              3131 	add	a, #0x02
   02E2 F8 00              3132 	ldhl	sp,#0
   02E4 77                 3133 	ld	(hl),a
                           3134 ;main.c:377: y = 2 + divide_UINT8(counter, 16);
   02E5 C5                 3135 	push	bc
   02E6 3E 10              3136 	ld	a,#0x10
   02E8 F5                 3137 	push	af
   02E9 33                 3138 	inc	sp
   02EA C5                 3139 	push	bc
   02EB 33                 3140 	inc	sp
   02EC CDr00r00           3141 	call	_divide_UINT8
   02EF E8 02              3142 	add	sp, #2
   02F1 C1                 3143 	pop	bc
   02F2 4B                 3144 	ld	c,e
   02F3 0C                 3145 	inc	c
   02F4 0C                 3146 	inc	c
                           3147 ;main.c:381: set_win_tiles(x, y, 1, 1, &text_map[counter]);
   02F5 11r08r04           3148 	ld	de,#_text_map
   02F8 68                 3149 	ld	l,b
   02F9 26 00              3150 	ld	h,#0x00
   02FB 19                 3151 	add	hl,de
   02FC 7D                 3152 	ld	a,l
   02FD 54                 3153 	ld	d,h
   02FE F8 01              3154 	ldhl	sp,#1
   0300 22                 3155 	ld	(hl+),a
   0301 72                 3156 	ld	(hl),d
   0302 2B                 3157 	dec	hl
   0303 5E                 3158 	ld	e,(hl)
   0304 23                 3159 	inc	hl
   0305 56                 3160 	ld	d,(hl)
   0306 C5                 3161 	push	bc
   0307 D5                 3162 	push	de
   0308 21 01 01           3163 	ld	hl,#0x0101
   030B E5                 3164 	push	hl
   030C 79                 3165 	ld	a,c
   030D F5                 3166 	push	af
   030E 33                 3167 	inc	sp
   030F F8 07              3168 	ldhl	sp,#7
   0311 7E                 3169 	ld	a,(hl)
   0312 F5                 3170 	push	af
   0313 33                 3171 	inc	sp
   0314 CDr00r00           3172 	call	_set_win_tiles
   0317 E8 06              3173 	add	sp, #6
   0319 C1                 3174 	pop	bc
                           3175 ;main.c:382: sleep(4);
   031A C5                 3176 	push	bc
   031B 3E 04              3177 	ld	a,#0x04
   031D F5                 3178 	push	af
   031E 33                 3179 	inc	sp
   031F CDr2Br03           3180 	call	_sleep
   0322 33                 3181 	inc	sp
   0323 C1                 3182 	pop	bc
                           3183 ;main.c:375: for (counter = 0; counter < len; ++counter) {
   0324 04                 3184 	inc	b
   0325 C3rD6r02           3185 	jp	00103$
   0328                    3186 00105$:
   0328 E8 03              3187 	add	sp, #3
   032A C9                 3188 	ret
                           3189 ;main.c:386: void sleep(UINT8 cycles)
                           3190 ;	---------------------------------
                           3191 ; Function sleep
                           3192 ; ---------------------------------
   032B                    3193 _sleep::
                           3194 ;main.c:389: for(counter = 0; counter < cycles; ++counter){
   032B 06 00              3195 	ld	b,#0x00
   032D                    3196 00103$:
   032D 78                 3197 	ld	a,b
   032E F8 02              3198 	ldhl	sp,#2
   0330 96                 3199 	sub	a, (hl)
   0331 D0                 3200 	ret	NC
                           3201 ;main.c:390: wait_vbl_done();
   0332 C5                 3202 	push	bc
   0333 CDr00r00           3203 	call	_wait_vbl_done
   0336 C1                 3204 	pop	bc
                           3205 ;main.c:389: for(counter = 0; counter < cycles; ++counter){
   0337 04                 3206 	inc	b
   0338 18 F3              3207 	jr	00103$
   033A C9                 3208 	ret
                           3209 ;main.c:394: void process_button_press()
                           3210 ;	---------------------------------
                           3211 ; Function process_button_press
                           3212 ; ---------------------------------
   033B                    3213 _process_button_press::
                           3214 ;main.c:396: UINT8 input = joypad();
   033B CDr00r00           3215 	call	_joypad
   033E 7B                 3216 	ld	a,e
                           3217 ;main.c:397: if (input) {
   033F B7                 3218 	or	a, a
   0340 C8                 3219 	ret	Z
                           3220 ;main.c:398: input_seq[input_seq_ctr] = joypad();
   0341 3Er28              3221 	ld	a,#<(_input_seq)
   0343 21r38r04           3222 	ld	hl,#_input_seq_ctr
   0346 86                 3223 	add	a, (hl)
   0347 4F                 3224 	ld	c,a
   0348 3Es04              3225 	ld	a,#>(_input_seq)
   034A CE 00              3226 	adc	a, #0x00
   034C 47                 3227 	ld	b,a
   034D C5                 3228 	push	bc
   034E CDr00r00           3229 	call	_joypad
   0351 7B                 3230 	ld	a,e
   0352 C1                 3231 	pop	bc
   0353 02                 3232 	ld	(bc),a
                           3233 ;main.c:400: input_seq_ctr++;
   0354 21r38r04           3234 	ld	hl,#_input_seq_ctr
   0357 34                 3235 	inc	(hl)
                           3236 ;main.c:404: delay(50);
   0358 21 32 00           3237 	ld	hl,#0x0032
   035B E5                 3238 	push	hl
   035C CDr00r00           3239 	call	_delay
   035F E8 02              3240 	add	sp, #2
   0361 C9                 3241 	ret
                           3242 ;main.c:408: void check_sequence()
                           3243 ;	---------------------------------
                           3244 ; Function check_sequence
                           3245 ; ---------------------------------
   0362                    3246 _check_sequence::
   0362 E8 FD              3247 	add	sp, #-3
                           3248 ;main.c:413: for (i = 0; i < SEQ_LEN; ++i) {
   0364 F8 00              3249 	ldhl	sp,#0
   0366 36 00              3250 	ld	(hl),#0x00
   0368 23                 3251 	inc	hl
   0369 36 00              3252 	ld	(hl),#0x00
   036B                    3253 00107$:
                           3254 ;main.c:415: key_b[0] = 0x72ae38ba;
   036B 21r59r04           3255 	ld	hl,#_key_b
   036E 36 BA              3256 	ld	(hl),#0xBA
   0370 23                 3257 	inc	hl
   0371 36 38              3258 	ld	(hl),#0x38
   0373 23                 3259 	inc	hl
   0374 36 AE              3260 	ld	(hl),#0xAE
   0376 23                 3261 	inc	hl
   0377 36 72              3262 	ld	(hl),#0x72
                           3263 ;main.c:416: if (input_seq[i] & solution_seq[i]) {
   0379 11r28r04           3264 	ld	de,#_input_seq
   037C F8 01              3265 	ldhl	sp,#1
   037E 6E                 3266 	ld	l,(hl)
   037F 26 00              3267 	ld	h,#0x00
   0381 19                 3268 	add	hl,de
   0382 4D                 3269 	ld	c,l
   0383 44                 3270 	ld	b,h
   0384 0A                 3271 	ld	a,(bc)
   0385 F8 02              3272 	ldhl	sp,#2
   0387 77                 3273 	ld	(hl),a
   0388 11r92r00           3274 	ld	de,#_solution_seq
   038B 2B                 3275 	dec	hl
   038C 6E                 3276 	ld	l,(hl)
   038D 26 00              3277 	ld	h,#0x00
   038F 19                 3278 	add	hl,de
   0390 4D                 3279 	ld	c,l
   0391 44                 3280 	ld	b,h
   0392 0A                 3281 	ld	a,(bc)
   0393 F8 02              3282 	ldhl	sp,#2
   0395 A6                 3283 	and	a,(hl)
   0396 28 11              3284 	jr	Z,00108$
                           3285 ;main.c:417: pass++;
   0398 2B                 3286 	dec	hl
   0399 2B                 3287 	dec	hl
   039A 34                 3288 	inc	(hl)
                           3289 ;main.c:419: key_b[1] = 0xa106f553;
   039B 21r5Dr04           3290 	ld	hl,#(_key_b + 0x0004)
   039E 36 53              3291 	ld	(hl),#0x53
   03A0 23                 3292 	inc	hl
   03A1 36 F5              3293 	ld	(hl),#0xF5
   03A3 23                 3294 	inc	hl
   03A4 36 06              3295 	ld	(hl),#0x06
   03A6 23                 3296 	inc	hl
   03A7 36 A1              3297 	ld	(hl),#0xA1
   03A9                    3298 00108$:
                           3299 ;main.c:413: for (i = 0; i < SEQ_LEN; ++i) {
   03A9 F8 01              3300 	ldhl	sp,#1
   03AB 34                 3301 	inc	(hl)
   03AC 46                 3302 	ld	b,(hl)
   03AD 0E 00              3303 	ld	c,#0x00
   03AF 78                 3304 	ld	a,b
   03B0 D6 10              3305 	sub	a, #0x10
   03B2 79                 3306 	ld	a,c
   03B3 DE 00              3307 	sbc	a, #0x00
   03B5 DAr6Br03           3308 	jp	C,00107$
                           3309 ;main.c:423: if (pass == SEQ_LEN) {
   03B8 2B                 3310 	dec	hl
   03B9 5E                 3311 	ld	e,(hl)
   03BA 16 00              3312 	ld	d,#0x00
   03BC 7B                 3313 	ld	a,e
   03BD D6 10              3314 	sub	a, #0x10
   03BF 20 17              3315 	jr	NZ,00105$
   03C1 7A                 3316 	ld	a,d
   03C2 B7                 3317 	or	a, a
   03C3 20 13              3318 	jr	NZ,00105$
                           3319 ;main.c:426: key_b[2] = 0x1ea97c53;
   03C5 21r61r04           3320 	ld	hl,#(_key_b + 0x0008)
   03C8 36 53              3321 	ld	(hl),#0x53
   03CA 23                 3322 	inc	hl
   03CB 36 7C              3323 	ld	(hl),#0x7C
   03CD 23                 3324 	inc	hl
   03CE 36 A9              3325 	ld	(hl),#0xA9
   03D0 23                 3326 	inc	hl
   03D1 36 1E              3327 	ld	(hl),#0x1E
                           3328 ;main.c:433: pass_level_1();
   03D3 CDrDEr03           3329 	call	_pass_level_1
   03D6 18 03              3330 	jr	00109$
   03D8                    3331 00105$:
                           3332 ;main.c:439: fail_level_1();
   03D8 CDrCEr04           3333 	call	_fail_level_1
   03DB                    3334 00109$:
   03DB E8 03              3335 	add	sp, #3
   03DD C9                 3336 	ret
                           3337 ;main.c:443: void pass_level_1()
                           3338 ;	---------------------------------
                           3339 ; Function pass_level_1
                           3340 ; ---------------------------------
   03DE                    3341 _pass_level_1::
   03DE E8 DF              3342 	add	sp, #-33
                           3343 ;main.c:448: key_b[3] = 0xcfa8e0b3;
   03E0 21r65r04           3344 	ld	hl,#(_key_b + 0x000c)
   03E3 36 B3              3345 	ld	(hl),#0xB3
   03E5 23                 3346 	inc	hl
   03E6 36 E0              3347 	ld	(hl),#0xE0
   03E8 23                 3348 	inc	hl
   03E9 36 A8              3349 	ld	(hl),#0xA8
   03EB 23                 3350 	inc	hl
   03EC 36 CF              3351 	ld	(hl),#0xCF
                           3352 ;main.c:451: decrypt((UINT32 *)flag_a, key_a);
   03EE 11r49r04           3353 	ld	de,#_key_a+0
   03F1 01r39r04           3354 	ld	bc,#_flag_a
   03F4 D5                 3355 	push	de
   03F5 C5                 3356 	push	bc
   03F6 CDr24r05           3357 	call	_decrypt
   03F9 E8 04              3358 	add	sp, #4
                           3359 ;main.c:452: decrypt((UINT32 *)flag_b, key_b);
   03FB 11r59r04           3360 	ld	de,#_key_b
   03FE 01r41r04           3361 	ld	bc,#_flag_b
   0401 D5                 3362 	push	de
   0402 C5                 3363 	push	bc
   0403 CDr24r05           3364 	call	_decrypt
   0406 E8 04              3365 	add	sp, #4
                           3366 ;main.c:455: remove_flag_padding();
   0408 CDrB3r08           3367 	call	_remove_flag_padding
                           3368 ;main.c:458: strcpy((char *)flag_string, "1ST FLAG IS     ");
   040B F8 00              3369 	ldhl	sp,#0
   040D 4D                 3370 	ld	c,l
   040E 44                 3371 	ld	b,h
   040F 59                 3372 	ld	e, c
   0410 50                 3373 	ld	d, b
   0411 C5                 3374 	push	bc
   0412 21rA6r04           3375 	ld	hl,#___str_0
   0415 E5                 3376 	push	hl
   0416 D5                 3377 	push	de
   0417 CDr00r00           3378 	call	_strcpy
   041A E8 04              3379 	add	sp, #4
   041C C1                 3380 	pop	bc
                           3381 ;main.c:459: memcpy(flag_string + 0x10U, flag_a, FLAG_LEN);
   041D 21 10 00           3382 	ld	hl,#0x0010
   0420 09                 3383 	add	hl,bc
   0421 7D                 3384 	ld	a,l
   0422 54                 3385 	ld	d,h
   0423 F8 1F              3386 	ldhl	sp,#31
   0425 22                 3387 	ld	(hl+),a
   0426 72                 3388 	ld	(hl),d
   0427 2B                 3389 	dec	hl
   0428 5E                 3390 	ld	e,(hl)
   0429 23                 3391 	inc	hl
   042A 56                 3392 	ld	d,(hl)
   042B C5                 3393 	push	bc
   042C 21 08 00           3394 	ld	hl,#0x0008
   042F E5                 3395 	push	hl
   0430 21r39r04           3396 	ld	hl,#_flag_a
   0433 E5                 3397 	push	hl
   0434 D5                 3398 	push	de
   0435 CDr00r00           3399 	call	_memcpy
   0438 E8 06              3400 	add	sp, #6
   043A C1                 3401 	pop	bc
                           3402 ;main.c:460: flag_string[0x18U] = '\0';
   043B 21 18 00           3403 	ld	hl,#0x0018
   043E 09                 3404 	add	hl,bc
   043F 7D                 3405 	ld	a,l
   0440 54                 3406 	ld	d,h
   0441 F8 1F              3407 	ldhl	sp,#31
   0443 22                 3408 	ld	(hl+),a
   0444 72                 3409 	ld	(hl),d
   0445 2B                 3410 	dec	hl
   0446 2A                 3411 	ld	a,(hl+)
   0447 66                 3412 	ld	h,(hl)
   0448 6F                 3413 	ld	l,a
   0449 36 00              3414 	ld	(hl),#0x00
                           3415 ;main.c:461: strcat((char *)flag_string, flag_b);
   044B 59                 3416 	ld	e, c
   044C 50                 3417 	ld	d, b
   044D C5                 3418 	push	bc
   044E 21r41r04           3419 	ld	hl,#_flag_b
   0451 E5                 3420 	push	hl
   0452 D5                 3421 	push	de
   0453 CDr00r00           3422 	call	_strcat
   0456 E8 04              3423 	add	sp, #4
   0458 C1                 3424 	pop	bc
                           3425 ;main.c:462: strcat((char *)flag_string, ".");
   0459 59                 3426 	ld	e, c
   045A 50                 3427 	ld	d, b
   045B C5                 3428 	push	bc
   045C 21rB7r04           3429 	ld	hl,#___str_1
   045F E5                 3430 	push	hl
   0460 D5                 3431 	push	de
   0461 CDr00r00           3432 	call	_strcat
   0464 E8 04              3433 	add	sp, #4
   0466 C1                 3434 	pop	bc
                           3435 ;main.c:464: SHOW_WIN;
   0467 11 40 FF           3436 	ld	de,#0xFF40
   046A 1A                 3437 	ld	a,(de)
   046B 57                 3438 	ld	d,a
   046C 1E 00              3439 	ld	e,#0x00
   046E 7A                 3440 	ld	a,d
   046F CB EF              3441 	set	5, a
   0471 57                 3442 	ld	d,a
   0472 11 40 FF           3443 	ld	de,#0xFF40
   0475 12                 3444 	ld	(de),a
                           3445 ;main.c:465: show_text("THAT WORKED.");
   0476 11rB9r04           3446 	ld	de,#___str_2+0
   0479 C5                 3447 	push	bc
   047A D5                 3448 	push	de
   047B CDr29r02           3449 	call	_show_text
   047E E8 02              3450 	add	sp, #2
   0480 C1                 3451 	pop	bc
                           3452 ;main.c:466: show_text("I\'M IN.");
   0481 11rC6r04           3453 	ld	de,#___str_3+0
   0484 C5                 3454 	push	bc
   0485 D5                 3455 	push	de
   0486 CDr29r02           3456 	call	_show_text
   0489 E8 02              3457 	add	sp, #2
   048B C1                 3458 	pop	bc
                           3459 ;main.c:467: show_text((char *)flag_string);
   048C C5                 3460 	push	bc
   048D CDr29r02           3461 	call	_show_text
   0490 E8 02              3462 	add	sp, #2
                           3463 ;main.c:468: HIDE_WIN;
   0492 11 40 FF           3464 	ld	de,#0xFF40
   0495 1A                 3465 	ld	a,(de)
   0496 47                 3466 	ld	b,a
   0497 16 00              3467 	ld	d,#0x00
   0499 CB A8              3468 	res	5, b
   049B 16 00              3469 	ld	d,#0x00
   049D 21 40 FF           3470 	ld	hl,#0xFF40
   04A0 70                 3471 	ld	(hl),b
                           3472 ;main.c:471: while (1) {}
   04A1                    3473 00102$:
   04A1 18 FE              3474 	jr	00102$
   04A3 E8 21              3475 	add	sp, #33
   04A5 C9                 3476 	ret
   04A6                    3477 ___str_0:
   04A6 31 53 54 20 46 4C  3478 	.ascii "1ST FLAG IS     "
        41 47 20 49 53 20
        20 20 20 20
   04B6 00                 3479 	.db 0x00
   04B7                    3480 ___str_1:
   04B7 2E                 3481 	.ascii "."
   04B8 00                 3482 	.db 0x00
   04B9                    3483 ___str_2:
   04B9 54 48 41 54 20 57  3484 	.ascii "THAT WORKED."
        4F 52 4B 45 44 2E
   04C5 00                 3485 	.db 0x00
   04C6                    3486 ___str_3:
   04C6 49 27 4D 20 49 4E  3487 	.ascii "I'M IN."
        2E
   04CD 00                 3488 	.db 0x00
                           3489 ;main.c:474: void fail_level_1()
                           3490 ;	---------------------------------
                           3491 ; Function fail_level_1
                           3492 ; ---------------------------------
   04CE                    3493 _fail_level_1::
                           3494 ;main.c:476: SHOW_WIN;
   04CE 11 40 FF           3495 	ld	de,#0xFF40
   04D1 1A                 3496 	ld	a,(de)
   04D2 5F                 3497 	ld	e,a
   04D3 16 00              3498 	ld	d,#0x00
   04D5 7B                 3499 	ld	a,e
   04D6 CB EF              3500 	set	5, a
   04D8 47                 3501 	ld	b,a
   04D9 21 40 FF           3502 	ld	hl,#0xFF40
   04DC 70                 3503 	ld	(hl),b
                           3504 ;main.c:477: show_text("NO GOOD.");
   04DD 11rFFr04           3505 	ld	de,#___str_4
   04E0 D5                 3506 	push	de
   04E1 CDr29r02           3507 	call	_show_text
   04E4 E8 02              3508 	add	sp, #2
                           3509 ;main.c:478: show_text("LET ME TRY SOME THING ELSE.");
   04E6 11r08r05           3510 	ld	de,#___str_5
   04E9 D5                 3511 	push	de
   04EA CDr29r02           3512 	call	_show_text
   04ED E8 02              3513 	add	sp, #2
                           3514 ;main.c:479: HIDE_WIN;
   04EF 11 40 FF           3515 	ld	de,#0xFF40
   04F2 1A                 3516 	ld	a,(de)
   04F3 47                 3517 	ld	b,a
   04F4 16 00              3518 	ld	d,#0x00
   04F6 CB A8              3519 	res	5, b
   04F8 16 00              3520 	ld	d,#0x00
   04FA 21 40 FF           3521 	ld	hl,#0xFF40
   04FD 70                 3522 	ld	(hl),b
   04FE C9                 3523 	ret
   04FF                    3524 ___str_4:
   04FF 4E 4F 20 47 4F 4F  3525 	.ascii "NO GOOD."
        44 2E
   0507 00                 3526 	.db 0x00
   0508                    3527 ___str_5:
   0508 4C 45 54 20 4D 45  3528 	.ascii "LET ME TRY SOME THING ELSE."
        20 54 52 59 20 53
        4F 4D 45 20 54 48
        49 4E 47 20 45 4C
        53 45 2E
   0523 00                 3529 	.db 0x00
                           3530 ;main.c:482: void decrypt(UINT32 *v, UINT32 *k)
                           3531 ;	---------------------------------
                           3532 ; Function decrypt
                           3533 ; ---------------------------------
   0524                    3534 _decrypt::
   0524 E8 D2              3535 	add	sp, #-46
                           3536 ;main.c:484: UINT32 v0=v[0], v1=v[1], sum=0xC6EF3720, i;  /* set up */
   0526 F8 30              3537 	ldhl	sp,#48
   0528 2A                 3538 	ld	a,(hl+)
   0529 5E                 3539 	ld	e, (hl)
   052A F8 2C              3540 	ldhl	sp,#44
   052C 22                 3541 	ld	(hl+),a
   052D 73                 3542 	ld	(hl),e
   052E 2B                 3543 	dec	hl
   052F 5E                 3544 	ld	e,(hl)
   0530 23                 3545 	inc	hl
   0531 56                 3546 	ld	d,(hl)
   0532 1A                 3547 	ld	a,(de)
   0533 F8 04              3548 	ldhl	sp,#4
   0535 22                 3549 	ld	(hl+),a
   0536 13                 3550 	inc	de
   0537 1A                 3551 	ld	a,(de)
   0538 22                 3552 	ld	(hl+),a
   0539 13                 3553 	inc	de
   053A 1A                 3554 	ld	a,(de)
   053B 22                 3555 	ld	(hl+),a
   053C 13                 3556 	inc	de
   053D 1A                 3557 	ld	a,(de)
   053E 77                 3558 	ld	(hl),a
   053F F8 2D              3559 	ldhl	sp,#45
   0541 2B                 3560 	dec	hl
   0542 5E                 3561 	ld	e,(hl)
   0543 23                 3562 	inc	hl
   0544 56                 3563 	ld	d,(hl)
   0545 21 04 00           3564 	ld	hl,#0x0004
   0548 19                 3565 	add	hl,de
   0549 7D                 3566 	ld	a,l
   054A 54                 3567 	ld	d,h
   054B F8 2A              3568 	ldhl	sp,#42
   054D 22                 3569 	ld	(hl+),a
   054E 72                 3570 	ld	(hl),d
   054F 2B                 3571 	dec	hl
   0550 5E                 3572 	ld	e,(hl)
   0551 23                 3573 	inc	hl
   0552 56                 3574 	ld	d,(hl)
   0553 1A                 3575 	ld	a,(de)
   0554 F8 18              3576 	ldhl	sp,#24
   0556 22                 3577 	ld	(hl+),a
   0557 13                 3578 	inc	de
   0558 1A                 3579 	ld	a,(de)
   0559 22                 3580 	ld	(hl+),a
   055A 13                 3581 	inc	de
   055B 1A                 3582 	ld	a,(de)
   055C 22                 3583 	ld	(hl+),a
   055D 13                 3584 	inc	de
   055E 1A                 3585 	ld	a,(de)
   055F 77                 3586 	ld	(hl),a
                           3587 ;main.c:486: UINT32 k0=k[0], k1=k[1], k2=k[2], k3=k[3];   /* cache key */
   0560 F8 33              3588 	ldhl	sp,#51
   0562 2B                 3589 	dec	hl
   0563 4E                 3590 	ld	c,(hl)
   0564 23                 3591 	inc	hl
   0565 46                 3592 	ld	b,(hl)
   0566 59                 3593 	ld	e, c
   0567 50                 3594 	ld	d, b
   0568 1A                 3595 	ld	a,(de)
   0569 F8 14              3596 	ldhl	sp,#20
   056B 22                 3597 	ld	(hl+),a
   056C 13                 3598 	inc	de
   056D 1A                 3599 	ld	a,(de)
   056E 22                 3600 	ld	(hl+),a
   056F 13                 3601 	inc	de
   0570 1A                 3602 	ld	a,(de)
   0571 22                 3603 	ld	(hl+),a
   0572 13                 3604 	inc	de
   0573 1A                 3605 	ld	a,(de)
   0574 77                 3606 	ld	(hl),a
   0575 21 04 00           3607 	ld	hl,#0x0004
   0578 09                 3608 	add	hl,bc
   0579 7D                 3609 	ld	a,l
   057A 54                 3610 	ld	d,h
   057B F8 28              3611 	ldhl	sp,#40
   057D 22                 3612 	ld	(hl+),a
   057E 72                 3613 	ld	(hl),d
   057F 2B                 3614 	dec	hl
   0580 5E                 3615 	ld	e,(hl)
   0581 23                 3616 	inc	hl
   0582 56                 3617 	ld	d,(hl)
   0583 1A                 3618 	ld	a,(de)
   0584 F8 10              3619 	ldhl	sp,#16
   0586 22                 3620 	ld	(hl+),a
   0587 13                 3621 	inc	de
   0588 1A                 3622 	ld	a,(de)
   0589 22                 3623 	ld	(hl+),a
   058A 13                 3624 	inc	de
   058B 1A                 3625 	ld	a,(de)
   058C 22                 3626 	ld	(hl+),a
   058D 13                 3627 	inc	de
   058E 1A                 3628 	ld	a,(de)
   058F 77                 3629 	ld	(hl),a
   0590 21 08 00           3630 	ld	hl,#0x0008
   0593 09                 3631 	add	hl,bc
   0594 7D                 3632 	ld	a,l
   0595 54                 3633 	ld	d,h
   0596 F8 28              3634 	ldhl	sp,#40
   0598 22                 3635 	ld	(hl+),a
   0599 72                 3636 	ld	(hl),d
   059A 2B                 3637 	dec	hl
   059B 5E                 3638 	ld	e,(hl)
   059C 23                 3639 	inc	hl
   059D 56                 3640 	ld	d,(hl)
   059E 1A                 3641 	ld	a,(de)
   059F F8 08              3642 	ldhl	sp,#8
   05A1 22                 3643 	ld	(hl+),a
   05A2 13                 3644 	inc	de
   05A3 1A                 3645 	ld	a,(de)
   05A4 22                 3646 	ld	(hl+),a
   05A5 13                 3647 	inc	de
   05A6 1A                 3648 	ld	a,(de)
   05A7 22                 3649 	ld	(hl+),a
   05A8 13                 3650 	inc	de
   05A9 1A                 3651 	ld	a,(de)
   05AA 77                 3652 	ld	(hl),a
   05AB 21 0C 00           3653 	ld	hl,#0x000C
   05AE 09                 3654 	add	hl,bc
   05AF 4D                 3655 	ld	c,l
   05B0 44                 3656 	ld	b,h
   05B1 59                 3657 	ld	e, c
   05B2 50                 3658 	ld	d, b
   05B3 1A                 3659 	ld	a,(de)
   05B4 F8 0C              3660 	ldhl	sp,#12
   05B6 22                 3661 	ld	(hl+),a
   05B7 13                 3662 	inc	de
   05B8 1A                 3663 	ld	a,(de)
   05B9 22                 3664 	ld	(hl+),a
   05BA 13                 3665 	inc	de
   05BB 1A                 3666 	ld	a,(de)
   05BC 22                 3667 	ld	(hl+),a
   05BD 13                 3668 	inc	de
   05BE 1A                 3669 	ld	a,(de)
   05BF 77                 3670 	ld	(hl),a
                           3671 ;main.c:487: for (i=0; i<32; i++) {                         /* basic cycle start */
   05C0 F8 00              3672 	ldhl	sp,#0
   05C2 36 20              3673 	ld	(hl),#0x20
   05C4 AF                 3674 	xor	a, a
   05C5 23                 3675 	inc	hl
   05C6 22                 3676 	ld	(hl+),a
   05C7 22                 3677 	ld	(hl+),a
   05C8 77                 3678 	ld	(hl),a
   05C9 F8 1C              3679 	ldhl	sp,#28
   05CB 36 20              3680 	ld	(hl),#0x20
   05CD 23                 3681 	inc	hl
   05CE 36 37              3682 	ld	(hl),#0x37
   05D0 23                 3683 	inc	hl
   05D1 36 EF              3684 	ld	(hl),#0xEF
   05D3 23                 3685 	inc	hl
   05D4 36 C6              3686 	ld	(hl),#0xC6
   05D6                    3687 00104$:
                           3688 ;main.c:488: v1 -= ((v0<<4) + k2) ^ (v0 + sum) ^ ((v0>>5) + k3);
   05D6 F5                 3689 	push	af
   05D7 F8 06              3690 	ldhl	sp,#6
   05D9 7E                 3691 	ld	a,(hl)
   05DA F8 26              3692 	ldhl	sp,#38
   05DC 77                 3693 	ld	(hl),a
   05DD F8 07              3694 	ldhl	sp,#7
   05DF 7E                 3695 	ld	a,(hl)
   05E0 F8 27              3696 	ldhl	sp,#39
   05E2 77                 3697 	ld	(hl),a
   05E3 F8 08              3698 	ldhl	sp,#8
   05E5 7E                 3699 	ld	a,(hl)
   05E6 F8 28              3700 	ldhl	sp,#40
   05E8 77                 3701 	ld	(hl),a
   05E9 F8 09              3702 	ldhl	sp,#9
   05EB 7E                 3703 	ld	a,(hl)
   05EC F8 29              3704 	ldhl	sp,#41
   05EE 77                 3705 	ld	(hl),a
   05EF F1                 3706 	pop	af
   05F0 3E 04              3707 	ld	a,#0x04
   05F2                    3708 00116$:
   05F2 F8 24              3709 	ldhl	sp,#36
   05F4 CB 26              3710 	sla	(hl)
   05F6 23                 3711 	inc	hl
   05F7 CB 16              3712 	rl	(hl)
   05F9 23                 3713 	inc	hl
   05FA CB 16              3714 	rl	(hl)
   05FC 23                 3715 	inc	hl
   05FD CB 16              3716 	rl	(hl)
   05FF 3D                 3717 	dec	a
   0600 20 F0              3718 	jr	NZ,00116$
   0602 2B                 3719 	dec	hl
   0603 2B                 3720 	dec	hl
   0604 2B                 3721 	dec	hl
   0605 5E                 3722 	ld	e,(hl)
   0606 23                 3723 	inc	hl
   0607 56                 3724 	ld	d,(hl)
   0608 7B                 3725 	ld	a,e
   0609 F8 08              3726 	ldhl	sp,#8
   060B 86                 3727 	add	a, (hl)
   060C 5F                 3728 	ld	e,a
   060D 7A                 3729 	ld	a,d
   060E 23                 3730 	inc	hl
   060F 8E                 3731 	adc	a, (hl)
   0610 F5                 3732 	push	af
   0611 F8 27              3733 	ldhl	sp,#39
   0613 32                 3734 	ld	(hl-),a
   0614 73                 3735 	ld	(hl),e
   0615 F8 29              3736 	ldhl	sp,#41
   0617 2B                 3737 	dec	hl
   0618 5E                 3738 	ld	e,(hl)
   0619 23                 3739 	inc	hl
   061A 56                 3740 	ld	d,(hl)
   061B F8 0C              3741 	ldhl	sp,#12
   061D F1                 3742 	pop	af
   061E 7B                 3743 	ld	a,e
   061F 8E                 3744 	adc	a, (hl)
   0620 5F                 3745 	ld	e,a
   0621 7A                 3746 	ld	a,d
   0622 23                 3747 	inc	hl
   0623 8E                 3748 	adc	a, (hl)
   0624 F8 27              3749 	ldhl	sp,#39
   0626 32                 3750 	ld	(hl-),a
   0627 73                 3751 	ld	(hl),e
   0628 F8 05              3752 	ldhl	sp,#5
   062A 2B                 3753 	dec	hl
   062B 5E                 3754 	ld	e,(hl)
   062C 23                 3755 	inc	hl
   062D 56                 3756 	ld	d,(hl)
   062E 7B                 3757 	ld	a,e
   062F F8 1C              3758 	ldhl	sp,#28
   0631 86                 3759 	add	a, (hl)
   0632 5F                 3760 	ld	e,a
   0633 7A                 3761 	ld	a,d
   0634 23                 3762 	inc	hl
   0635 8E                 3763 	adc	a, (hl)
   0636 F5                 3764 	push	af
   0637 F8 23              3765 	ldhl	sp,#35
   0639 32                 3766 	ld	(hl-),a
   063A 73                 3767 	ld	(hl),e
   063B F8 09              3768 	ldhl	sp,#9
   063D 2B                 3769 	dec	hl
   063E 5E                 3770 	ld	e,(hl)
   063F 23                 3771 	inc	hl
   0640 56                 3772 	ld	d,(hl)
   0641 F8 20              3773 	ldhl	sp,#32
   0643 F1                 3774 	pop	af
   0644 7B                 3775 	ld	a,e
   0645 8E                 3776 	adc	a, (hl)
   0646 5F                 3777 	ld	e,a
   0647 7A                 3778 	ld	a,d
   0648 23                 3779 	inc	hl
   0649 8E                 3780 	adc	a, (hl)
   064A F8 23              3781 	ldhl	sp,#35
   064C 32                 3782 	ld	(hl-),a
   064D 73                 3783 	ld	(hl),e
   064E 2B                 3784 	dec	hl
   064F 2B                 3785 	dec	hl
   0650 7E                 3786 	ld	a,(hl)
   0651 F8 24              3787 	ldhl	sp,#36
   0653 AE                 3788 	xor	a, (hl)
   0654 F8 20              3789 	ldhl	sp,#32
   0656 22                 3790 	ld	(hl+),a
   0657 7E                 3791 	ld	a,(hl)
   0658 F8 25              3792 	ldhl	sp,#37
   065A AE                 3793 	xor	a, (hl)
   065B F8 21              3794 	ldhl	sp,#33
   065D 22                 3795 	ld	(hl+),a
   065E 7E                 3796 	ld	a,(hl)
   065F F8 26              3797 	ldhl	sp,#38
   0661 AE                 3798 	xor	a, (hl)
   0662 F8 22              3799 	ldhl	sp,#34
   0664 22                 3800 	ld	(hl+),a
   0665 7E                 3801 	ld	a,(hl)
   0666 F8 27              3802 	ldhl	sp,#39
   0668 AE                 3803 	xor	a, (hl)
   0669 F8 23              3804 	ldhl	sp,#35
   066B 77                 3805 	ld	(hl),a
   066C F5                 3806 	push	af
   066D F8 06              3807 	ldhl	sp,#6
   066F 7E                 3808 	ld	a,(hl)
   0670 F8 26              3809 	ldhl	sp,#38
   0672 77                 3810 	ld	(hl),a
   0673 F8 07              3811 	ldhl	sp,#7
   0675 7E                 3812 	ld	a,(hl)
   0676 F8 27              3813 	ldhl	sp,#39
   0678 77                 3814 	ld	(hl),a
   0679 F8 08              3815 	ldhl	sp,#8
   067B 7E                 3816 	ld	a,(hl)
   067C F8 28              3817 	ldhl	sp,#40
   067E 77                 3818 	ld	(hl),a
   067F F8 09              3819 	ldhl	sp,#9
   0681 7E                 3820 	ld	a,(hl)
   0682 F8 29              3821 	ldhl	sp,#41
   0684 77                 3822 	ld	(hl),a
   0685 F1                 3823 	pop	af
   0686 3E 05              3824 	ld	a,#0x05
   0688                    3825 00118$:
   0688 F8 27              3826 	ldhl	sp,#39
   068A CB 3E              3827 	srl	(hl)
   068C 2B                 3828 	dec	hl
   068D CB 1E              3829 	rr	(hl)
   068F 2B                 3830 	dec	hl
   0690 CB 1E              3831 	rr	(hl)
   0692 2B                 3832 	dec	hl
   0693 CB 1E              3833 	rr	(hl)
   0695 3D                 3834 	dec	a
   0696 20 F0              3835 	jr	NZ,00118$
   0698 5E                 3836 	ld	e,(hl)
   0699 23                 3837 	inc	hl
   069A 56                 3838 	ld	d,(hl)
   069B 7B                 3839 	ld	a,e
   069C F8 0C              3840 	ldhl	sp,#12
   069E 86                 3841 	add	a, (hl)
   069F 5F                 3842 	ld	e,a
   06A0 7A                 3843 	ld	a,d
   06A1 23                 3844 	inc	hl
   06A2 8E                 3845 	adc	a, (hl)
   06A3 F5                 3846 	push	af
   06A4 F8 27              3847 	ldhl	sp,#39
   06A6 32                 3848 	ld	(hl-),a
   06A7 73                 3849 	ld	(hl),e
   06A8 F8 29              3850 	ldhl	sp,#41
   06AA 2B                 3851 	dec	hl
   06AB 5E                 3852 	ld	e,(hl)
   06AC 23                 3853 	inc	hl
   06AD 56                 3854 	ld	d,(hl)
   06AE F8 10              3855 	ldhl	sp,#16
   06B0 F1                 3856 	pop	af
   06B1 7B                 3857 	ld	a,e
   06B2 8E                 3858 	adc	a, (hl)
   06B3 5F                 3859 	ld	e,a
   06B4 7A                 3860 	ld	a,d
   06B5 23                 3861 	inc	hl
   06B6 8E                 3862 	adc	a, (hl)
   06B7 F8 27              3863 	ldhl	sp,#39
   06B9 32                 3864 	ld	(hl-),a
   06BA 73                 3865 	ld	(hl),e
   06BB F8 20              3866 	ldhl	sp,#32
   06BD 7E                 3867 	ld	a,(hl)
   06BE F8 24              3868 	ldhl	sp,#36
   06C0 AE                 3869 	xor	a, (hl)
   06C1 F8 20              3870 	ldhl	sp,#32
   06C3 22                 3871 	ld	(hl+),a
   06C4 7E                 3872 	ld	a,(hl)
   06C5 F8 25              3873 	ldhl	sp,#37
   06C7 AE                 3874 	xor	a, (hl)
   06C8 F8 21              3875 	ldhl	sp,#33
   06CA 22                 3876 	ld	(hl+),a
   06CB 7E                 3877 	ld	a,(hl)
   06CC F8 26              3878 	ldhl	sp,#38
   06CE AE                 3879 	xor	a, (hl)
   06CF F8 22              3880 	ldhl	sp,#34
   06D1 22                 3881 	ld	(hl+),a
   06D2 7E                 3882 	ld	a,(hl)
   06D3 F8 27              3883 	ldhl	sp,#39
   06D5 AE                 3884 	xor	a, (hl)
   06D6 F8 23              3885 	ldhl	sp,#35
   06D8 77                 3886 	ld	(hl),a
   06D9 F8 19              3887 	ldhl	sp,#25
   06DB 2B                 3888 	dec	hl
   06DC 5E                 3889 	ld	e,(hl)
   06DD 23                 3890 	inc	hl
   06DE 56                 3891 	ld	d,(hl)
   06DF 7B                 3892 	ld	a,e
   06E0 F8 20              3893 	ldhl	sp,#32
   06E2 96                 3894 	sub	a, (hl)
   06E3 5F                 3895 	ld	e,a
   06E4 7A                 3896 	ld	a,d
   06E5 23                 3897 	inc	hl
   06E6 9E                 3898 	sbc	a, (hl)
   06E7 F5                 3899 	push	af
   06E8 F8 1B              3900 	ldhl	sp,#27
   06EA 32                 3901 	ld	(hl-),a
   06EB 73                 3902 	ld	(hl),e
   06EC F8 1D              3903 	ldhl	sp,#29
   06EE 2B                 3904 	dec	hl
   06EF 5E                 3905 	ld	e,(hl)
   06F0 23                 3906 	inc	hl
   06F1 56                 3907 	ld	d,(hl)
   06F2 F8 24              3908 	ldhl	sp,#36
   06F4 F1                 3909 	pop	af
   06F5 7B                 3910 	ld	a,e
   06F6 9E                 3911 	sbc	a, (hl)
   06F7 5F                 3912 	ld	e,a
   06F8 7A                 3913 	ld	a,d
   06F9 23                 3914 	inc	hl
   06FA 9E                 3915 	sbc	a, (hl)
   06FB F8 1B              3916 	ldhl	sp,#27
   06FD 32                 3917 	ld	(hl-),a
   06FE 73                 3918 	ld	(hl),e
                           3919 ;main.c:489: v0 -= ((v1<<4) + k0) ^ (v1 + sum) ^ ((v1>>5) + k1);
   06FF F5                 3920 	push	af
   0700 2B                 3921 	dec	hl
   0701 2B                 3922 	dec	hl
   0702 7E                 3923 	ld	a,(hl)
   0703 F8 22              3924 	ldhl	sp,#34
   0705 77                 3925 	ld	(hl),a
   0706 F8 1B              3926 	ldhl	sp,#27
   0708 7E                 3927 	ld	a,(hl)
   0709 F8 23              3928 	ldhl	sp,#35
   070B 77                 3929 	ld	(hl),a
   070C F8 1C              3930 	ldhl	sp,#28
   070E 7E                 3931 	ld	a,(hl)
   070F F8 24              3932 	ldhl	sp,#36
   0711 77                 3933 	ld	(hl),a
   0712 F8 1D              3934 	ldhl	sp,#29
   0714 7E                 3935 	ld	a,(hl)
   0715 F8 25              3936 	ldhl	sp,#37
   0717 77                 3937 	ld	(hl),a
   0718 F1                 3938 	pop	af
   0719 3E 04              3939 	ld	a,#0x04
   071B                    3940 00120$:
   071B F8 20              3941 	ldhl	sp,#32
   071D CB 26              3942 	sla	(hl)
   071F 23                 3943 	inc	hl
   0720 CB 16              3944 	rl	(hl)
   0722 23                 3945 	inc	hl
   0723 CB 16              3946 	rl	(hl)
   0725 23                 3947 	inc	hl
   0726 CB 16              3948 	rl	(hl)
   0728 3D                 3949 	dec	a
   0729 20 F0              3950 	jr	NZ,00120$
   072B 2B                 3951 	dec	hl
   072C 2B                 3952 	dec	hl
   072D 2B                 3953 	dec	hl
   072E 5E                 3954 	ld	e,(hl)
   072F 23                 3955 	inc	hl
   0730 56                 3956 	ld	d,(hl)
   0731 7B                 3957 	ld	a,e
   0732 F8 14              3958 	ldhl	sp,#20
   0734 86                 3959 	add	a, (hl)
   0735 5F                 3960 	ld	e,a
   0736 7A                 3961 	ld	a,d
   0737 23                 3962 	inc	hl
   0738 8E                 3963 	adc	a, (hl)
   0739 F5                 3964 	push	af
   073A F8 23              3965 	ldhl	sp,#35
   073C 32                 3966 	ld	(hl-),a
   073D 73                 3967 	ld	(hl),e
   073E F8 25              3968 	ldhl	sp,#37
   0740 2B                 3969 	dec	hl
   0741 5E                 3970 	ld	e,(hl)
   0742 23                 3971 	inc	hl
   0743 56                 3972 	ld	d,(hl)
   0744 F8 18              3973 	ldhl	sp,#24
   0746 F1                 3974 	pop	af
   0747 7B                 3975 	ld	a,e
   0748 8E                 3976 	adc	a, (hl)
   0749 5F                 3977 	ld	e,a
   074A 7A                 3978 	ld	a,d
   074B 23                 3979 	inc	hl
   074C 8E                 3980 	adc	a, (hl)
   074D F8 23              3981 	ldhl	sp,#35
   074F 32                 3982 	ld	(hl-),a
   0750 73                 3983 	ld	(hl),e
   0751 F8 19              3984 	ldhl	sp,#25
   0753 2B                 3985 	dec	hl
   0754 5E                 3986 	ld	e,(hl)
   0755 23                 3987 	inc	hl
   0756 56                 3988 	ld	d,(hl)
   0757 7B                 3989 	ld	a,e
   0758 F8 1C              3990 	ldhl	sp,#28
   075A 86                 3991 	add	a, (hl)
   075B 5F                 3992 	ld	e,a
   075C 7A                 3993 	ld	a,d
   075D 23                 3994 	inc	hl
   075E 8E                 3995 	adc	a, (hl)
   075F F5                 3996 	push	af
   0760 F8 27              3997 	ldhl	sp,#39
   0762 32                 3998 	ld	(hl-),a
   0763 73                 3999 	ld	(hl),e
   0764 F8 1D              4000 	ldhl	sp,#29
   0766 2B                 4001 	dec	hl
   0767 5E                 4002 	ld	e,(hl)
   0768 23                 4003 	inc	hl
   0769 56                 4004 	ld	d,(hl)
   076A F8 20              4005 	ldhl	sp,#32
   076C F1                 4006 	pop	af
   076D 7B                 4007 	ld	a,e
   076E 8E                 4008 	adc	a, (hl)
   076F 5F                 4009 	ld	e,a
   0770 7A                 4010 	ld	a,d
   0771 23                 4011 	inc	hl
   0772 8E                 4012 	adc	a, (hl)
   0773 F8 27              4013 	ldhl	sp,#39
   0775 32                 4014 	ld	(hl-),a
   0776 73                 4015 	ld	(hl),e
   0777 F8 20              4016 	ldhl	sp,#32
   0779 7E                 4017 	ld	a,(hl)
   077A F8 24              4018 	ldhl	sp,#36
   077C AE                 4019 	xor	a, (hl)
   077D F8 20              4020 	ldhl	sp,#32
   077F 22                 4021 	ld	(hl+),a
   0780 7E                 4022 	ld	a,(hl)
   0781 F8 25              4023 	ldhl	sp,#37
   0783 AE                 4024 	xor	a, (hl)
   0784 F8 21              4025 	ldhl	sp,#33
   0786 22                 4026 	ld	(hl+),a
   0787 7E                 4027 	ld	a,(hl)
   0788 F8 26              4028 	ldhl	sp,#38
   078A AE                 4029 	xor	a, (hl)
   078B F8 22              4030 	ldhl	sp,#34
   078D 22                 4031 	ld	(hl+),a
   078E 7E                 4032 	ld	a,(hl)
   078F F8 27              4033 	ldhl	sp,#39
   0791 AE                 4034 	xor	a, (hl)
   0792 F8 23              4035 	ldhl	sp,#35
   0794 77                 4036 	ld	(hl),a
   0795 F5                 4037 	push	af
   0796 F8 1A              4038 	ldhl	sp,#26
   0798 7E                 4039 	ld	a,(hl)
   0799 F8 26              4040 	ldhl	sp,#38
   079B 77                 4041 	ld	(hl),a
   079C F8 1B              4042 	ldhl	sp,#27
   079E 7E                 4043 	ld	a,(hl)
   079F F8 27              4044 	ldhl	sp,#39
   07A1 77                 4045 	ld	(hl),a
   07A2 F8 1C              4046 	ldhl	sp,#28
   07A4 7E                 4047 	ld	a,(hl)
   07A5 F8 28              4048 	ldhl	sp,#40
   07A7 77                 4049 	ld	(hl),a
   07A8 F8 1D              4050 	ldhl	sp,#29
   07AA 7E                 4051 	ld	a,(hl)
   07AB F8 29              4052 	ldhl	sp,#41
   07AD 77                 4053 	ld	(hl),a
   07AE F1                 4054 	pop	af
   07AF 3E 05              4055 	ld	a,#0x05
   07B1                    4056 00122$:
   07B1 F8 27              4057 	ldhl	sp,#39
   07B3 CB 3E              4058 	srl	(hl)
   07B5 2B                 4059 	dec	hl
   07B6 CB 1E              4060 	rr	(hl)
   07B8 2B                 4061 	dec	hl
   07B9 CB 1E              4062 	rr	(hl)
   07BB 2B                 4063 	dec	hl
   07BC CB 1E              4064 	rr	(hl)
   07BE 3D                 4065 	dec	a
   07BF 20 F0              4066 	jr	NZ,00122$
   07C1 5E                 4067 	ld	e,(hl)
   07C2 23                 4068 	inc	hl
   07C3 56                 4069 	ld	d,(hl)
   07C4 7B                 4070 	ld	a,e
   07C5 F8 10              4071 	ldhl	sp,#16
   07C7 86                 4072 	add	a, (hl)
   07C8 5F                 4073 	ld	e,a
   07C9 7A                 4074 	ld	a,d
   07CA 23                 4075 	inc	hl
   07CB 8E                 4076 	adc	a, (hl)
   07CC F5                 4077 	push	af
   07CD F8 27              4078 	ldhl	sp,#39
   07CF 32                 4079 	ld	(hl-),a
   07D0 73                 4080 	ld	(hl),e
   07D1 F8 29              4081 	ldhl	sp,#41
   07D3 2B                 4082 	dec	hl
   07D4 5E                 4083 	ld	e,(hl)
   07D5 23                 4084 	inc	hl
   07D6 56                 4085 	ld	d,(hl)
   07D7 F8 14              4086 	ldhl	sp,#20
   07D9 F1                 4087 	pop	af
   07DA 7B                 4088 	ld	a,e
   07DB 8E                 4089 	adc	a, (hl)
   07DC 5F                 4090 	ld	e,a
   07DD 7A                 4091 	ld	a,d
   07DE 23                 4092 	inc	hl
   07DF 8E                 4093 	adc	a, (hl)
   07E0 F8 27              4094 	ldhl	sp,#39
   07E2 32                 4095 	ld	(hl-),a
   07E3 73                 4096 	ld	(hl),e
   07E4 F8 20              4097 	ldhl	sp,#32
   07E6 7E                 4098 	ld	a,(hl)
   07E7 F8 24              4099 	ldhl	sp,#36
   07E9 AE                 4100 	xor	a, (hl)
   07EA F8 20              4101 	ldhl	sp,#32
   07EC 22                 4102 	ld	(hl+),a
   07ED 7E                 4103 	ld	a,(hl)
   07EE F8 25              4104 	ldhl	sp,#37
   07F0 AE                 4105 	xor	a, (hl)
   07F1 F8 21              4106 	ldhl	sp,#33
   07F3 22                 4107 	ld	(hl+),a
   07F4 7E                 4108 	ld	a,(hl)
   07F5 F8 26              4109 	ldhl	sp,#38
   07F7 AE                 4110 	xor	a, (hl)
   07F8 F8 22              4111 	ldhl	sp,#34
   07FA 22                 4112 	ld	(hl+),a
   07FB 7E                 4113 	ld	a,(hl)
   07FC F8 27              4114 	ldhl	sp,#39
   07FE AE                 4115 	xor	a, (hl)
   07FF F8 23              4116 	ldhl	sp,#35
   0801 77                 4117 	ld	(hl),a
   0802 F8 05              4118 	ldhl	sp,#5
   0804 2B                 4119 	dec	hl
   0805 5E                 4120 	ld	e,(hl)
   0806 23                 4121 	inc	hl
   0807 56                 4122 	ld	d,(hl)
   0808 7B                 4123 	ld	a,e
   0809 F8 20              4124 	ldhl	sp,#32
   080B 96                 4125 	sub	a, (hl)
   080C 5F                 4126 	ld	e,a
   080D 7A                 4127 	ld	a,d
   080E 23                 4128 	inc	hl
   080F 9E                 4129 	sbc	a, (hl)
   0810 F5                 4130 	push	af
   0811 F8 07              4131 	ldhl	sp,#7
   0813 32                 4132 	ld	(hl-),a
   0814 73                 4133 	ld	(hl),e
   0815 F8 09              4134 	ldhl	sp,#9
   0817 2B                 4135 	dec	hl
   0818 5E                 4136 	ld	e,(hl)
   0819 23                 4137 	inc	hl
   081A 56                 4138 	ld	d,(hl)
   081B F8 24              4139 	ldhl	sp,#36
   081D F1                 4140 	pop	af
   081E 7B                 4141 	ld	a,e
   081F 9E                 4142 	sbc	a, (hl)
   0820 5F                 4143 	ld	e,a
   0821 7A                 4144 	ld	a,d
   0822 23                 4145 	inc	hl
   0823 9E                 4146 	sbc	a, (hl)
   0824 F8 07              4147 	ldhl	sp,#7
   0826 32                 4148 	ld	(hl-),a
   0827 73                 4149 	ld	(hl),e
                           4150 ;main.c:490: sum -= delta;
   0828 F8 1D              4151 	ldhl	sp,#29
   082A 2B                 4152 	dec	hl
   082B 5E                 4153 	ld	e,(hl)
   082C 23                 4154 	inc	hl
   082D 56                 4155 	ld	d,(hl)
   082E 7B                 4156 	ld	a,e
   082F D6 B9              4157 	sub	a, #0xB9
   0831 5F                 4158 	ld	e,a
   0832 7A                 4159 	ld	a,d
   0833 DE 79              4160 	sbc	a, #0x79
   0835 F5                 4161 	push	af
   0836 32                 4162 	ld	(hl-),a
   0837 73                 4163 	ld	(hl),e
   0838 F8 21              4164 	ldhl	sp,#33
   083A 2B                 4165 	dec	hl
   083B 5E                 4166 	ld	e,(hl)
   083C 23                 4167 	inc	hl
   083D 56                 4168 	ld	d,(hl)
   083E F1                 4169 	pop	af
   083F 7B                 4170 	ld	a,e
   0840 DE 37              4171 	sbc	a, #0x37
   0842 5F                 4172 	ld	e,a
   0843 7A                 4173 	ld	a,d
   0844 DE 9E              4174 	sbc	a, #0x9E
   0846 32                 4175 	ld	(hl-),a
   0847 73                 4176 	ld	(hl),e
   0848 D1                 4177 	pop	de
   0849 D5                 4178 	push	de
   084A 7B                 4179 	ld	a,e
   084B D6 01              4180 	sub	a, #0x01
   084D 5F                 4181 	ld	e,a
   084E 7A                 4182 	ld	a,d
   084F DE 00              4183 	sbc	a, #0x00
   0851 F5                 4184 	push	af
   0852 F8 23              4185 	ldhl	sp,#35
   0854 32                 4186 	ld	(hl-),a
   0855 73                 4187 	ld	(hl),e
   0856 F8 05              4188 	ldhl	sp,#5
   0858 2B                 4189 	dec	hl
   0859 5E                 4190 	ld	e,(hl)
   085A 23                 4191 	inc	hl
   085B 56                 4192 	ld	d,(hl)
   085C F1                 4193 	pop	af
   085D 7B                 4194 	ld	a,e
   085E DE 00              4195 	sbc	a, #0x00
   0860 5F                 4196 	ld	e,a
   0861 7A                 4197 	ld	a,d
   0862 DE 00              4198 	sbc	a, #0x00
   0864 F8 23              4199 	ldhl	sp,#35
   0866 32                 4200 	ld	(hl-),a
   0867 73                 4201 	ld	(hl),e
   0868 2B                 4202 	dec	hl
   0869 2B                 4203 	dec	hl
   086A 54                 4204 	ld	d,h
   086B 5D                 4205 	ld	e,l
   086C F8 00              4206 	ldhl	sp,#0
   086E 1A                 4207 	ld	a,(de)
   086F 22                 4208 	ld	(hl+),a
   0870 13                 4209 	inc	de
   0871 1A                 4210 	ld	a,(de)
   0872 22                 4211 	ld	(hl+),a
   0873 13                 4212 	inc	de
   0874 1A                 4213 	ld	a,(de)
   0875 22                 4214 	ld	(hl+),a
   0876 13                 4215 	inc	de
   0877 1A                 4216 	ld	a,(de)
   0878 77                 4217 	ld	(hl),a
                           4218 ;main.c:487: for (i=0; i<32; i++) {                         /* basic cycle start */
   0879 F8 23              4219 	ldhl	sp,#35
   087B 3A                 4220 	ld	a,(hl-)
   087C B6                 4221 	or	a, (hl)
   087D 2B                 4222 	dec	hl
   087E B6                 4223 	or	a, (hl)
   087F 2B                 4224 	dec	hl
   0880 B6                 4225 	or	a,(hl)
   0881 C2rD6r05           4226 	jp	NZ,00104$
                           4227 ;main.c:492: v[0]=v0; v[1]=v1;
   0884 F8 2D              4228 	ldhl	sp,#45
   0886 2B                 4229 	dec	hl
   0887 5E                 4230 	ld	e,(hl)
   0888 23                 4231 	inc	hl
   0889 56                 4232 	ld	d,(hl)
   088A F8 04              4233 	ldhl	sp,#4
   088C 7E                 4234 	ld	a,(hl)
   088D 12                 4235 	ld	(de),a
   088E 13                 4236 	inc	de
   088F 23                 4237 	inc	hl
   0890 7E                 4238 	ld	a,(hl)
   0891 12                 4239 	ld	(de),a
   0892 13                 4240 	inc	de
   0893 23                 4241 	inc	hl
   0894 7E                 4242 	ld	a,(hl)
   0895 12                 4243 	ld	(de),a
   0896 13                 4244 	inc	de
   0897 23                 4245 	inc	hl
   0898 7E                 4246 	ld	a,(hl)
   0899 12                 4247 	ld	(de),a
   089A F8 2B              4248 	ldhl	sp,#43
   089C 2B                 4249 	dec	hl
   089D 5E                 4250 	ld	e,(hl)
   089E 23                 4251 	inc	hl
   089F 56                 4252 	ld	d,(hl)
   08A0 F8 18              4253 	ldhl	sp,#24
   08A2 7E                 4254 	ld	a,(hl)
   08A3 12                 4255 	ld	(de),a
   08A4 13                 4256 	inc	de
   08A5 23                 4257 	inc	hl
   08A6 7E                 4258 	ld	a,(hl)
   08A7 12                 4259 	ld	(de),a
   08A8 13                 4260 	inc	de
   08A9 23                 4261 	inc	hl
   08AA 7E                 4262 	ld	a,(hl)
   08AB 12                 4263 	ld	(de),a
   08AC 13                 4264 	inc	de
   08AD 23                 4265 	inc	hl
   08AE 7E                 4266 	ld	a,(hl)
   08AF 12                 4267 	ld	(de),a
   08B0 E8 2E              4268 	add	sp, #46
   08B2 C9                 4269 	ret
                           4270 ;main.c:496: void remove_flag_padding()
                           4271 ;	---------------------------------
                           4272 ; Function remove_flag_padding
                           4273 ; ---------------------------------
   08B3                    4274 _remove_flag_padding::
   08B3 E8 FD              4275 	add	sp, #-3
                           4276 ;main.c:500: UINT8 flab_b_len = flag_b[FLAG_LEN - 1];
   08B5 01r48r04           4277 	ld	bc,#_flag_b + 7
   08B8 0A                 4278 	ld	a,(bc)
   08B9 F8 00              4279 	ldhl	sp,#0
   08BB 77                 4280 	ld	(hl),a
                           4281 ;main.c:501: memset(flag_b + flab_b_len, '\0', FLAG_LEN - flab_b_len);
   08BC 4E                 4282 	ld	c,(hl)
   08BD 06 00              4283 	ld	b,#0x00
   08BF 11 08 00           4284 	ld	de,#0x0008
   08C2 7B                 4285 	ld	a,e
   08C3 91                 4286 	sub	a,c
   08C4 5F                 4287 	ld	e,a
   08C5 7A                 4288 	ld	a,d
   08C6 98                 4289 	sbc	a,b
   08C7 23                 4290 	inc	hl
   08C8 23                 4291 	inc	hl
   08C9 32                 4292 	ld	(hl-),a
   08CA 73                 4293 	ld	(hl),e
   08CB 11r41r04           4294 	ld	de,#_flag_b
   08CE 2B                 4295 	dec	hl
   08CF 6E                 4296 	ld	l,(hl)
   08D0 26 00              4297 	ld	h,#0x00
   08D2 19                 4298 	add	hl,de
   08D3 4D                 4299 	ld	c,l
   08D4 44                 4300 	ld	b,h
   08D5 F8 01              4301 	ldhl	sp,#1
   08D7 2A                 4302 	ld	a,(hl+)
   08D8 66                 4303 	ld	h,(hl)
   08D9 6F                 4304 	ld	l,a
   08DA E5                 4305 	push	hl
   08DB 21 00 00           4306 	ld	hl,#0x0000
   08DE E5                 4307 	push	hl
   08DF C5                 4308 	push	bc
   08E0 CDr00r00           4309 	call	_memset
   08E3 E8 06              4310 	add	sp, #6
   08E5 E8 03              4311 	add	sp, #3
   08E7 C9                 4312 	ret
                           4313 ;main.c:504: void main()
                           4314 ;	---------------------------------
                           4315 ; Function main
                           4316 ; ---------------------------------
   08E8                    4317 _main::
                           4318 ;main.c:507: key_a[0] = 0xc2bb5c5b;
   08E8 21r49r04           4319 	ld	hl,#_key_a
   08EB 36 5B              4320 	ld	(hl),#0x5B
   08ED 23                 4321 	inc	hl
   08EE 36 5C              4322 	ld	(hl),#0x5C
   08F0 23                 4323 	inc	hl
   08F1 36 BB              4324 	ld	(hl),#0xBB
   08F3 23                 4325 	inc	hl
   08F4 36 C2              4326 	ld	(hl),#0xC2
                           4327 ;main.c:509: disable_interrupts();
   08F6 CDr00r00           4328 	call	_disable_interrupts
                           4329 ;main.c:510: DISPLAY_OFF;
   08F9 CDr00r00           4330 	call	_display_off
                           4331 ;main.c:513: set_win_data(0x80U, window_border_len, window_border);
   08FC 11r00r00           4332 	ld	de,#_window_border
   08FF D5                 4333 	push	de
   0900 21 80 09           4334 	ld	hl,#0x0980
   0903 E5                 4335 	push	hl
   0904 CDr00r00           4336 	call	_set_win_data
   0907 E8 04              4337 	add	sp, #4
                           4338 ;main.c:514: set_win_tiles(0, 0, text_box_width, text_box_height, text_box);
   0909 11r90r00           4339 	ld	de,#_text_box
   090C D5                 4340 	push	de
   090D 21 14 06           4341 	ld	hl,#0x0614
   0910 E5                 4342 	push	hl
   0911 21 00 00           4343 	ld	hl,#0x0000
   0914 E5                 4344 	push	hl
   0915 CDr00r00           4345 	call	_set_win_tiles
   0918 E8 06              4346 	add	sp, #6
                           4347 ;main.c:515: move_win(0x7U,96);
   091A 21 07 60           4348 	ld	hl,#0x6007
   091D E5                 4349 	push	hl
   091E CDr00r00           4350 	call	_move_win
   0921 E8 02              4351 	add	sp, #2
                           4352 ;main.c:518: set_win_data(0U, alphabet_len, alphabet);
   0923 11r08r01           4353 	ld	de,#_alphabet
   0926 D5                 4354 	push	de
   0927 21 00 2E           4355 	ld	hl,#0x2E00
   092A E5                 4356 	push	hl
   092B CDr00r00           4357 	call	_set_win_data
   092E E8 04              4358 	add	sp, #4
                           4359 ;main.c:519: set_win_tiles(2U, 2U, text_map_width, text_map_height, text_map);
   0930 11r08r04           4360 	ld	de,#_text_map
   0933 D5                 4361 	push	de
   0934 21 10 02           4362 	ld	hl,#0x0210
   0937 E5                 4363 	push	hl
   0938 2E 02              4364 	ld	l, #0x02
   093A E5                 4365 	push	hl
   093B CDr00r00           4366 	call	_set_win_tiles
   093E E8 06              4367 	add	sp, #6
                           4368 ;main.c:522: key_a[1] = 0x93373628;
   0940 21r4Dr04           4369 	ld	hl,#(_key_a + 0x0004)
   0943 36 28              4370 	ld	(hl),#0x28
   0945 23                 4371 	inc	hl
   0946 36 36              4372 	ld	(hl),#0x36
   0948 23                 4373 	inc	hl
   0949 36 37              4374 	ld	(hl),#0x37
   094B 23                 4375 	inc	hl
   094C 36 93              4376 	ld	(hl),#0x93
                           4377 ;main.c:525: set_win_data(arrow_address_1, arrow_tile_len, arrow_tile);
   094E 11rE8r03           4378 	ld	de,#_arrow_tile
   0951 D5                 4379 	push	de
   0952 21 2E 02           4380 	ld	hl,#0x022E
   0955 E5                 4381 	push	hl
   0956 CDr00r00           4382 	call	_set_win_data
   0959 E8 04              4383 	add	sp, #4
                           4384 ;main.c:528: SPRITES_8x16;
   095B 11 40 FF           4385 	ld	de,#0xFF40
   095E 1A                 4386 	ld	a,(de)
   095F 5F                 4387 	ld	e,a
   0960 16 00              4388 	ld	d,#0x00
   0962 7B                 4389 	ld	a,e
   0963 CB D7              4390 	set	2, a
   0965 47                 4391 	ld	b,a
   0966 21 40 FF           4392 	ld	hl,#0xFF40
   0969 70                 4393 	ld	(hl),b
                           4394 ;main.c:529: set_sprite_data(0, agent_len, agent);
   096A 11r12r00           4395 	ld	de,#_agent
   096D D5                 4396 	push	de
   096E 21 00 08           4397 	ld	hl,#0x0800
   0971 E5                 4398 	push	hl
   0972 CDr00r00           4399 	call	_set_sprite_data
   0975 E8 04              4400 	add	sp, #4
                           4401 ;main.c:530: set_sprite_tile(0, 0);
   0977 21 00 00           4402 	ld	hl,#0x0000
   097A E5                 4403 	push	hl
   097B CDr00r00           4404 	call	_set_sprite_tile
   097E E8 02              4405 	add	sp, #2
                           4406 ;main.c:531: set_sprite_tile(1, 2);
   0980 21 01 02           4407 	ld	hl,#0x0201
   0983 E5                 4408 	push	hl
   0984 CDr00r00           4409 	call	_set_sprite_tile
   0987 E8 02              4410 	add	sp, #2
                           4411 ;main.c:532: set_sprite_tile(2, 4);
   0989 21 02 04           4412 	ld	hl,#0x0402
   098C E5                 4413 	push	hl
   098D CDr00r00           4414 	call	_set_sprite_tile
   0990 E8 02              4415 	add	sp, #2
                           4416 ;main.c:533: set_sprite_tile(3, 6);
   0992 21 03 06           4417 	ld	hl,#0x0603
   0995 E5                 4418 	push	hl
   0996 CDr00r00           4419 	call	_set_sprite_tile
   0999 E8 02              4420 	add	sp, #2
                           4421 ;main.c:534: move_sprite(0, 0x10U, 0x10U);
   099B 21 10 10           4422 	ld	hl,#0x1010
   099E E5                 4423 	push	hl
   099F AF                 4424 	xor	a, a
   09A0 F5                 4425 	push	af
   09A1 33                 4426 	inc	sp
   09A2 CDr00r00           4427 	call	_move_sprite
   09A5 E8 03              4428 	add	sp, #3
                           4429 ;main.c:535: move_sprite(1, 0x18U, 0x10U);
   09A7 21 18 10           4430 	ld	hl,#0x1018
   09AA E5                 4431 	push	hl
   09AB 3E 01              4432 	ld	a,#0x01
   09AD F5                 4433 	push	af
   09AE 33                 4434 	inc	sp
   09AF CDr00r00           4435 	call	_move_sprite
   09B2 E8 03              4436 	add	sp, #3
                           4437 ;main.c:536: move_sprite(2, 0x10U, 0x20U);
   09B4 21 10 20           4438 	ld	hl,#0x2010
   09B7 E5                 4439 	push	hl
   09B8 3E 02              4440 	ld	a,#0x02
   09BA F5                 4441 	push	af
   09BB 33                 4442 	inc	sp
   09BC CDr00r00           4443 	call	_move_sprite
   09BF E8 03              4444 	add	sp, #3
                           4445 ;main.c:537: move_sprite(3, 0x18U, 0x20U);
   09C1 21 18 20           4446 	ld	hl,#0x2018
   09C4 E5                 4447 	push	hl
   09C5 3E 03              4448 	ld	a,#0x03
   09C7 F5                 4449 	push	af
   09C8 33                 4450 	inc	sp
   09C9 CDr00r00           4451 	call	_move_sprite
   09CC E8 03              4452 	add	sp, #3
                           4453 ;main.c:539: SHOW_BKG;
   09CE 11 40 FF           4454 	ld	de,#0xFF40
   09D1 1A                 4455 	ld	a,(de)
   09D2 5F                 4456 	ld	e,a
   09D3 16 00              4457 	ld	d,#0x00
   09D5 7B                 4458 	ld	a,e
   09D6 CB C7              4459 	set	0, a
   09D8 47                 4460 	ld	b,a
   09D9 21 40 FF           4461 	ld	hl,#0xFF40
   09DC 70                 4462 	ld	(hl),b
                           4463 ;main.c:540: SHOW_SPRITES;
   09DD 11 40 FF           4464 	ld	de,#0xFF40
   09E0 1A                 4465 	ld	a,(de)
   09E1 5F                 4466 	ld	e,a
   09E2 16 00              4467 	ld	d,#0x00
   09E4 7B                 4468 	ld	a,e
   09E5 CB CF              4469 	set	1, a
   09E7 47                 4470 	ld	b,a
   09E8 2E 40              4471 	ld	l, #0x40
   09EA 70                 4472 	ld	(hl),b
                           4473 ;main.c:541: DISPLAY_ON;
   09EB 11 40 FF           4474 	ld	de,#0xFF40
   09EE 1A                 4475 	ld	a,(de)
   09EF 5F                 4476 	ld	e,a
   09F0 16 00              4477 	ld	d,#0x00
   09F2 7B                 4478 	ld	a,e
   09F3 CB FF              4479 	set	7, a
   09F5 47                 4480 	ld	b,a
   09F6 2E 40              4481 	ld	l, #0x40
   09F8 70                 4482 	ld	(hl),b
                           4483 ;main.c:542: enable_interrupts();
   09F9 CDr00r00           4484 	call	_enable_interrupts
                           4485 ;main.c:545: key_a[2] = 0xd0849af3;
   09FC 21r51r04           4486 	ld	hl,#(_key_a + 0x0008)
   09FF 36 F3              4487 	ld	(hl),#0xF3
   0A01 23                 4488 	inc	hl
   0A02 36 9A              4489 	ld	(hl),#0x9A
   0A04 23                 4490 	inc	hl
   0A05 36 84              4491 	ld	(hl),#0x84
   0A07 23                 4492 	inc	hl
   0A08 36 D0              4493 	ld	(hl),#0xD0
                           4494 ;main.c:547: while(1) {
   0A0A                    4495 00104$:
                           4496 ;main.c:549: sleep(4);
   0A0A 3E 04              4497 	ld	a,#0x04
   0A0C F5                 4498 	push	af
   0A0D 33                 4499 	inc	sp
   0A0E CDr2Br03           4500 	call	_sleep
   0A11 33                 4501 	inc	sp
                           4502 ;main.c:550: process_button_press();
   0A12 CDr3Br03           4503 	call	_process_button_press
                           4504 ;main.c:552: if (input_seq_ctr >= SEQ_LEN) {
   0A15 21r38r04           4505 	ld	hl,#_input_seq_ctr
   0A18 46                 4506 	ld	b,(hl)
   0A19 0E 00              4507 	ld	c,#0x00
   0A1B 78                 4508 	ld	a,b
   0A1C D6 10              4509 	sub	a, #0x10
   0A1E 79                 4510 	ld	a,c
   0A1F DE 00              4511 	sbc	a, #0x00
   0A21 38 E7              4512 	jr	C,00104$
                           4513 ;main.c:554: key_a[3] = 0x04183ac4;
   0A23 21r55r04           4514 	ld	hl,#(_key_a + 0x000c)
   0A26 36 C4              4515 	ld	(hl),#0xC4
   0A28 23                 4516 	inc	hl
   0A29 36 3A              4517 	ld	(hl),#0x3A
   0A2B 23                 4518 	inc	hl
   0A2C 36 18              4519 	ld	(hl),#0x18
   0A2E 23                 4520 	inc	hl
   0A2F 36 04              4521 	ld	(hl),#0x04
                           4522 ;main.c:558: check_sequence();
   0A31 CDr62r03           4523 	call	_check_sequence
                           4524 ;main.c:559: input_seq_ctr = 0;
   0A34 21r38r04           4525 	ld	hl,#_input_seq_ctr
   0A37 36 00              4526 	ld	(hl),#0x00
   0A39 18 CF              4527 	jr	00104$
   0A3B C9                 4528 	ret
                           4529 	.area _CODE
                           4530 	.area _CABS (ABS)
