                              1 ;--------------------------------------------------------
                              2 ; File Created by SDCC : free open source ANSI-C Compiler
                              3 ; Version 3.5.0 #9253 (Mar 24 2016) (Linux)
                              4 ; This file was generated Sun Jul 16 22:50:56 2017
                              5 ;--------------------------------------------------------
                              6 	.module main
                              7 	.optsdcc -mgbz80
                              8 	
                              9 ;--------------------------------------------------------
                             10 ; Public variables in this module
                             11 ;--------------------------------------------------------
                             12 	.globl _main
                             13 	.globl _move_win
                             14 	.globl _set_win_tiles
                             15 	.globl _set_win_data
                             16 	.globl _display_off
                             17 	.globl _wait_vbl_done
                             18 	.globl _disable_interrupts
                             19 	.globl _enable_interrupts
                             20 	.globl _joypad
                             21 	.globl _delay
                             22 	.globl _strlen
                             23 	.globl _memset
                             24 	.globl _strcat
                             25 	.globl _strcpy
                             26 	.globl _key_b
                             27 	.globl _key_a
                             28 	.globl _flag_b
                             29 	.globl _flag_a
                             30 	.globl _input_seq_ctr
                             31 	.globl _input_seq
                             32 	.globl _text_map
                             33 	.globl _arrow_tile
                             34 	.globl _alphabet
                             35 	.globl _text_box
                             36 	.globl _window_border
                             37 	.globl _solution_seq
                             38 	.globl _girl_tiles
                             39 	.globl _divide_UINT8
                             40 	.globl _set_text_map
                             41 	.globl _clear_window
                             42 	.globl _show_text
                             43 	.globl _scroll_text
                             44 	.globl _sleep
                             45 	.globl _process_button_press
                             46 	.globl _check_sequence
                             47 	.globl _pass_level_1
                             48 	.globl _fail_level_1
                             49 	.globl _decrypt
                             50 	.globl _remove_flag_padding
                             51 ;--------------------------------------------------------
                             52 ; ram data
                             53 ;--------------------------------------------------------
                             54 	.area _DATA
   0000                      55 _window_border::
   0000                      56 	.ds 144
   0090                      57 _text_box::
   0090                      58 	.ds 120
   0108                      59 _alphabet::
   0108                      60 	.ds 736
   03E8                      61 _arrow_tile::
   03E8                      62 	.ds 32
   0408                      63 _text_map::
   0408                      64 	.ds 32
   0428                      65 _input_seq::
   0428                      66 	.ds 16
   0438                      67 _input_seq_ctr::
   0438                      68 	.ds 1
   0439                      69 _flag_a::
   0439                      70 	.ds 8
   0441                      71 _flag_b::
   0441                      72 	.ds 8
   0449                      73 _key_a::
   0449                      74 	.ds 16
   0459                      75 _key_b::
   0459                      76 	.ds 16
                             77 ;--------------------------------------------------------
                             78 ; absolute external ram data
                             79 ;--------------------------------------------------------
                             80 	.area _DABS (ABS)
                             81 ;--------------------------------------------------------
                             82 ; global & static initialisations
                             83 ;--------------------------------------------------------
                             84 	.area _HOME
                             85 	.area _GSINIT
                             86 	.area _GSFINAL
                             87 	.area _GSINIT
                             88 ;main.c:70: unsigned char window_border[] =
   0000 21r00r00             89 	ld	hl,#_window_border
   0003 36 1F                90 	ld	(hl),#0x1F
   0005 21r01r00             91 	ld	hl,#(_window_border + 0x0001)
   0008 36 1F                92 	ld	(hl),#0x1F
   000A 21r02r00             93 	ld	hl,#(_window_border + 0x0002)
   000D 36 20                94 	ld	(hl),#0x20
   000F 21r03r00             95 	ld	hl,#(_window_border + 0x0003)
   0012 36 3F                96 	ld	(hl),#0x3F
   0014 21r04r00             97 	ld	hl,#(_window_border + 0x0004)
   0017 36 40                98 	ld	(hl),#0x40
   0019 21r05r00             99 	ld	hl,#(_window_border + 0x0005)
   001C 36 70               100 	ld	(hl),#0x70
   001E 21r06r00            101 	ld	hl,#(_window_border + 0x0006)
   0021 36 87               102 	ld	(hl),#0x87
   0023 21r07r00            103 	ld	hl,#(_window_border + 0x0007)
   0026 36 E0               104 	ld	(hl),#0xE0
   0028 21r08r00            105 	ld	hl,#(_window_border + 0x0008)
   002B 36 8F               106 	ld	(hl),#0x8F
   002D 21r09r00            107 	ld	hl,#(_window_border + 0x0009)
   0030 36 C3               108 	ld	(hl),#0xC3
   0032 21r0Ar00            109 	ld	hl,#(_window_border + 0x000a)
   0035 36 9C               110 	ld	(hl),#0x9C
   0037 21r0Br00            111 	ld	hl,#(_window_border + 0x000b)
   003A 36 C4               112 	ld	(hl),#0xC4
   003C 21r0Cr00            113 	ld	hl,#(_window_border + 0x000c)
   003F 36 98               114 	ld	(hl),#0x98
   0041 21r0Dr00            115 	ld	hl,#(_window_border + 0x000d)
   0044 36 C8               116 	ld	(hl),#0xC8
   0046 21r0Er00            117 	ld	hl,#(_window_border + 0x000e)
   0049 36 98               118 	ld	(hl),#0x98
   004B 21r0Fr00            119 	ld	hl,#(_window_border + 0x000f)
   004E 36 C8               120 	ld	(hl),#0xC8
   0050 21r10r00            121 	ld	hl,#(_window_border + 0x0010)
   0053 36 98               122 	ld	(hl),#0x98
   0055 21r11r00            123 	ld	hl,#(_window_border + 0x0011)
   0058 36 C8               124 	ld	(hl),#0xC8
   005A 21r12r00            125 	ld	hl,#(_window_border + 0x0012)
   005D 36 98               126 	ld	(hl),#0x98
   005F 21r13r00            127 	ld	hl,#(_window_border + 0x0013)
   0062 36 C8               128 	ld	(hl),#0xC8
   0064 21r14r00            129 	ld	hl,#(_window_border + 0x0014)
   0067 36 98               130 	ld	(hl),#0x98
   0069 21r15r00            131 	ld	hl,#(_window_border + 0x0015)
   006C 36 C8               132 	ld	(hl),#0xC8
   006E 21r16r00            133 	ld	hl,#(_window_border + 0x0016)
   0071 36 98               134 	ld	(hl),#0x98
   0073 21r17r00            135 	ld	hl,#(_window_border + 0x0017)
   0076 36 C8               136 	ld	(hl),#0xC8
   0078 21r18r00            137 	ld	hl,#(_window_border + 0x0018)
   007B 36 98               138 	ld	(hl),#0x98
   007D 21r19r00            139 	ld	hl,#(_window_border + 0x0019)
   0080 36 C8               140 	ld	(hl),#0xC8
   0082 21r1Ar00            141 	ld	hl,#(_window_border + 0x001a)
   0085 36 98               142 	ld	(hl),#0x98
   0087 21r1Br00            143 	ld	hl,#(_window_border + 0x001b)
   008A 36 C8               144 	ld	(hl),#0xC8
   008C 21r1Cr00            145 	ld	hl,#(_window_border + 0x001c)
   008F 36 98               146 	ld	(hl),#0x98
   0091 21r1Dr00            147 	ld	hl,#(_window_border + 0x001d)
   0094 36 C8               148 	ld	(hl),#0xC8
   0096 21r1Er00            149 	ld	hl,#(_window_border + 0x001e)
   0099 36 98               150 	ld	(hl),#0x98
   009B 21r1Fr00            151 	ld	hl,#(_window_border + 0x001f)
   009E 36 C8               152 	ld	(hl),#0xC8
   00A0 21r20r00            153 	ld	hl,#(_window_border + 0x0020)
   00A3 36 FF               154 	ld	(hl),#0xFF
   00A5 21r21r00            155 	ld	hl,#(_window_border + 0x0021)
   00A8 36 FF               156 	ld	(hl),#0xFF
   00AA 01r22r00            157 	ld	bc,#_window_border + 34
   00AD AF                  158 	xor	a, a
   00AE 02                  159 	ld	(bc),a
   00AF 21r23r00            160 	ld	hl,#(_window_border + 0x0023)
   00B2 36 FF               161 	ld	(hl),#0xFF
   00B4 01r24r00            162 	ld	bc,#_window_border + 36
   00B7 AF                  163 	xor	a, a
   00B8 02                  164 	ld	(bc),a
   00B9 01r25r00            165 	ld	bc,#_window_border + 37
   00BC AF                  166 	xor	a, a
   00BD 02                  167 	ld	(bc),a
   00BE 21r26r00            168 	ld	hl,#(_window_border + 0x0026)
   00C1 36 FF               169 	ld	(hl),#0xFF
   00C3 01r27r00            170 	ld	bc,#_window_border + 39
   00C6 AF                  171 	xor	a, a
   00C7 02                  172 	ld	(bc),a
   00C8 21r28r00            173 	ld	hl,#(_window_border + 0x0028)
   00CB 36 FF               174 	ld	(hl),#0xFF
   00CD 21r29r00            175 	ld	hl,#(_window_border + 0x0029)
   00D0 36 FF               176 	ld	(hl),#0xFF
   00D2 01r2Ar00            177 	ld	bc,#_window_border + 42
   00D5 AF                  178 	xor	a, a
   00D6 02                  179 	ld	(bc),a
   00D7 01r2Br00            180 	ld	bc,#_window_border + 43
   00DA AF                  181 	xor	a, a
   00DB 02                  182 	ld	(bc),a
   00DC 01r2Cr00            183 	ld	bc,#_window_border + 44
   00DF AF                  184 	xor	a, a
   00E0 02                  185 	ld	(bc),a
   00E1 01r2Dr00            186 	ld	bc,#_window_border + 45
   00E4 AF                  187 	xor	a, a
   00E5 02                  188 	ld	(bc),a
   00E6 01r2Er00            189 	ld	bc,#_window_border + 46
   00E9 AF                  190 	xor	a, a
   00EA 02                  191 	ld	(bc),a
   00EB 01r2Fr00            192 	ld	bc,#_window_border + 47
   00EE AF                  193 	xor	a, a
   00EF 02                  194 	ld	(bc),a
   00F0 21r30r00            195 	ld	hl,#(_window_border + 0x0030)
   00F3 36 98               196 	ld	(hl),#0x98
   00F5 21r31r00            197 	ld	hl,#(_window_border + 0x0031)
   00F8 36 C8               198 	ld	(hl),#0xC8
   00FA 21r32r00            199 	ld	hl,#(_window_border + 0x0032)
   00FD 36 98               200 	ld	(hl),#0x98
   00FF 21r33r00            201 	ld	hl,#(_window_border + 0x0033)
   0102 36 C8               202 	ld	(hl),#0xC8
   0104 21r34r00            203 	ld	hl,#(_window_border + 0x0034)
   0107 36 94               204 	ld	(hl),#0x94
   0109 21r35r00            205 	ld	hl,#(_window_border + 0x0035)
   010C 36 C8               206 	ld	(hl),#0xC8
   010E 21r36r00            207 	ld	hl,#(_window_border + 0x0036)
   0111 36 83               208 	ld	(hl),#0x83
   0113 21r37r00            209 	ld	hl,#(_window_border + 0x0037)
   0116 36 CC               210 	ld	(hl),#0xCC
   0118 21r38r00            211 	ld	hl,#(_window_border + 0x0038)
   011B 36 80               212 	ld	(hl),#0x80
   011D 21r39r00            213 	ld	hl,#(_window_border + 0x0039)
   0120 36 E7               214 	ld	(hl),#0xE7
   0122 21r3Ar00            215 	ld	hl,#(_window_border + 0x003a)
   0125 36 40               216 	ld	(hl),#0x40
   0127 21r3Br00            217 	ld	hl,#(_window_border + 0x003b)
   012A 36 70               218 	ld	(hl),#0x70
   012C 21r3Cr00            219 	ld	hl,#(_window_border + 0x003c)
   012F 36 2F               220 	ld	(hl),#0x2F
   0131 21r3Dr00            221 	ld	hl,#(_window_border + 0x003d)
   0134 36 30               222 	ld	(hl),#0x30
   0136 21r3Er00            223 	ld	hl,#(_window_border + 0x003e)
   0139 36 1F               224 	ld	(hl),#0x1F
   013B 21r3Fr00            225 	ld	hl,#(_window_border + 0x003f)
   013E 36 1F               226 	ld	(hl),#0x1F
   0140 01r40r00            227 	ld	bc,#_window_border + 64
   0143 AF                  228 	xor	a, a
   0144 02                  229 	ld	(bc),a
   0145 01r41r00            230 	ld	bc,#_window_border + 65
   0148 AF                  231 	xor	a, a
   0149 02                  232 	ld	(bc),a
   014A 01r42r00            233 	ld	bc,#_window_border + 66
   014D AF                  234 	xor	a, a
   014E 02                  235 	ld	(bc),a
   014F 01r43r00            236 	ld	bc,#_window_border + 67
   0152 AF                  237 	xor	a, a
   0153 02                  238 	ld	(bc),a
   0154 01r44r00            239 	ld	bc,#_window_border + 68
   0157 AF                  240 	xor	a, a
   0158 02                  241 	ld	(bc),a
   0159 01r45r00            242 	ld	bc,#_window_border + 69
   015C AF                  243 	xor	a, a
   015D 02                  244 	ld	(bc),a
   015E 21r46r00            245 	ld	hl,#(_window_border + 0x0046)
   0161 36 FF               246 	ld	(hl),#0xFF
   0163 01r47r00            247 	ld	bc,#_window_border + 71
   0166 AF                  248 	xor	a, a
   0167 02                  249 	ld	(bc),a
   0168 01r48r00            250 	ld	bc,#_window_border + 72
   016B AF                  251 	xor	a, a
   016C 02                  252 	ld	(bc),a
   016D 21r49r00            253 	ld	hl,#(_window_border + 0x0049)
   0170 36 FF               254 	ld	(hl),#0xFF
   0172 01r4Ar00            255 	ld	bc,#_window_border + 74
   0175 AF                  256 	xor	a, a
   0176 02                  257 	ld	(bc),a
   0177 01r4Br00            258 	ld	bc,#_window_border + 75
   017A AF                  259 	xor	a, a
   017B 02                  260 	ld	(bc),a
   017C 21r4Cr00            261 	ld	hl,#(_window_border + 0x004c)
   017F 36 FF               262 	ld	(hl),#0xFF
   0181 01r4Dr00            263 	ld	bc,#_window_border + 77
   0184 AF                  264 	xor	a, a
   0185 02                  265 	ld	(bc),a
   0186 21r4Er00            266 	ld	hl,#(_window_border + 0x004e)
   0189 36 FF               267 	ld	(hl),#0xFF
   018B 21r4Fr00            268 	ld	hl,#(_window_border + 0x004f)
   018E 36 FF               269 	ld	(hl),#0xFF
   0190 21r50r00            270 	ld	hl,#(_window_border + 0x0050)
   0193 36 13               271 	ld	(hl),#0x13
   0195 21r51r00            272 	ld	hl,#(_window_border + 0x0051)
   0198 36 09               273 	ld	(hl),#0x09
   019A 21r52r00            274 	ld	hl,#(_window_border + 0x0052)
   019D 36 13               275 	ld	(hl),#0x13
   019F 21r53r00            276 	ld	hl,#(_window_border + 0x0053)
   01A2 36 09               277 	ld	(hl),#0x09
   01A4 21r54r00            278 	ld	hl,#(_window_border + 0x0054)
   01A7 36 23               279 	ld	(hl),#0x23
   01A9 21r55r00            280 	ld	hl,#(_window_border + 0x0055)
   01AC 36 19               281 	ld	(hl),#0x19
   01AE 21r56r00            282 	ld	hl,#(_window_border + 0x0056)
   01B1 36 C3               283 	ld	(hl),#0xC3
   01B3 21r57r00            284 	ld	hl,#(_window_border + 0x0057)
   01B6 36 31               285 	ld	(hl),#0x31
   01B8 21r58r00            286 	ld	hl,#(_window_border + 0x0058)
   01BB 36 07               287 	ld	(hl),#0x07
   01BD 21r59r00            288 	ld	hl,#(_window_border + 0x0059)
   01C0 36 E1               289 	ld	(hl),#0xE1
   01C2 21r5Ar00            290 	ld	hl,#(_window_border + 0x005a)
   01C5 36 0E               291 	ld	(hl),#0x0E
   01C7 21r5Br00            292 	ld	hl,#(_window_border + 0x005b)
   01CA 36 02               293 	ld	(hl),#0x02
   01CC 21r5Cr00            294 	ld	hl,#(_window_border + 0x005c)
   01CF 36 FC               295 	ld	(hl),#0xFC
   01D1 21r5Dr00            296 	ld	hl,#(_window_border + 0x005d)
   01D4 36 04               297 	ld	(hl),#0x04
   01D6 21r5Er00            298 	ld	hl,#(_window_border + 0x005e)
   01D9 36 F8               299 	ld	(hl),#0xF8
   01DB 21r5Fr00            300 	ld	hl,#(_window_border + 0x005f)
   01DE 36 F8               301 	ld	(hl),#0xF8
   01E0 21r60r00            302 	ld	hl,#(_window_border + 0x0060)
   01E3 36 13               303 	ld	(hl),#0x13
   01E5 21r61r00            304 	ld	hl,#(_window_border + 0x0061)
   01E8 36 09               305 	ld	(hl),#0x09
   01EA 21r62r00            306 	ld	hl,#(_window_border + 0x0062)
   01ED 36 13               307 	ld	(hl),#0x13
   01EF 21r63r00            308 	ld	hl,#(_window_border + 0x0063)
   01F2 36 09               309 	ld	(hl),#0x09
   01F4 21r64r00            310 	ld	hl,#(_window_border + 0x0064)
   01F7 36 13               311 	ld	(hl),#0x13
   01F9 21r65r00            312 	ld	hl,#(_window_border + 0x0065)
   01FC 36 09               313 	ld	(hl),#0x09
   01FE 21r66r00            314 	ld	hl,#(_window_border + 0x0066)
   0201 36 13               315 	ld	(hl),#0x13
   0203 21r67r00            316 	ld	hl,#(_window_border + 0x0067)
   0206 36 09               317 	ld	(hl),#0x09
   0208 21r68r00            318 	ld	hl,#(_window_border + 0x0068)
   020B 36 13               319 	ld	(hl),#0x13
   020D 21r69r00            320 	ld	hl,#(_window_border + 0x0069)
   0210 36 09               321 	ld	(hl),#0x09
   0212 21r6Ar00            322 	ld	hl,#(_window_border + 0x006a)
   0215 36 13               323 	ld	(hl),#0x13
   0217 21r6Br00            324 	ld	hl,#(_window_border + 0x006b)
   021A 36 09               325 	ld	(hl),#0x09
   021C 21r6Cr00            326 	ld	hl,#(_window_border + 0x006c)
   021F 36 13               327 	ld	(hl),#0x13
   0221 21r6Dr00            328 	ld	hl,#(_window_border + 0x006d)
   0224 36 09               329 	ld	(hl),#0x09
   0226 21r6Er00            330 	ld	hl,#(_window_border + 0x006e)
   0229 36 13               331 	ld	(hl),#0x13
   022B 21r6Fr00            332 	ld	hl,#(_window_border + 0x006f)
   022E 36 09               333 	ld	(hl),#0x09
   0230 21r70r00            334 	ld	hl,#(_window_border + 0x0070)
   0233 36 F8               335 	ld	(hl),#0xF8
   0235 21r71r00            336 	ld	hl,#(_window_border + 0x0071)
   0238 36 F8               337 	ld	(hl),#0xF8
   023A 21r72r00            338 	ld	hl,#(_window_border + 0x0072)
   023D 36 04               339 	ld	(hl),#0x04
   023F 21r73r00            340 	ld	hl,#(_window_border + 0x0073)
   0242 36 FC               341 	ld	(hl),#0xFC
   0244 21r74r00            342 	ld	hl,#(_window_border + 0x0074)
   0247 36 02               343 	ld	(hl),#0x02
   0249 21r75r00            344 	ld	hl,#(_window_border + 0x0075)
   024C 36 0E               345 	ld	(hl),#0x0E
   024E 21r76r00            346 	ld	hl,#(_window_border + 0x0076)
   0251 36 E1               347 	ld	(hl),#0xE1
   0253 21r77r00            348 	ld	hl,#(_window_border + 0x0077)
   0256 36 07               349 	ld	(hl),#0x07
   0258 21r78r00            350 	ld	hl,#(_window_border + 0x0078)
   025B 36 F1               351 	ld	(hl),#0xF1
   025D 21r79r00            352 	ld	hl,#(_window_border + 0x0079)
   0260 36 C3               353 	ld	(hl),#0xC3
   0262 21r7Ar00            354 	ld	hl,#(_window_border + 0x007a)
   0265 36 23               355 	ld	(hl),#0x23
   0267 21r7Br00            356 	ld	hl,#(_window_border + 0x007b)
   026A 36 39               357 	ld	(hl),#0x39
   026C 21r7Cr00            358 	ld	hl,#(_window_border + 0x007c)
   026F 36 13               359 	ld	(hl),#0x13
   0271 21r7Dr00            360 	ld	hl,#(_window_border + 0x007d)
   0274 36 09               361 	ld	(hl),#0x09
   0276 21r7Er00            362 	ld	hl,#(_window_border + 0x007e)
   0279 36 13               363 	ld	(hl),#0x13
   027B 21r7Fr00            364 	ld	hl,#(_window_border + 0x007f)
   027E 36 09               365 	ld	(hl),#0x09
   0280 01r80r00            366 	ld	bc,#_window_border + 128
   0283 AF                  367 	xor	a, a
   0284 02                  368 	ld	(bc),a
   0285 01r81r00            369 	ld	bc,#_window_border + 129
   0288 AF                  370 	xor	a, a
   0289 02                  371 	ld	(bc),a
   028A 01r82r00            372 	ld	bc,#_window_border + 130
   028D AF                  373 	xor	a, a
   028E 02                  374 	ld	(bc),a
   028F 01r83r00            375 	ld	bc,#_window_border + 131
   0292 AF                  376 	xor	a, a
   0293 02                  377 	ld	(bc),a
   0294 01r84r00            378 	ld	bc,#_window_border + 132
   0297 AF                  379 	xor	a, a
   0298 02                  380 	ld	(bc),a
   0299 01r85r00            381 	ld	bc,#_window_border + 133
   029C AF                  382 	xor	a, a
   029D 02                  383 	ld	(bc),a
   029E 01r86r00            384 	ld	bc,#_window_border + 134
   02A1 AF                  385 	xor	a, a
   02A2 02                  386 	ld	(bc),a
   02A3 01r87r00            387 	ld	bc,#_window_border + 135
   02A6 AF                  388 	xor	a, a
   02A7 02                  389 	ld	(bc),a
   02A8 01r88r00            390 	ld	bc,#_window_border + 136
   02AB AF                  391 	xor	a, a
   02AC 02                  392 	ld	(bc),a
   02AD 01r89r00            393 	ld	bc,#_window_border + 137
   02B0 AF                  394 	xor	a, a
   02B1 02                  395 	ld	(bc),a
   02B2 01r8Ar00            396 	ld	bc,#_window_border + 138
   02B5 AF                  397 	xor	a, a
   02B6 02                  398 	ld	(bc),a
   02B7 01r8Br00            399 	ld	bc,#_window_border + 139
   02BA AF                  400 	xor	a, a
   02BB 02                  401 	ld	(bc),a
   02BC 01r8Cr00            402 	ld	bc,#_window_border + 140
   02BF AF                  403 	xor	a, a
   02C0 02                  404 	ld	(bc),a
   02C1 01r8Dr00            405 	ld	bc,#_window_border + 141
   02C4 AF                  406 	xor	a, a
   02C5 02                  407 	ld	(bc),a
   02C6 01r8Er00            408 	ld	bc,#_window_border + 142
   02C9 AF                  409 	xor	a, a
   02CA 02                  410 	ld	(bc),a
   02CB 01r8Fr00            411 	ld	bc,#_window_border + 143
   02CE AF                  412 	xor	a, a
   02CF 02                  413 	ld	(bc),a
                            414 ;main.c:96: unsigned char text_box[] =
   02D0 21r90r00            415 	ld	hl,#_text_box
   02D3 36 80               416 	ld	(hl),#0x80
   02D5 21r91r00            417 	ld	hl,#(_text_box + 0x0001)
   02D8 36 82               418 	ld	(hl),#0x82
   02DA 21r92r00            419 	ld	hl,#(_text_box + 0x0002)
   02DD 36 82               420 	ld	(hl),#0x82
   02DF 21r93r00            421 	ld	hl,#(_text_box + 0x0003)
   02E2 36 82               422 	ld	(hl),#0x82
   02E4 21r94r00            423 	ld	hl,#(_text_box + 0x0004)
   02E7 36 82               424 	ld	(hl),#0x82
   02E9 21r95r00            425 	ld	hl,#(_text_box + 0x0005)
   02EC 36 82               426 	ld	(hl),#0x82
   02EE 21r96r00            427 	ld	hl,#(_text_box + 0x0006)
   02F1 36 82               428 	ld	(hl),#0x82
   02F3 21r97r00            429 	ld	hl,#(_text_box + 0x0007)
   02F6 36 82               430 	ld	(hl),#0x82
   02F8 21r98r00            431 	ld	hl,#(_text_box + 0x0008)
   02FB 36 82               432 	ld	(hl),#0x82
   02FD 21r99r00            433 	ld	hl,#(_text_box + 0x0009)
   0300 36 82               434 	ld	(hl),#0x82
   0302 21r9Ar00            435 	ld	hl,#(_text_box + 0x000a)
   0305 36 82               436 	ld	(hl),#0x82
   0307 21r9Br00            437 	ld	hl,#(_text_box + 0x000b)
   030A 36 82               438 	ld	(hl),#0x82
   030C 21r9Cr00            439 	ld	hl,#(_text_box + 0x000c)
   030F 36 82               440 	ld	(hl),#0x82
   0311 21r9Dr00            441 	ld	hl,#(_text_box + 0x000d)
   0314 36 82               442 	ld	(hl),#0x82
   0316 21r9Er00            443 	ld	hl,#(_text_box + 0x000e)
   0319 36 82               444 	ld	(hl),#0x82
   031B 21r9Fr00            445 	ld	hl,#(_text_box + 0x000f)
   031E 36 82               446 	ld	(hl),#0x82
   0320 21rA0r00            447 	ld	hl,#(_text_box + 0x0010)
   0323 36 82               448 	ld	(hl),#0x82
   0325 21rA1r00            449 	ld	hl,#(_text_box + 0x0011)
   0328 36 82               450 	ld	(hl),#0x82
   032A 21rA2r00            451 	ld	hl,#(_text_box + 0x0012)
   032D 36 82               452 	ld	(hl),#0x82
   032F 21rA3r00            453 	ld	hl,#(_text_box + 0x0013)
   0332 36 87               454 	ld	(hl),#0x87
   0334 21rA4r00            455 	ld	hl,#(_text_box + 0x0014)
   0337 36 81               456 	ld	(hl),#0x81
   0339 21rA5r00            457 	ld	hl,#(_text_box + 0x0015)
   033C 36 88               458 	ld	(hl),#0x88
   033E 21rA6r00            459 	ld	hl,#(_text_box + 0x0016)
   0341 36 88               460 	ld	(hl),#0x88
   0343 21rA7r00            461 	ld	hl,#(_text_box + 0x0017)
   0346 36 88               462 	ld	(hl),#0x88
   0348 21rA8r00            463 	ld	hl,#(_text_box + 0x0018)
   034B 36 88               464 	ld	(hl),#0x88
   034D 21rA9r00            465 	ld	hl,#(_text_box + 0x0019)
   0350 36 88               466 	ld	(hl),#0x88
   0352 21rAAr00            467 	ld	hl,#(_text_box + 0x001a)
   0355 36 88               468 	ld	(hl),#0x88
   0357 21rABr00            469 	ld	hl,#(_text_box + 0x001b)
   035A 36 88               470 	ld	(hl),#0x88
   035C 21rACr00            471 	ld	hl,#(_text_box + 0x001c)
   035F 36 88               472 	ld	(hl),#0x88
   0361 21rADr00            473 	ld	hl,#(_text_box + 0x001d)
   0364 36 88               474 	ld	(hl),#0x88
   0366 21rAEr00            475 	ld	hl,#(_text_box + 0x001e)
   0369 36 88               476 	ld	(hl),#0x88
   036B 21rAFr00            477 	ld	hl,#(_text_box + 0x001f)
   036E 36 88               478 	ld	(hl),#0x88
   0370 21rB0r00            479 	ld	hl,#(_text_box + 0x0020)
   0373 36 88               480 	ld	(hl),#0x88
   0375 21rB1r00            481 	ld	hl,#(_text_box + 0x0021)
   0378 36 88               482 	ld	(hl),#0x88
   037A 21rB2r00            483 	ld	hl,#(_text_box + 0x0022)
   037D 36 88               484 	ld	(hl),#0x88
   037F 21rB3r00            485 	ld	hl,#(_text_box + 0x0023)
   0382 36 88               486 	ld	(hl),#0x88
   0384 21rB4r00            487 	ld	hl,#(_text_box + 0x0024)
   0387 36 88               488 	ld	(hl),#0x88
   0389 21rB5r00            489 	ld	hl,#(_text_box + 0x0025)
   038C 36 88               490 	ld	(hl),#0x88
   038E 21rB6r00            491 	ld	hl,#(_text_box + 0x0026)
   0391 36 88               492 	ld	(hl),#0x88
   0393 21rB7r00            493 	ld	hl,#(_text_box + 0x0027)
   0396 36 86               494 	ld	(hl),#0x86
   0398 21rB8r00            495 	ld	hl,#(_text_box + 0x0028)
   039B 36 81               496 	ld	(hl),#0x81
   039D 21rB9r00            497 	ld	hl,#(_text_box + 0x0029)
   03A0 36 88               498 	ld	(hl),#0x88
   03A2 21rBAr00            499 	ld	hl,#(_text_box + 0x002a)
   03A5 36 88               500 	ld	(hl),#0x88
   03A7 21rBBr00            501 	ld	hl,#(_text_box + 0x002b)
   03AA 36 88               502 	ld	(hl),#0x88
   03AC 21rBCr00            503 	ld	hl,#(_text_box + 0x002c)
   03AF 36 88               504 	ld	(hl),#0x88
   03B1 21rBDr00            505 	ld	hl,#(_text_box + 0x002d)
   03B4 36 88               506 	ld	(hl),#0x88
   03B6 21rBEr00            507 	ld	hl,#(_text_box + 0x002e)
   03B9 36 88               508 	ld	(hl),#0x88
   03BB 21rBFr00            509 	ld	hl,#(_text_box + 0x002f)
   03BE 36 88               510 	ld	(hl),#0x88
   03C0 21rC0r00            511 	ld	hl,#(_text_box + 0x0030)
   03C3 36 88               512 	ld	(hl),#0x88
   03C5 21rC1r00            513 	ld	hl,#(_text_box + 0x0031)
   03C8 36 88               514 	ld	(hl),#0x88
   03CA 21rC2r00            515 	ld	hl,#(_text_box + 0x0032)
   03CD 36 88               516 	ld	(hl),#0x88
   03CF 21rC3r00            517 	ld	hl,#(_text_box + 0x0033)
   03D2 36 88               518 	ld	(hl),#0x88
   03D4 21rC4r00            519 	ld	hl,#(_text_box + 0x0034)
   03D7 36 88               520 	ld	(hl),#0x88
   03D9 21rC5r00            521 	ld	hl,#(_text_box + 0x0035)
   03DC 36 88               522 	ld	(hl),#0x88
   03DE 21rC6r00            523 	ld	hl,#(_text_box + 0x0036)
   03E1 36 88               524 	ld	(hl),#0x88
   03E3 21rC7r00            525 	ld	hl,#(_text_box + 0x0037)
   03E6 36 88               526 	ld	(hl),#0x88
   03E8 21rC8r00            527 	ld	hl,#(_text_box + 0x0038)
   03EB 36 88               528 	ld	(hl),#0x88
   03ED 21rC9r00            529 	ld	hl,#(_text_box + 0x0039)
   03F0 36 88               530 	ld	(hl),#0x88
   03F2 21rCAr00            531 	ld	hl,#(_text_box + 0x003a)
   03F5 36 88               532 	ld	(hl),#0x88
   03F7 21rCBr00            533 	ld	hl,#(_text_box + 0x003b)
   03FA 36 86               534 	ld	(hl),#0x86
   03FC 21rCCr00            535 	ld	hl,#(_text_box + 0x003c)
   03FF 36 81               536 	ld	(hl),#0x81
   0401 21rCDr00            537 	ld	hl,#(_text_box + 0x003d)
   0404 36 88               538 	ld	(hl),#0x88
   0406 21rCEr00            539 	ld	hl,#(_text_box + 0x003e)
   0409 36 88               540 	ld	(hl),#0x88
   040B 21rCFr00            541 	ld	hl,#(_text_box + 0x003f)
   040E 36 88               542 	ld	(hl),#0x88
   0410 21rD0r00            543 	ld	hl,#(_text_box + 0x0040)
   0413 36 88               544 	ld	(hl),#0x88
   0415 21rD1r00            545 	ld	hl,#(_text_box + 0x0041)
   0418 36 88               546 	ld	(hl),#0x88
   041A 21rD2r00            547 	ld	hl,#(_text_box + 0x0042)
   041D 36 88               548 	ld	(hl),#0x88
   041F 21rD3r00            549 	ld	hl,#(_text_box + 0x0043)
   0422 36 88               550 	ld	(hl),#0x88
   0424 21rD4r00            551 	ld	hl,#(_text_box + 0x0044)
   0427 36 88               552 	ld	(hl),#0x88
   0429 21rD5r00            553 	ld	hl,#(_text_box + 0x0045)
   042C 36 88               554 	ld	(hl),#0x88
   042E 21rD6r00            555 	ld	hl,#(_text_box + 0x0046)
   0431 36 88               556 	ld	(hl),#0x88
   0433 21rD7r00            557 	ld	hl,#(_text_box + 0x0047)
   0436 36 88               558 	ld	(hl),#0x88
   0438 21rD8r00            559 	ld	hl,#(_text_box + 0x0048)
   043B 36 88               560 	ld	(hl),#0x88
   043D 21rD9r00            561 	ld	hl,#(_text_box + 0x0049)
   0440 36 88               562 	ld	(hl),#0x88
   0442 21rDAr00            563 	ld	hl,#(_text_box + 0x004a)
   0445 36 88               564 	ld	(hl),#0x88
   0447 21rDBr00            565 	ld	hl,#(_text_box + 0x004b)
   044A 36 88               566 	ld	(hl),#0x88
   044C 21rDCr00            567 	ld	hl,#(_text_box + 0x004c)
   044F 36 88               568 	ld	(hl),#0x88
   0451 21rDDr00            569 	ld	hl,#(_text_box + 0x004d)
   0454 36 88               570 	ld	(hl),#0x88
   0456 21rDEr00            571 	ld	hl,#(_text_box + 0x004e)
   0459 36 88               572 	ld	(hl),#0x88
   045B 21rDFr00            573 	ld	hl,#(_text_box + 0x004f)
   045E 36 86               574 	ld	(hl),#0x86
   0460 21rE0r00            575 	ld	hl,#(_text_box + 0x0050)
   0463 36 81               576 	ld	(hl),#0x81
   0465 21rE1r00            577 	ld	hl,#(_text_box + 0x0051)
   0468 36 88               578 	ld	(hl),#0x88
   046A 21rE2r00            579 	ld	hl,#(_text_box + 0x0052)
   046D 36 88               580 	ld	(hl),#0x88
   046F 21rE3r00            581 	ld	hl,#(_text_box + 0x0053)
   0472 36 88               582 	ld	(hl),#0x88
   0474 21rE4r00            583 	ld	hl,#(_text_box + 0x0054)
   0477 36 88               584 	ld	(hl),#0x88
   0479 21rE5r00            585 	ld	hl,#(_text_box + 0x0055)
   047C 36 88               586 	ld	(hl),#0x88
   047E 21rE6r00            587 	ld	hl,#(_text_box + 0x0056)
   0481 36 88               588 	ld	(hl),#0x88
   0483 21rE7r00            589 	ld	hl,#(_text_box + 0x0057)
   0486 36 88               590 	ld	(hl),#0x88
   0488 21rE8r00            591 	ld	hl,#(_text_box + 0x0058)
   048B 36 88               592 	ld	(hl),#0x88
   048D 21rE9r00            593 	ld	hl,#(_text_box + 0x0059)
   0490 36 88               594 	ld	(hl),#0x88
   0492 21rEAr00            595 	ld	hl,#(_text_box + 0x005a)
   0495 36 88               596 	ld	(hl),#0x88
   0497 21rEBr00            597 	ld	hl,#(_text_box + 0x005b)
   049A 36 88               598 	ld	(hl),#0x88
   049C 21rECr00            599 	ld	hl,#(_text_box + 0x005c)
   049F 36 88               600 	ld	(hl),#0x88
   04A1 21rEDr00            601 	ld	hl,#(_text_box + 0x005d)
   04A4 36 88               602 	ld	(hl),#0x88
   04A6 21rEEr00            603 	ld	hl,#(_text_box + 0x005e)
   04A9 36 88               604 	ld	(hl),#0x88
   04AB 21rEFr00            605 	ld	hl,#(_text_box + 0x005f)
   04AE 36 88               606 	ld	(hl),#0x88
   04B0 21rF0r00            607 	ld	hl,#(_text_box + 0x0060)
   04B3 36 88               608 	ld	(hl),#0x88
   04B5 21rF1r00            609 	ld	hl,#(_text_box + 0x0061)
   04B8 36 88               610 	ld	(hl),#0x88
   04BA 21rF2r00            611 	ld	hl,#(_text_box + 0x0062)
   04BD 36 88               612 	ld	(hl),#0x88
   04BF 21rF3r00            613 	ld	hl,#(_text_box + 0x0063)
   04C2 36 86               614 	ld	(hl),#0x86
   04C4 21rF4r00            615 	ld	hl,#(_text_box + 0x0064)
   04C7 36 83               616 	ld	(hl),#0x83
   04C9 21rF5r00            617 	ld	hl,#(_text_box + 0x0065)
   04CC 36 84               618 	ld	(hl),#0x84
   04CE 21rF6r00            619 	ld	hl,#(_text_box + 0x0066)
   04D1 36 84               620 	ld	(hl),#0x84
   04D3 21rF7r00            621 	ld	hl,#(_text_box + 0x0067)
   04D6 36 84               622 	ld	(hl),#0x84
   04D8 21rF8r00            623 	ld	hl,#(_text_box + 0x0068)
   04DB 36 84               624 	ld	(hl),#0x84
   04DD 21rF9r00            625 	ld	hl,#(_text_box + 0x0069)
   04E0 36 84               626 	ld	(hl),#0x84
   04E2 21rFAr00            627 	ld	hl,#(_text_box + 0x006a)
   04E5 36 84               628 	ld	(hl),#0x84
   04E7 21rFBr00            629 	ld	hl,#(_text_box + 0x006b)
   04EA 36 84               630 	ld	(hl),#0x84
   04EC 21rFCr00            631 	ld	hl,#(_text_box + 0x006c)
   04EF 36 84               632 	ld	(hl),#0x84
   04F1 21rFDr00            633 	ld	hl,#(_text_box + 0x006d)
   04F4 36 84               634 	ld	(hl),#0x84
   04F6 21rFEr00            635 	ld	hl,#(_text_box + 0x006e)
   04F9 36 84               636 	ld	(hl),#0x84
   04FB 21rFFr00            637 	ld	hl,#(_text_box + 0x006f)
   04FE 36 84               638 	ld	(hl),#0x84
   0500 21r00r01            639 	ld	hl,#(_text_box + 0x0070)
   0503 36 84               640 	ld	(hl),#0x84
   0505 21r01r01            641 	ld	hl,#(_text_box + 0x0071)
   0508 36 84               642 	ld	(hl),#0x84
   050A 21r02r01            643 	ld	hl,#(_text_box + 0x0072)
   050D 36 84               644 	ld	(hl),#0x84
   050F 21r03r01            645 	ld	hl,#(_text_box + 0x0073)
   0512 36 84               646 	ld	(hl),#0x84
   0514 21r04r01            647 	ld	hl,#(_text_box + 0x0074)
   0517 36 84               648 	ld	(hl),#0x84
   0519 21r05r01            649 	ld	hl,#(_text_box + 0x0075)
   051C 36 84               650 	ld	(hl),#0x84
   051E 21r06r01            651 	ld	hl,#(_text_box + 0x0076)
   0521 36 84               652 	ld	(hl),#0x84
   0523 21r07r01            653 	ld	hl,#(_text_box + 0x0077)
   0526 36 85               654 	ld	(hl),#0x85
                            655 ;main.c:115: unsigned char alphabet[] =
   0528 21r08r01            656 	ld	hl,#_alphabet
   052B 36 7C               657 	ld	(hl),#0x7C
   052D 21r09r01            658 	ld	hl,#(_alphabet + 0x0001)
   0530 36 7C               659 	ld	(hl),#0x7C
   0532 21r0Ar01            660 	ld	hl,#(_alphabet + 0x0002)
   0535 36 82               661 	ld	(hl),#0x82
   0537 21r0Br01            662 	ld	hl,#(_alphabet + 0x0003)
   053A 36 82               663 	ld	(hl),#0x82
   053C 21r0Cr01            664 	ld	hl,#(_alphabet + 0x0004)
   053F 36 82               665 	ld	(hl),#0x82
   0541 21r0Dr01            666 	ld	hl,#(_alphabet + 0x0005)
   0544 36 82               667 	ld	(hl),#0x82
   0546 21r0Er01            668 	ld	hl,#(_alphabet + 0x0006)
   0549 36 82               669 	ld	(hl),#0x82
   054B 21r0Fr01            670 	ld	hl,#(_alphabet + 0x0007)
   054E 36 82               671 	ld	(hl),#0x82
   0550 21r10r01            672 	ld	hl,#(_alphabet + 0x0008)
   0553 36 82               673 	ld	(hl),#0x82
   0555 21r11r01            674 	ld	hl,#(_alphabet + 0x0009)
   0558 36 82               675 	ld	(hl),#0x82
   055A 21r12r01            676 	ld	hl,#(_alphabet + 0x000a)
   055D 36 82               677 	ld	(hl),#0x82
   055F 21r13r01            678 	ld	hl,#(_alphabet + 0x000b)
   0562 36 82               679 	ld	(hl),#0x82
   0564 21r14r01            680 	ld	hl,#(_alphabet + 0x000c)
   0567 36 7C               681 	ld	(hl),#0x7C
   0569 21r15r01            682 	ld	hl,#(_alphabet + 0x000d)
   056C 36 7C               683 	ld	(hl),#0x7C
   056E 01r16r01            684 	ld	bc,#_alphabet + 14
   0571 AF                  685 	xor	a, a
   0572 02                  686 	ld	(bc),a
   0573 01r17r01            687 	ld	bc,#_alphabet + 15
   0576 AF                  688 	xor	a, a
   0577 02                  689 	ld	(bc),a
   0578 21r18r01            690 	ld	hl,#(_alphabet + 0x0010)
   057B 36 10               691 	ld	(hl),#0x10
   057D 21r19r01            692 	ld	hl,#(_alphabet + 0x0011)
   0580 36 10               693 	ld	(hl),#0x10
   0582 21r1Ar01            694 	ld	hl,#(_alphabet + 0x0012)
   0585 36 30               695 	ld	(hl),#0x30
   0587 21r1Br01            696 	ld	hl,#(_alphabet + 0x0013)
   058A 36 30               697 	ld	(hl),#0x30
   058C 21r1Cr01            698 	ld	hl,#(_alphabet + 0x0014)
   058F 36 10               699 	ld	(hl),#0x10
   0591 21r1Dr01            700 	ld	hl,#(_alphabet + 0x0015)
   0594 36 10               701 	ld	(hl),#0x10
   0596 21r1Er01            702 	ld	hl,#(_alphabet + 0x0016)
   0599 36 10               703 	ld	(hl),#0x10
   059B 21r1Fr01            704 	ld	hl,#(_alphabet + 0x0017)
   059E 36 10               705 	ld	(hl),#0x10
   05A0 21r20r01            706 	ld	hl,#(_alphabet + 0x0018)
   05A3 36 10               707 	ld	(hl),#0x10
   05A5 21r21r01            708 	ld	hl,#(_alphabet + 0x0019)
   05A8 36 10               709 	ld	(hl),#0x10
   05AA 21r22r01            710 	ld	hl,#(_alphabet + 0x001a)
   05AD 36 10               711 	ld	(hl),#0x10
   05AF 21r23r01            712 	ld	hl,#(_alphabet + 0x001b)
   05B2 36 10               713 	ld	(hl),#0x10
   05B4 21r24r01            714 	ld	hl,#(_alphabet + 0x001c)
   05B7 36 7C               715 	ld	(hl),#0x7C
   05B9 21r25r01            716 	ld	hl,#(_alphabet + 0x001d)
   05BC 36 7C               717 	ld	(hl),#0x7C
   05BE 01r26r01            718 	ld	bc,#_alphabet + 30
   05C1 AF                  719 	xor	a, a
   05C2 02                  720 	ld	(bc),a
   05C3 01r27r01            721 	ld	bc,#_alphabet + 31
   05C6 AF                  722 	xor	a, a
   05C7 02                  723 	ld	(bc),a
   05C8 21r28r01            724 	ld	hl,#(_alphabet + 0x0020)
   05CB 36 7C               725 	ld	(hl),#0x7C
   05CD 21r29r01            726 	ld	hl,#(_alphabet + 0x0021)
   05D0 36 7C               727 	ld	(hl),#0x7C
   05D2 21r2Ar01            728 	ld	hl,#(_alphabet + 0x0022)
   05D5 36 82               729 	ld	(hl),#0x82
   05D7 21r2Br01            730 	ld	hl,#(_alphabet + 0x0023)
   05DA 36 82               731 	ld	(hl),#0x82
   05DC 21r2Cr01            732 	ld	hl,#(_alphabet + 0x0024)
   05DF 36 02               733 	ld	(hl),#0x02
   05E1 21r2Dr01            734 	ld	hl,#(_alphabet + 0x0025)
   05E4 36 02               735 	ld	(hl),#0x02
   05E6 21r2Er01            736 	ld	hl,#(_alphabet + 0x0026)
   05E9 36 0C               737 	ld	(hl),#0x0C
   05EB 21r2Fr01            738 	ld	hl,#(_alphabet + 0x0027)
   05EE 36 0C               739 	ld	(hl),#0x0C
   05F0 21r30r01            740 	ld	hl,#(_alphabet + 0x0028)
   05F3 36 30               741 	ld	(hl),#0x30
   05F5 21r31r01            742 	ld	hl,#(_alphabet + 0x0029)
   05F8 36 30               743 	ld	(hl),#0x30
   05FA 21r32r01            744 	ld	hl,#(_alphabet + 0x002a)
   05FD 36 40               745 	ld	(hl),#0x40
   05FF 21r33r01            746 	ld	hl,#(_alphabet + 0x002b)
   0602 36 40               747 	ld	(hl),#0x40
   0604 21r34r01            748 	ld	hl,#(_alphabet + 0x002c)
   0607 36 FE               749 	ld	(hl),#0xFE
   0609 21r35r01            750 	ld	hl,#(_alphabet + 0x002d)
   060C 36 FE               751 	ld	(hl),#0xFE
   060E 01r36r01            752 	ld	bc,#_alphabet + 46
   0611 AF                  753 	xor	a, a
   0612 02                  754 	ld	(bc),a
   0613 01r37r01            755 	ld	bc,#_alphabet + 47
   0616 AF                  756 	xor	a, a
   0617 02                  757 	ld	(bc),a
   0618 21r38r01            758 	ld	hl,#(_alphabet + 0x0030)
   061B 36 7C               759 	ld	(hl),#0x7C
   061D 21r39r01            760 	ld	hl,#(_alphabet + 0x0031)
   0620 36 7C               761 	ld	(hl),#0x7C
   0622 21r3Ar01            762 	ld	hl,#(_alphabet + 0x0032)
   0625 36 82               763 	ld	(hl),#0x82
   0627 21r3Br01            764 	ld	hl,#(_alphabet + 0x0033)
   062A 36 82               765 	ld	(hl),#0x82
   062C 21r3Cr01            766 	ld	hl,#(_alphabet + 0x0034)
   062F 36 02               767 	ld	(hl),#0x02
   0631 21r3Dr01            768 	ld	hl,#(_alphabet + 0x0035)
   0634 36 02               769 	ld	(hl),#0x02
   0636 21r3Er01            770 	ld	hl,#(_alphabet + 0x0036)
   0639 36 3C               771 	ld	(hl),#0x3C
   063B 21r3Fr01            772 	ld	hl,#(_alphabet + 0x0037)
   063E 36 3C               773 	ld	(hl),#0x3C
   0640 21r40r01            774 	ld	hl,#(_alphabet + 0x0038)
   0643 36 02               775 	ld	(hl),#0x02
   0645 21r41r01            776 	ld	hl,#(_alphabet + 0x0039)
   0648 36 02               777 	ld	(hl),#0x02
   064A 21r42r01            778 	ld	hl,#(_alphabet + 0x003a)
   064D 36 82               779 	ld	(hl),#0x82
   064F 21r43r01            780 	ld	hl,#(_alphabet + 0x003b)
   0652 36 82               781 	ld	(hl),#0x82
   0654 21r44r01            782 	ld	hl,#(_alphabet + 0x003c)
   0657 36 7C               783 	ld	(hl),#0x7C
   0659 21r45r01            784 	ld	hl,#(_alphabet + 0x003d)
   065C 36 7C               785 	ld	(hl),#0x7C
   065E 01r46r01            786 	ld	bc,#_alphabet + 62
   0661 AF                  787 	xor	a, a
   0662 02                  788 	ld	(bc),a
   0663 01r47r01            789 	ld	bc,#_alphabet + 63
   0666 AF                  790 	xor	a, a
   0667 02                  791 	ld	(bc),a
   0668 21r48r01            792 	ld	hl,#(_alphabet + 0x0040)
   066B 36 0C               793 	ld	(hl),#0x0C
   066D 21r49r01            794 	ld	hl,#(_alphabet + 0x0041)
   0670 36 0C               795 	ld	(hl),#0x0C
   0672 21r4Ar01            796 	ld	hl,#(_alphabet + 0x0042)
   0675 36 14               797 	ld	(hl),#0x14
   0677 21r4Br01            798 	ld	hl,#(_alphabet + 0x0043)
   067A 36 14               799 	ld	(hl),#0x14
   067C 21r4Cr01            800 	ld	hl,#(_alphabet + 0x0044)
   067F 36 24               801 	ld	(hl),#0x24
   0681 21r4Dr01            802 	ld	hl,#(_alphabet + 0x0045)
   0684 36 24               803 	ld	(hl),#0x24
   0686 21r4Er01            804 	ld	hl,#(_alphabet + 0x0046)
   0689 36 44               805 	ld	(hl),#0x44
   068B 21r4Fr01            806 	ld	hl,#(_alphabet + 0x0047)
   068E 36 44               807 	ld	(hl),#0x44
   0690 21r50r01            808 	ld	hl,#(_alphabet + 0x0048)
   0693 36 84               809 	ld	(hl),#0x84
   0695 21r51r01            810 	ld	hl,#(_alphabet + 0x0049)
   0698 36 84               811 	ld	(hl),#0x84
   069A 21r52r01            812 	ld	hl,#(_alphabet + 0x004a)
   069D 36 FE               813 	ld	(hl),#0xFE
   069F 21r53r01            814 	ld	hl,#(_alphabet + 0x004b)
   06A2 36 FE               815 	ld	(hl),#0xFE
   06A4 21r54r01            816 	ld	hl,#(_alphabet + 0x004c)
   06A7 36 04               817 	ld	(hl),#0x04
   06A9 21r55r01            818 	ld	hl,#(_alphabet + 0x004d)
   06AC 36 04               819 	ld	(hl),#0x04
   06AE 01r56r01            820 	ld	bc,#_alphabet + 78
   06B1 AF                  821 	xor	a, a
   06B2 02                  822 	ld	(bc),a
   06B3 01r57r01            823 	ld	bc,#_alphabet + 79
   06B6 AF                  824 	xor	a, a
   06B7 02                  825 	ld	(bc),a
   06B8 21r58r01            826 	ld	hl,#(_alphabet + 0x0050)
   06BB 36 FC               827 	ld	(hl),#0xFC
   06BD 21r59r01            828 	ld	hl,#(_alphabet + 0x0051)
   06C0 36 FC               829 	ld	(hl),#0xFC
   06C2 21r5Ar01            830 	ld	hl,#(_alphabet + 0x0052)
   06C5 36 80               831 	ld	(hl),#0x80
   06C7 21r5Br01            832 	ld	hl,#(_alphabet + 0x0053)
   06CA 36 80               833 	ld	(hl),#0x80
   06CC 21r5Cr01            834 	ld	hl,#(_alphabet + 0x0054)
   06CF 36 80               835 	ld	(hl),#0x80
   06D1 21r5Dr01            836 	ld	hl,#(_alphabet + 0x0055)
   06D4 36 80               837 	ld	(hl),#0x80
   06D6 21r5Er01            838 	ld	hl,#(_alphabet + 0x0056)
   06D9 36 FC               839 	ld	(hl),#0xFC
   06DB 21r5Fr01            840 	ld	hl,#(_alphabet + 0x0057)
   06DE 36 FC               841 	ld	(hl),#0xFC
   06E0 21r60r01            842 	ld	hl,#(_alphabet + 0x0058)
   06E3 36 02               843 	ld	(hl),#0x02
   06E5 21r61r01            844 	ld	hl,#(_alphabet + 0x0059)
   06E8 36 02               845 	ld	(hl),#0x02
   06EA 21r62r01            846 	ld	hl,#(_alphabet + 0x005a)
   06ED 36 82               847 	ld	(hl),#0x82
   06EF 21r63r01            848 	ld	hl,#(_alphabet + 0x005b)
   06F2 36 82               849 	ld	(hl),#0x82
   06F4 21r64r01            850 	ld	hl,#(_alphabet + 0x005c)
   06F7 36 7C               851 	ld	(hl),#0x7C
   06F9 21r65r01            852 	ld	hl,#(_alphabet + 0x005d)
   06FC 36 7C               853 	ld	(hl),#0x7C
   06FE 01r66r01            854 	ld	bc,#_alphabet + 94
   0701 AF                  855 	xor	a, a
   0702 02                  856 	ld	(bc),a
   0703 01r67r01            857 	ld	bc,#_alphabet + 95
   0706 AF                  858 	xor	a, a
   0707 02                  859 	ld	(bc),a
   0708 21r68r01            860 	ld	hl,#(_alphabet + 0x0060)
   070B 36 7C               861 	ld	(hl),#0x7C
   070D 21r69r01            862 	ld	hl,#(_alphabet + 0x0061)
   0710 36 7C               863 	ld	(hl),#0x7C
   0712 21r6Ar01            864 	ld	hl,#(_alphabet + 0x0062)
   0715 36 82               865 	ld	(hl),#0x82
   0717 21r6Br01            866 	ld	hl,#(_alphabet + 0x0063)
   071A 36 82               867 	ld	(hl),#0x82
   071C 21r6Cr01            868 	ld	hl,#(_alphabet + 0x0064)
   071F 36 80               869 	ld	(hl),#0x80
   0721 21r6Dr01            870 	ld	hl,#(_alphabet + 0x0065)
   0724 36 80               871 	ld	(hl),#0x80
   0726 21r6Er01            872 	ld	hl,#(_alphabet + 0x0066)
   0729 36 FC               873 	ld	(hl),#0xFC
   072B 21r6Fr01            874 	ld	hl,#(_alphabet + 0x0067)
   072E 36 FC               875 	ld	(hl),#0xFC
   0730 21r70r01            876 	ld	hl,#(_alphabet + 0x0068)
   0733 36 82               877 	ld	(hl),#0x82
   0735 21r71r01            878 	ld	hl,#(_alphabet + 0x0069)
   0738 36 82               879 	ld	(hl),#0x82
   073A 21r72r01            880 	ld	hl,#(_alphabet + 0x006a)
   073D 36 82               881 	ld	(hl),#0x82
   073F 21r73r01            882 	ld	hl,#(_alphabet + 0x006b)
   0742 36 82               883 	ld	(hl),#0x82
   0744 21r74r01            884 	ld	hl,#(_alphabet + 0x006c)
   0747 36 7C               885 	ld	(hl),#0x7C
   0749 21r75r01            886 	ld	hl,#(_alphabet + 0x006d)
   074C 36 7C               887 	ld	(hl),#0x7C
   074E 01r76r01            888 	ld	bc,#_alphabet + 110
   0751 AF                  889 	xor	a, a
   0752 02                  890 	ld	(bc),a
   0753 01r77r01            891 	ld	bc,#_alphabet + 111
   0756 AF                  892 	xor	a, a
   0757 02                  893 	ld	(bc),a
   0758 21r78r01            894 	ld	hl,#(_alphabet + 0x0070)
   075B 36 7E               895 	ld	(hl),#0x7E
   075D 21r79r01            896 	ld	hl,#(_alphabet + 0x0071)
   0760 36 7E               897 	ld	(hl),#0x7E
   0762 21r7Ar01            898 	ld	hl,#(_alphabet + 0x0072)
   0765 36 82               899 	ld	(hl),#0x82
   0767 21r7Br01            900 	ld	hl,#(_alphabet + 0x0073)
   076A 36 82               901 	ld	(hl),#0x82
   076C 21r7Cr01            902 	ld	hl,#(_alphabet + 0x0074)
   076F 36 02               903 	ld	(hl),#0x02
   0771 21r7Dr01            904 	ld	hl,#(_alphabet + 0x0075)
   0774 36 02               905 	ld	(hl),#0x02
   0776 21r7Er01            906 	ld	hl,#(_alphabet + 0x0076)
   0779 36 04               907 	ld	(hl),#0x04
   077B 21r7Fr01            908 	ld	hl,#(_alphabet + 0x0077)
   077E 36 04               909 	ld	(hl),#0x04
   0780 21r80r01            910 	ld	hl,#(_alphabet + 0x0078)
   0783 36 04               911 	ld	(hl),#0x04
   0785 21r81r01            912 	ld	hl,#(_alphabet + 0x0079)
   0788 36 04               913 	ld	(hl),#0x04
   078A 21r82r01            914 	ld	hl,#(_alphabet + 0x007a)
   078D 36 08               915 	ld	(hl),#0x08
   078F 21r83r01            916 	ld	hl,#(_alphabet + 0x007b)
   0792 36 08               917 	ld	(hl),#0x08
   0794 21r84r01            918 	ld	hl,#(_alphabet + 0x007c)
   0797 36 08               919 	ld	(hl),#0x08
   0799 21r85r01            920 	ld	hl,#(_alphabet + 0x007d)
   079C 36 08               921 	ld	(hl),#0x08
   079E 01r86r01            922 	ld	bc,#_alphabet + 126
   07A1 AF                  923 	xor	a, a
   07A2 02                  924 	ld	(bc),a
   07A3 01r87r01            925 	ld	bc,#_alphabet + 127
   07A6 AF                  926 	xor	a, a
   07A7 02                  927 	ld	(bc),a
   07A8 21r88r01            928 	ld	hl,#(_alphabet + 0x0080)
   07AB 36 7C               929 	ld	(hl),#0x7C
   07AD 21r89r01            930 	ld	hl,#(_alphabet + 0x0081)
   07B0 36 7C               931 	ld	(hl),#0x7C
   07B2 21r8Ar01            932 	ld	hl,#(_alphabet + 0x0082)
   07B5 36 82               933 	ld	(hl),#0x82
   07B7 21r8Br01            934 	ld	hl,#(_alphabet + 0x0083)
   07BA 36 82               935 	ld	(hl),#0x82
   07BC 21r8Cr01            936 	ld	hl,#(_alphabet + 0x0084)
   07BF 36 82               937 	ld	(hl),#0x82
   07C1 21r8Dr01            938 	ld	hl,#(_alphabet + 0x0085)
   07C4 36 82               939 	ld	(hl),#0x82
   07C6 21r8Er01            940 	ld	hl,#(_alphabet + 0x0086)
   07C9 36 7C               941 	ld	(hl),#0x7C
   07CB 21r8Fr01            942 	ld	hl,#(_alphabet + 0x0087)
   07CE 36 7C               943 	ld	(hl),#0x7C
   07D0 21r90r01            944 	ld	hl,#(_alphabet + 0x0088)
   07D3 36 82               945 	ld	(hl),#0x82
   07D5 21r91r01            946 	ld	hl,#(_alphabet + 0x0089)
   07D8 36 82               947 	ld	(hl),#0x82
   07DA 21r92r01            948 	ld	hl,#(_alphabet + 0x008a)
   07DD 36 82               949 	ld	(hl),#0x82
   07DF 21r93r01            950 	ld	hl,#(_alphabet + 0x008b)
   07E2 36 82               951 	ld	(hl),#0x82
   07E4 21r94r01            952 	ld	hl,#(_alphabet + 0x008c)
   07E7 36 7C               953 	ld	(hl),#0x7C
   07E9 21r95r01            954 	ld	hl,#(_alphabet + 0x008d)
   07EC 36 7C               955 	ld	(hl),#0x7C
   07EE 01r96r01            956 	ld	bc,#_alphabet + 142
   07F1 AF                  957 	xor	a, a
   07F2 02                  958 	ld	(bc),a
   07F3 01r97r01            959 	ld	bc,#_alphabet + 143
   07F6 AF                  960 	xor	a, a
   07F7 02                  961 	ld	(bc),a
   07F8 21r98r01            962 	ld	hl,#(_alphabet + 0x0090)
   07FB 36 7C               963 	ld	(hl),#0x7C
   07FD 21r99r01            964 	ld	hl,#(_alphabet + 0x0091)
   0800 36 7C               965 	ld	(hl),#0x7C
   0802 21r9Ar01            966 	ld	hl,#(_alphabet + 0x0092)
   0805 36 82               967 	ld	(hl),#0x82
   0807 21r9Br01            968 	ld	hl,#(_alphabet + 0x0093)
   080A 36 82               969 	ld	(hl),#0x82
   080C 21r9Cr01            970 	ld	hl,#(_alphabet + 0x0094)
   080F 36 82               971 	ld	(hl),#0x82
   0811 21r9Dr01            972 	ld	hl,#(_alphabet + 0x0095)
   0814 36 82               973 	ld	(hl),#0x82
   0816 21r9Er01            974 	ld	hl,#(_alphabet + 0x0096)
   0819 36 7E               975 	ld	(hl),#0x7E
   081B 21r9Fr01            976 	ld	hl,#(_alphabet + 0x0097)
   081E 36 7E               977 	ld	(hl),#0x7E
   0820 21rA0r01            978 	ld	hl,#(_alphabet + 0x0098)
   0823 36 02               979 	ld	(hl),#0x02
   0825 21rA1r01            980 	ld	hl,#(_alphabet + 0x0099)
   0828 36 02               981 	ld	(hl),#0x02
   082A 21rA2r01            982 	ld	hl,#(_alphabet + 0x009a)
   082D 36 82               983 	ld	(hl),#0x82
   082F 21rA3r01            984 	ld	hl,#(_alphabet + 0x009b)
   0832 36 82               985 	ld	(hl),#0x82
   0834 21rA4r01            986 	ld	hl,#(_alphabet + 0x009c)
   0837 36 7C               987 	ld	(hl),#0x7C
   0839 21rA5r01            988 	ld	hl,#(_alphabet + 0x009d)
   083C 36 7C               989 	ld	(hl),#0x7C
   083E 01rA6r01            990 	ld	bc,#_alphabet + 158
   0841 AF                  991 	xor	a, a
   0842 02                  992 	ld	(bc),a
   0843 01rA7r01            993 	ld	bc,#_alphabet + 159
   0846 AF                  994 	xor	a, a
   0847 02                  995 	ld	(bc),a
   0848 21rA8r01            996 	ld	hl,#(_alphabet + 0x00a0)
   084B 36 10               997 	ld	(hl),#0x10
   084D 21rA9r01            998 	ld	hl,#(_alphabet + 0x00a1)
   0850 36 10               999 	ld	(hl),#0x10
   0852 21rAAr01           1000 	ld	hl,#(_alphabet + 0x00a2)
   0855 36 28              1001 	ld	(hl),#0x28
   0857 21rABr01           1002 	ld	hl,#(_alphabet + 0x00a3)
   085A 36 28              1003 	ld	(hl),#0x28
   085C 21rACr01           1004 	ld	hl,#(_alphabet + 0x00a4)
   085F 36 28              1005 	ld	(hl),#0x28
   0861 21rADr01           1006 	ld	hl,#(_alphabet + 0x00a5)
   0864 36 28              1007 	ld	(hl),#0x28
   0866 21rAEr01           1008 	ld	hl,#(_alphabet + 0x00a6)
   0869 36 44              1009 	ld	(hl),#0x44
   086B 21rAFr01           1010 	ld	hl,#(_alphabet + 0x00a7)
   086E 36 44              1011 	ld	(hl),#0x44
   0870 21rB0r01           1012 	ld	hl,#(_alphabet + 0x00a8)
   0873 36 7C              1013 	ld	(hl),#0x7C
   0875 21rB1r01           1014 	ld	hl,#(_alphabet + 0x00a9)
   0878 36 7C              1015 	ld	(hl),#0x7C
   087A 21rB2r01           1016 	ld	hl,#(_alphabet + 0x00aa)
   087D 36 82              1017 	ld	(hl),#0x82
   087F 21rB3r01           1018 	ld	hl,#(_alphabet + 0x00ab)
   0882 36 82              1019 	ld	(hl),#0x82
   0884 21rB4r01           1020 	ld	hl,#(_alphabet + 0x00ac)
   0887 36 82              1021 	ld	(hl),#0x82
   0889 21rB5r01           1022 	ld	hl,#(_alphabet + 0x00ad)
   088C 36 82              1023 	ld	(hl),#0x82
   088E 01rB6r01           1024 	ld	bc,#_alphabet + 174
   0891 AF                 1025 	xor	a, a
   0892 02                 1026 	ld	(bc),a
   0893 01rB7r01           1027 	ld	bc,#_alphabet + 175
   0896 AF                 1028 	xor	a, a
   0897 02                 1029 	ld	(bc),a
   0898 21rB8r01           1030 	ld	hl,#(_alphabet + 0x00b0)
   089B 36 F8              1031 	ld	(hl),#0xF8
   089D 21rB9r01           1032 	ld	hl,#(_alphabet + 0x00b1)
   08A0 36 F8              1033 	ld	(hl),#0xF8
   08A2 21rBAr01           1034 	ld	hl,#(_alphabet + 0x00b2)
   08A5 36 84              1035 	ld	(hl),#0x84
   08A7 21rBBr01           1036 	ld	hl,#(_alphabet + 0x00b3)
   08AA 36 84              1037 	ld	(hl),#0x84
   08AC 21rBCr01           1038 	ld	hl,#(_alphabet + 0x00b4)
   08AF 36 84              1039 	ld	(hl),#0x84
   08B1 21rBDr01           1040 	ld	hl,#(_alphabet + 0x00b5)
   08B4 36 84              1041 	ld	(hl),#0x84
   08B6 21rBEr01           1042 	ld	hl,#(_alphabet + 0x00b6)
   08B9 36 FC              1043 	ld	(hl),#0xFC
   08BB 21rBFr01           1044 	ld	hl,#(_alphabet + 0x00b7)
   08BE 36 FC              1045 	ld	(hl),#0xFC
   08C0 21rC0r01           1046 	ld	hl,#(_alphabet + 0x00b8)
   08C3 36 82              1047 	ld	(hl),#0x82
   08C5 21rC1r01           1048 	ld	hl,#(_alphabet + 0x00b9)
   08C8 36 82              1049 	ld	(hl),#0x82
   08CA 21rC2r01           1050 	ld	hl,#(_alphabet + 0x00ba)
   08CD 36 82              1051 	ld	(hl),#0x82
   08CF 21rC3r01           1052 	ld	hl,#(_alphabet + 0x00bb)
   08D2 36 82              1053 	ld	(hl),#0x82
   08D4 21rC4r01           1054 	ld	hl,#(_alphabet + 0x00bc)
   08D7 36 FC              1055 	ld	(hl),#0xFC
   08D9 21rC5r01           1056 	ld	hl,#(_alphabet + 0x00bd)
   08DC 36 FC              1057 	ld	(hl),#0xFC
   08DE 01rC6r01           1058 	ld	bc,#_alphabet + 190
   08E1 AF                 1059 	xor	a, a
   08E2 02                 1060 	ld	(bc),a
   08E3 01rC7r01           1061 	ld	bc,#_alphabet + 191
   08E6 AF                 1062 	xor	a, a
   08E7 02                 1063 	ld	(bc),a
   08E8 21rC8r01           1064 	ld	hl,#(_alphabet + 0x00c0)
   08EB 36 3C              1065 	ld	(hl),#0x3C
   08ED 21rC9r01           1066 	ld	hl,#(_alphabet + 0x00c1)
   08F0 36 3C              1067 	ld	(hl),#0x3C
   08F2 21rCAr01           1068 	ld	hl,#(_alphabet + 0x00c2)
   08F5 36 42              1069 	ld	(hl),#0x42
   08F7 21rCBr01           1070 	ld	hl,#(_alphabet + 0x00c3)
   08FA 36 42              1071 	ld	(hl),#0x42
   08FC 21rCCr01           1072 	ld	hl,#(_alphabet + 0x00c4)
   08FF 36 80              1073 	ld	(hl),#0x80
   0901 21rCDr01           1074 	ld	hl,#(_alphabet + 0x00c5)
   0904 36 80              1075 	ld	(hl),#0x80
   0906 21rCEr01           1076 	ld	hl,#(_alphabet + 0x00c6)
   0909 36 80              1077 	ld	(hl),#0x80
   090B 21rCFr01           1078 	ld	hl,#(_alphabet + 0x00c7)
   090E 36 80              1079 	ld	(hl),#0x80
   0910 21rD0r01           1080 	ld	hl,#(_alphabet + 0x00c8)
   0913 36 80              1081 	ld	(hl),#0x80
   0915 21rD1r01           1082 	ld	hl,#(_alphabet + 0x00c9)
   0918 36 80              1083 	ld	(hl),#0x80
   091A 21rD2r01           1084 	ld	hl,#(_alphabet + 0x00ca)
   091D 36 42              1085 	ld	(hl),#0x42
   091F 21rD3r01           1086 	ld	hl,#(_alphabet + 0x00cb)
   0922 36 42              1087 	ld	(hl),#0x42
   0924 21rD4r01           1088 	ld	hl,#(_alphabet + 0x00cc)
   0927 36 3C              1089 	ld	(hl),#0x3C
   0929 21rD5r01           1090 	ld	hl,#(_alphabet + 0x00cd)
   092C 36 3C              1091 	ld	(hl),#0x3C
   092E 01rD6r01           1092 	ld	bc,#_alphabet + 206
   0931 AF                 1093 	xor	a, a
   0932 02                 1094 	ld	(bc),a
   0933 01rD7r01           1095 	ld	bc,#_alphabet + 207
   0936 AF                 1096 	xor	a, a
   0937 02                 1097 	ld	(bc),a
   0938 21rD8r01           1098 	ld	hl,#(_alphabet + 0x00d0)
   093B 36 F8              1099 	ld	(hl),#0xF8
   093D 21rD9r01           1100 	ld	hl,#(_alphabet + 0x00d1)
   0940 36 F8              1101 	ld	(hl),#0xF8
   0942 21rDAr01           1102 	ld	hl,#(_alphabet + 0x00d2)
   0945 36 84              1103 	ld	(hl),#0x84
   0947 21rDBr01           1104 	ld	hl,#(_alphabet + 0x00d3)
   094A 36 84              1105 	ld	(hl),#0x84
   094C 21rDCr01           1106 	ld	hl,#(_alphabet + 0x00d4)
   094F 36 82              1107 	ld	(hl),#0x82
   0951 21rDDr01           1108 	ld	hl,#(_alphabet + 0x00d5)
   0954 36 82              1109 	ld	(hl),#0x82
   0956 21rDEr01           1110 	ld	hl,#(_alphabet + 0x00d6)
   0959 36 82              1111 	ld	(hl),#0x82
   095B 21rDFr01           1112 	ld	hl,#(_alphabet + 0x00d7)
   095E 36 82              1113 	ld	(hl),#0x82
   0960 21rE0r01           1114 	ld	hl,#(_alphabet + 0x00d8)
   0963 36 82              1115 	ld	(hl),#0x82
   0965 21rE1r01           1116 	ld	hl,#(_alphabet + 0x00d9)
   0968 36 82              1117 	ld	(hl),#0x82
   096A 21rE2r01           1118 	ld	hl,#(_alphabet + 0x00da)
   096D 36 84              1119 	ld	(hl),#0x84
   096F 21rE3r01           1120 	ld	hl,#(_alphabet + 0x00db)
   0972 36 84              1121 	ld	(hl),#0x84
   0974 21rE4r01           1122 	ld	hl,#(_alphabet + 0x00dc)
   0977 36 F8              1123 	ld	(hl),#0xF8
   0979 21rE5r01           1124 	ld	hl,#(_alphabet + 0x00dd)
   097C 36 F8              1125 	ld	(hl),#0xF8
   097E 01rE6r01           1126 	ld	bc,#_alphabet + 222
   0981 AF                 1127 	xor	a, a
   0982 02                 1128 	ld	(bc),a
   0983 01rE7r01           1129 	ld	bc,#_alphabet + 223
   0986 AF                 1130 	xor	a, a
   0987 02                 1131 	ld	(bc),a
   0988 21rE8r01           1132 	ld	hl,#(_alphabet + 0x00e0)
   098B 36 FE              1133 	ld	(hl),#0xFE
   098D 21rE9r01           1134 	ld	hl,#(_alphabet + 0x00e1)
   0990 36 FE              1135 	ld	(hl),#0xFE
   0992 21rEAr01           1136 	ld	hl,#(_alphabet + 0x00e2)
   0995 36 80              1137 	ld	(hl),#0x80
   0997 21rEBr01           1138 	ld	hl,#(_alphabet + 0x00e3)
   099A 36 80              1139 	ld	(hl),#0x80
   099C 21rECr01           1140 	ld	hl,#(_alphabet + 0x00e4)
   099F 36 80              1141 	ld	(hl),#0x80
   09A1 21rEDr01           1142 	ld	hl,#(_alphabet + 0x00e5)
   09A4 36 80              1143 	ld	(hl),#0x80
   09A6 21rEEr01           1144 	ld	hl,#(_alphabet + 0x00e6)
   09A9 36 FC              1145 	ld	(hl),#0xFC
   09AB 21rEFr01           1146 	ld	hl,#(_alphabet + 0x00e7)
   09AE 36 FC              1147 	ld	(hl),#0xFC
   09B0 21rF0r01           1148 	ld	hl,#(_alphabet + 0x00e8)
   09B3 36 80              1149 	ld	(hl),#0x80
   09B5 21rF1r01           1150 	ld	hl,#(_alphabet + 0x00e9)
   09B8 36 80              1151 	ld	(hl),#0x80
   09BA 21rF2r01           1152 	ld	hl,#(_alphabet + 0x00ea)
   09BD 36 80              1153 	ld	(hl),#0x80
   09BF 21rF3r01           1154 	ld	hl,#(_alphabet + 0x00eb)
   09C2 36 80              1155 	ld	(hl),#0x80
   09C4 21rF4r01           1156 	ld	hl,#(_alphabet + 0x00ec)
   09C7 36 FE              1157 	ld	(hl),#0xFE
   09C9 21rF5r01           1158 	ld	hl,#(_alphabet + 0x00ed)
   09CC 36 FE              1159 	ld	(hl),#0xFE
   09CE 01rF6r01           1160 	ld	bc,#_alphabet + 238
   09D1 AF                 1161 	xor	a, a
   09D2 02                 1162 	ld	(bc),a
   09D3 01rF7r01           1163 	ld	bc,#_alphabet + 239
   09D6 AF                 1164 	xor	a, a
   09D7 02                 1165 	ld	(bc),a
   09D8 21rF8r01           1166 	ld	hl,#(_alphabet + 0x00f0)
   09DB 36 FE              1167 	ld	(hl),#0xFE
   09DD 21rF9r01           1168 	ld	hl,#(_alphabet + 0x00f1)
   09E0 36 FE              1169 	ld	(hl),#0xFE
   09E2 21rFAr01           1170 	ld	hl,#(_alphabet + 0x00f2)
   09E5 36 80              1171 	ld	(hl),#0x80
   09E7 21rFBr01           1172 	ld	hl,#(_alphabet + 0x00f3)
   09EA 36 80              1173 	ld	(hl),#0x80
   09EC 21rFCr01           1174 	ld	hl,#(_alphabet + 0x00f4)
   09EF 36 80              1175 	ld	(hl),#0x80
   09F1 21rFDr01           1176 	ld	hl,#(_alphabet + 0x00f5)
   09F4 36 80              1177 	ld	(hl),#0x80
   09F6 21rFEr01           1178 	ld	hl,#(_alphabet + 0x00f6)
   09F9 36 FC              1179 	ld	(hl),#0xFC
   09FB 21rFFr01           1180 	ld	hl,#(_alphabet + 0x00f7)
   09FE 36 FC              1181 	ld	(hl),#0xFC
   0A00 21r00r02           1182 	ld	hl,#(_alphabet + 0x00f8)
   0A03 36 80              1183 	ld	(hl),#0x80
   0A05 21r01r02           1184 	ld	hl,#(_alphabet + 0x00f9)
   0A08 36 80              1185 	ld	(hl),#0x80
   0A0A 21r02r02           1186 	ld	hl,#(_alphabet + 0x00fa)
   0A0D 36 80              1187 	ld	(hl),#0x80
   0A0F 21r03r02           1188 	ld	hl,#(_alphabet + 0x00fb)
   0A12 36 80              1189 	ld	(hl),#0x80
   0A14 21r04r02           1190 	ld	hl,#(_alphabet + 0x00fc)
   0A17 36 80              1191 	ld	(hl),#0x80
   0A19 21r05r02           1192 	ld	hl,#(_alphabet + 0x00fd)
   0A1C 36 80              1193 	ld	(hl),#0x80
   0A1E 01r06r02           1194 	ld	bc,#_alphabet + 254
   0A21 AF                 1195 	xor	a, a
   0A22 02                 1196 	ld	(bc),a
   0A23 01r07r02           1197 	ld	bc,#_alphabet + 255
   0A26 AF                 1198 	xor	a, a
   0A27 02                 1199 	ld	(bc),a
   0A28 21r08r02           1200 	ld	hl,#(_alphabet + 0x0100)
   0A2B 36 3C              1201 	ld	(hl),#0x3C
   0A2D 21r09r02           1202 	ld	hl,#(_alphabet + 0x0101)
   0A30 36 3C              1203 	ld	(hl),#0x3C
   0A32 21r0Ar02           1204 	ld	hl,#(_alphabet + 0x0102)
   0A35 36 42              1205 	ld	(hl),#0x42
   0A37 21r0Br02           1206 	ld	hl,#(_alphabet + 0x0103)
   0A3A 36 42              1207 	ld	(hl),#0x42
   0A3C 21r0Cr02           1208 	ld	hl,#(_alphabet + 0x0104)
   0A3F 36 80              1209 	ld	(hl),#0x80
   0A41 21r0Dr02           1210 	ld	hl,#(_alphabet + 0x0105)
   0A44 36 80              1211 	ld	(hl),#0x80
   0A46 21r0Er02           1212 	ld	hl,#(_alphabet + 0x0106)
   0A49 36 9E              1213 	ld	(hl),#0x9E
   0A4B 21r0Fr02           1214 	ld	hl,#(_alphabet + 0x0107)
   0A4E 36 9E              1215 	ld	(hl),#0x9E
   0A50 21r10r02           1216 	ld	hl,#(_alphabet + 0x0108)
   0A53 36 82              1217 	ld	(hl),#0x82
   0A55 21r11r02           1218 	ld	hl,#(_alphabet + 0x0109)
   0A58 36 82              1219 	ld	(hl),#0x82
   0A5A 21r12r02           1220 	ld	hl,#(_alphabet + 0x010a)
   0A5D 36 42              1221 	ld	(hl),#0x42
   0A5F 21r13r02           1222 	ld	hl,#(_alphabet + 0x010b)
   0A62 36 42              1223 	ld	(hl),#0x42
   0A64 21r14r02           1224 	ld	hl,#(_alphabet + 0x010c)
   0A67 36 3C              1225 	ld	(hl),#0x3C
   0A69 21r15r02           1226 	ld	hl,#(_alphabet + 0x010d)
   0A6C 36 3C              1227 	ld	(hl),#0x3C
   0A6E 01r16r02           1228 	ld	bc,#_alphabet + 270
   0A71 AF                 1229 	xor	a, a
   0A72 02                 1230 	ld	(bc),a
   0A73 01r17r02           1231 	ld	bc,#_alphabet + 271
   0A76 AF                 1232 	xor	a, a
   0A77 02                 1233 	ld	(bc),a
   0A78 21r18r02           1234 	ld	hl,#(_alphabet + 0x0110)
   0A7B 36 82              1235 	ld	(hl),#0x82
   0A7D 21r19r02           1236 	ld	hl,#(_alphabet + 0x0111)
   0A80 36 82              1237 	ld	(hl),#0x82
   0A82 21r1Ar02           1238 	ld	hl,#(_alphabet + 0x0112)
   0A85 36 82              1239 	ld	(hl),#0x82
   0A87 21r1Br02           1240 	ld	hl,#(_alphabet + 0x0113)
   0A8A 36 82              1241 	ld	(hl),#0x82
   0A8C 21r1Cr02           1242 	ld	hl,#(_alphabet + 0x0114)
   0A8F 36 82              1243 	ld	(hl),#0x82
   0A91 21r1Dr02           1244 	ld	hl,#(_alphabet + 0x0115)
   0A94 36 82              1245 	ld	(hl),#0x82
   0A96 21r1Er02           1246 	ld	hl,#(_alphabet + 0x0116)
   0A99 36 FE              1247 	ld	(hl),#0xFE
   0A9B 21r1Fr02           1248 	ld	hl,#(_alphabet + 0x0117)
   0A9E 36 FE              1249 	ld	(hl),#0xFE
   0AA0 21r20r02           1250 	ld	hl,#(_alphabet + 0x0118)
   0AA3 36 82              1251 	ld	(hl),#0x82
   0AA5 21r21r02           1252 	ld	hl,#(_alphabet + 0x0119)
   0AA8 36 82              1253 	ld	(hl),#0x82
   0AAA 21r22r02           1254 	ld	hl,#(_alphabet + 0x011a)
   0AAD 36 82              1255 	ld	(hl),#0x82
   0AAF 21r23r02           1256 	ld	hl,#(_alphabet + 0x011b)
   0AB2 36 82              1257 	ld	(hl),#0x82
   0AB4 21r24r02           1258 	ld	hl,#(_alphabet + 0x011c)
   0AB7 36 82              1259 	ld	(hl),#0x82
   0AB9 21r25r02           1260 	ld	hl,#(_alphabet + 0x011d)
   0ABC 36 82              1261 	ld	(hl),#0x82
   0ABE 01r26r02           1262 	ld	bc,#_alphabet + 286
   0AC1 AF                 1263 	xor	a, a
   0AC2 02                 1264 	ld	(bc),a
   0AC3 01r27r02           1265 	ld	bc,#_alphabet + 287
   0AC6 AF                 1266 	xor	a, a
   0AC7 02                 1267 	ld	(bc),a
   0AC8 21r28r02           1268 	ld	hl,#(_alphabet + 0x0120)
   0ACB 36 7C              1269 	ld	(hl),#0x7C
   0ACD 21r29r02           1270 	ld	hl,#(_alphabet + 0x0121)
   0AD0 36 7C              1271 	ld	(hl),#0x7C
   0AD2 21r2Ar02           1272 	ld	hl,#(_alphabet + 0x0122)
   0AD5 36 10              1273 	ld	(hl),#0x10
   0AD7 21r2Br02           1274 	ld	hl,#(_alphabet + 0x0123)
   0ADA 36 10              1275 	ld	(hl),#0x10
   0ADC 21r2Cr02           1276 	ld	hl,#(_alphabet + 0x0124)
   0ADF 36 10              1277 	ld	(hl),#0x10
   0AE1 21r2Dr02           1278 	ld	hl,#(_alphabet + 0x0125)
   0AE4 36 10              1279 	ld	(hl),#0x10
   0AE6 21r2Er02           1280 	ld	hl,#(_alphabet + 0x0126)
   0AE9 36 10              1281 	ld	(hl),#0x10
   0AEB 21r2Fr02           1282 	ld	hl,#(_alphabet + 0x0127)
   0AEE 36 10              1283 	ld	(hl),#0x10
   0AF0 21r30r02           1284 	ld	hl,#(_alphabet + 0x0128)
   0AF3 36 10              1285 	ld	(hl),#0x10
   0AF5 21r31r02           1286 	ld	hl,#(_alphabet + 0x0129)
   0AF8 36 10              1287 	ld	(hl),#0x10
   0AFA 21r32r02           1288 	ld	hl,#(_alphabet + 0x012a)
   0AFD 36 10              1289 	ld	(hl),#0x10
   0AFF 21r33r02           1290 	ld	hl,#(_alphabet + 0x012b)
   0B02 36 10              1291 	ld	(hl),#0x10
   0B04 21r34r02           1292 	ld	hl,#(_alphabet + 0x012c)
   0B07 36 7C              1293 	ld	(hl),#0x7C
   0B09 21r35r02           1294 	ld	hl,#(_alphabet + 0x012d)
   0B0C 36 7C              1295 	ld	(hl),#0x7C
   0B0E 01r36r02           1296 	ld	bc,#_alphabet + 302
   0B11 AF                 1297 	xor	a, a
   0B12 02                 1298 	ld	(bc),a
   0B13 01r37r02           1299 	ld	bc,#_alphabet + 303
   0B16 AF                 1300 	xor	a, a
   0B17 02                 1301 	ld	(bc),a
   0B18 21r38r02           1302 	ld	hl,#(_alphabet + 0x0130)
   0B1B 36 7E              1303 	ld	(hl),#0x7E
   0B1D 21r39r02           1304 	ld	hl,#(_alphabet + 0x0131)
   0B20 36 7E              1305 	ld	(hl),#0x7E
   0B22 21r3Ar02           1306 	ld	hl,#(_alphabet + 0x0132)
   0B25 36 08              1307 	ld	(hl),#0x08
   0B27 21r3Br02           1308 	ld	hl,#(_alphabet + 0x0133)
   0B2A 36 08              1309 	ld	(hl),#0x08
   0B2C 21r3Cr02           1310 	ld	hl,#(_alphabet + 0x0134)
   0B2F 36 08              1311 	ld	(hl),#0x08
   0B31 21r3Dr02           1312 	ld	hl,#(_alphabet + 0x0135)
   0B34 36 08              1313 	ld	(hl),#0x08
   0B36 21r3Er02           1314 	ld	hl,#(_alphabet + 0x0136)
   0B39 36 08              1315 	ld	(hl),#0x08
   0B3B 21r3Fr02           1316 	ld	hl,#(_alphabet + 0x0137)
   0B3E 36 08              1317 	ld	(hl),#0x08
   0B40 21r40r02           1318 	ld	hl,#(_alphabet + 0x0138)
   0B43 36 88              1319 	ld	(hl),#0x88
   0B45 21r41r02           1320 	ld	hl,#(_alphabet + 0x0139)
   0B48 36 88              1321 	ld	(hl),#0x88
   0B4A 21r42r02           1322 	ld	hl,#(_alphabet + 0x013a)
   0B4D 36 88              1323 	ld	(hl),#0x88
   0B4F 21r43r02           1324 	ld	hl,#(_alphabet + 0x013b)
   0B52 36 88              1325 	ld	(hl),#0x88
   0B54 21r44r02           1326 	ld	hl,#(_alphabet + 0x013c)
   0B57 36 70              1327 	ld	(hl),#0x70
   0B59 21r45r02           1328 	ld	hl,#(_alphabet + 0x013d)
   0B5C 36 70              1329 	ld	(hl),#0x70
   0B5E 01r46r02           1330 	ld	bc,#_alphabet + 318
   0B61 AF                 1331 	xor	a, a
   0B62 02                 1332 	ld	(bc),a
   0B63 01r47r02           1333 	ld	bc,#_alphabet + 319
   0B66 AF                 1334 	xor	a, a
   0B67 02                 1335 	ld	(bc),a
   0B68 21r48r02           1336 	ld	hl,#(_alphabet + 0x0140)
   0B6B 36 84              1337 	ld	(hl),#0x84
   0B6D 21r49r02           1338 	ld	hl,#(_alphabet + 0x0141)
   0B70 36 84              1339 	ld	(hl),#0x84
   0B72 21r4Ar02           1340 	ld	hl,#(_alphabet + 0x0142)
   0B75 36 88              1341 	ld	(hl),#0x88
   0B77 21r4Br02           1342 	ld	hl,#(_alphabet + 0x0143)
   0B7A 36 88              1343 	ld	(hl),#0x88
   0B7C 21r4Cr02           1344 	ld	hl,#(_alphabet + 0x0144)
   0B7F 36 90              1345 	ld	(hl),#0x90
   0B81 21r4Dr02           1346 	ld	hl,#(_alphabet + 0x0145)
   0B84 36 90              1347 	ld	(hl),#0x90
   0B86 21r4Er02           1348 	ld	hl,#(_alphabet + 0x0146)
   0B89 36 B0              1349 	ld	(hl),#0xB0
   0B8B 21r4Fr02           1350 	ld	hl,#(_alphabet + 0x0147)
   0B8E 36 B0              1351 	ld	(hl),#0xB0
   0B90 21r50r02           1352 	ld	hl,#(_alphabet + 0x0148)
   0B93 36 C8              1353 	ld	(hl),#0xC8
   0B95 21r51r02           1354 	ld	hl,#(_alphabet + 0x0149)
   0B98 36 C8              1355 	ld	(hl),#0xC8
   0B9A 21r52r02           1356 	ld	hl,#(_alphabet + 0x014a)
   0B9D 36 84              1357 	ld	(hl),#0x84
   0B9F 21r53r02           1358 	ld	hl,#(_alphabet + 0x014b)
   0BA2 36 84              1359 	ld	(hl),#0x84
   0BA4 21r54r02           1360 	ld	hl,#(_alphabet + 0x014c)
   0BA7 36 82              1361 	ld	(hl),#0x82
   0BA9 21r55r02           1362 	ld	hl,#(_alphabet + 0x014d)
   0BAC 36 82              1363 	ld	(hl),#0x82
   0BAE 01r56r02           1364 	ld	bc,#_alphabet + 334
   0BB1 AF                 1365 	xor	a, a
   0BB2 02                 1366 	ld	(bc),a
   0BB3 01r57r02           1367 	ld	bc,#_alphabet + 335
   0BB6 AF                 1368 	xor	a, a
   0BB7 02                 1369 	ld	(bc),a
   0BB8 21r58r02           1370 	ld	hl,#(_alphabet + 0x0150)
   0BBB 36 80              1371 	ld	(hl),#0x80
   0BBD 21r59r02           1372 	ld	hl,#(_alphabet + 0x0151)
   0BC0 36 80              1373 	ld	(hl),#0x80
   0BC2 21r5Ar02           1374 	ld	hl,#(_alphabet + 0x0152)
   0BC5 36 80              1375 	ld	(hl),#0x80
   0BC7 21r5Br02           1376 	ld	hl,#(_alphabet + 0x0153)
   0BCA 36 80              1377 	ld	(hl),#0x80
   0BCC 21r5Cr02           1378 	ld	hl,#(_alphabet + 0x0154)
   0BCF 36 80              1379 	ld	(hl),#0x80
   0BD1 21r5Dr02           1380 	ld	hl,#(_alphabet + 0x0155)
   0BD4 36 80              1381 	ld	(hl),#0x80
   0BD6 21r5Er02           1382 	ld	hl,#(_alphabet + 0x0156)
   0BD9 36 80              1383 	ld	(hl),#0x80
   0BDB 21r5Fr02           1384 	ld	hl,#(_alphabet + 0x0157)
   0BDE 36 80              1385 	ld	(hl),#0x80
   0BE0 21r60r02           1386 	ld	hl,#(_alphabet + 0x0158)
   0BE3 36 80              1387 	ld	(hl),#0x80
   0BE5 21r61r02           1388 	ld	hl,#(_alphabet + 0x0159)
   0BE8 36 80              1389 	ld	(hl),#0x80
   0BEA 21r62r02           1390 	ld	hl,#(_alphabet + 0x015a)
   0BED 36 80              1391 	ld	(hl),#0x80
   0BEF 21r63r02           1392 	ld	hl,#(_alphabet + 0x015b)
   0BF2 36 80              1393 	ld	(hl),#0x80
   0BF4 21r64r02           1394 	ld	hl,#(_alphabet + 0x015c)
   0BF7 36 FE              1395 	ld	(hl),#0xFE
   0BF9 21r65r02           1396 	ld	hl,#(_alphabet + 0x015d)
   0BFC 36 FE              1397 	ld	(hl),#0xFE
   0BFE 01r66r02           1398 	ld	bc,#_alphabet + 350
   0C01 AF                 1399 	xor	a, a
   0C02 02                 1400 	ld	(bc),a
   0C03 01r67r02           1401 	ld	bc,#_alphabet + 351
   0C06 AF                 1402 	xor	a, a
   0C07 02                 1403 	ld	(bc),a
   0C08 21r68r02           1404 	ld	hl,#(_alphabet + 0x0160)
   0C0B 36 82              1405 	ld	(hl),#0x82
   0C0D 21r69r02           1406 	ld	hl,#(_alphabet + 0x0161)
   0C10 36 82              1407 	ld	(hl),#0x82
   0C12 21r6Ar02           1408 	ld	hl,#(_alphabet + 0x0162)
   0C15 36 C6              1409 	ld	(hl),#0xC6
   0C17 21r6Br02           1410 	ld	hl,#(_alphabet + 0x0163)
   0C1A 36 C6              1411 	ld	(hl),#0xC6
   0C1C 21r6Cr02           1412 	ld	hl,#(_alphabet + 0x0164)
   0C1F 36 AA              1413 	ld	(hl),#0xAA
   0C21 21r6Dr02           1414 	ld	hl,#(_alphabet + 0x0165)
   0C24 36 AA              1415 	ld	(hl),#0xAA
   0C26 21r6Er02           1416 	ld	hl,#(_alphabet + 0x0166)
   0C29 36 92              1417 	ld	(hl),#0x92
   0C2B 21r6Fr02           1418 	ld	hl,#(_alphabet + 0x0167)
   0C2E 36 92              1419 	ld	(hl),#0x92
   0C30 21r70r02           1420 	ld	hl,#(_alphabet + 0x0168)
   0C33 36 82              1421 	ld	(hl),#0x82
   0C35 21r71r02           1422 	ld	hl,#(_alphabet + 0x0169)
   0C38 36 82              1423 	ld	(hl),#0x82
   0C3A 21r72r02           1424 	ld	hl,#(_alphabet + 0x016a)
   0C3D 36 82              1425 	ld	(hl),#0x82
   0C3F 21r73r02           1426 	ld	hl,#(_alphabet + 0x016b)
   0C42 36 82              1427 	ld	(hl),#0x82
   0C44 21r74r02           1428 	ld	hl,#(_alphabet + 0x016c)
   0C47 36 82              1429 	ld	(hl),#0x82
   0C49 21r75r02           1430 	ld	hl,#(_alphabet + 0x016d)
   0C4C 36 82              1431 	ld	(hl),#0x82
   0C4E 01r76r02           1432 	ld	bc,#_alphabet + 366
   0C51 AF                 1433 	xor	a, a
   0C52 02                 1434 	ld	(bc),a
   0C53 01r77r02           1435 	ld	bc,#_alphabet + 367
   0C56 AF                 1436 	xor	a, a
   0C57 02                 1437 	ld	(bc),a
   0C58 21r78r02           1438 	ld	hl,#(_alphabet + 0x0170)
   0C5B 36 82              1439 	ld	(hl),#0x82
   0C5D 21r79r02           1440 	ld	hl,#(_alphabet + 0x0171)
   0C60 36 82              1441 	ld	(hl),#0x82
   0C62 21r7Ar02           1442 	ld	hl,#(_alphabet + 0x0172)
   0C65 36 C2              1443 	ld	(hl),#0xC2
   0C67 21r7Br02           1444 	ld	hl,#(_alphabet + 0x0173)
   0C6A 36 C2              1445 	ld	(hl),#0xC2
   0C6C 21r7Cr02           1446 	ld	hl,#(_alphabet + 0x0174)
   0C6F 36 A2              1447 	ld	(hl),#0xA2
   0C71 21r7Dr02           1448 	ld	hl,#(_alphabet + 0x0175)
   0C74 36 A2              1449 	ld	(hl),#0xA2
   0C76 21r7Er02           1450 	ld	hl,#(_alphabet + 0x0176)
   0C79 36 92              1451 	ld	(hl),#0x92
   0C7B 21r7Fr02           1452 	ld	hl,#(_alphabet + 0x0177)
   0C7E 36 92              1453 	ld	(hl),#0x92
   0C80 21r80r02           1454 	ld	hl,#(_alphabet + 0x0178)
   0C83 36 8A              1455 	ld	(hl),#0x8A
   0C85 21r81r02           1456 	ld	hl,#(_alphabet + 0x0179)
   0C88 36 8A              1457 	ld	(hl),#0x8A
   0C8A 21r82r02           1458 	ld	hl,#(_alphabet + 0x017a)
   0C8D 36 86              1459 	ld	(hl),#0x86
   0C8F 21r83r02           1460 	ld	hl,#(_alphabet + 0x017b)
   0C92 36 86              1461 	ld	(hl),#0x86
   0C94 21r84r02           1462 	ld	hl,#(_alphabet + 0x017c)
   0C97 36 82              1463 	ld	(hl),#0x82
   0C99 21r85r02           1464 	ld	hl,#(_alphabet + 0x017d)
   0C9C 36 82              1465 	ld	(hl),#0x82
   0C9E 01r86r02           1466 	ld	bc,#_alphabet + 382
   0CA1 AF                 1467 	xor	a, a
   0CA2 02                 1468 	ld	(bc),a
   0CA3 01r87r02           1469 	ld	bc,#_alphabet + 383
   0CA6 AF                 1470 	xor	a, a
   0CA7 02                 1471 	ld	(bc),a
   0CA8 21r88r02           1472 	ld	hl,#(_alphabet + 0x0180)
   0CAB 36 38              1473 	ld	(hl),#0x38
   0CAD 21r89r02           1474 	ld	hl,#(_alphabet + 0x0181)
   0CB0 36 38              1475 	ld	(hl),#0x38
   0CB2 21r8Ar02           1476 	ld	hl,#(_alphabet + 0x0182)
   0CB5 36 44              1477 	ld	(hl),#0x44
   0CB7 21r8Br02           1478 	ld	hl,#(_alphabet + 0x0183)
   0CBA 36 44              1479 	ld	(hl),#0x44
   0CBC 21r8Cr02           1480 	ld	hl,#(_alphabet + 0x0184)
   0CBF 36 82              1481 	ld	(hl),#0x82
   0CC1 21r8Dr02           1482 	ld	hl,#(_alphabet + 0x0185)
   0CC4 36 82              1483 	ld	(hl),#0x82
   0CC6 21r8Er02           1484 	ld	hl,#(_alphabet + 0x0186)
   0CC9 36 82              1485 	ld	(hl),#0x82
   0CCB 21r8Fr02           1486 	ld	hl,#(_alphabet + 0x0187)
   0CCE 36 82              1487 	ld	(hl),#0x82
   0CD0 21r90r02           1488 	ld	hl,#(_alphabet + 0x0188)
   0CD3 36 82              1489 	ld	(hl),#0x82
   0CD5 21r91r02           1490 	ld	hl,#(_alphabet + 0x0189)
   0CD8 36 82              1491 	ld	(hl),#0x82
   0CDA 21r92r02           1492 	ld	hl,#(_alphabet + 0x018a)
   0CDD 36 44              1493 	ld	(hl),#0x44
   0CDF 21r93r02           1494 	ld	hl,#(_alphabet + 0x018b)
   0CE2 36 44              1495 	ld	(hl),#0x44
   0CE4 21r94r02           1496 	ld	hl,#(_alphabet + 0x018c)
   0CE7 36 38              1497 	ld	(hl),#0x38
   0CE9 21r95r02           1498 	ld	hl,#(_alphabet + 0x018d)
   0CEC 36 38              1499 	ld	(hl),#0x38
   0CEE 01r96r02           1500 	ld	bc,#_alphabet + 398
   0CF1 AF                 1501 	xor	a, a
   0CF2 02                 1502 	ld	(bc),a
   0CF3 01r97r02           1503 	ld	bc,#_alphabet + 399
   0CF6 AF                 1504 	xor	a, a
   0CF7 02                 1505 	ld	(bc),a
   0CF8 21r98r02           1506 	ld	hl,#(_alphabet + 0x0190)
   0CFB 36 FC              1507 	ld	(hl),#0xFC
   0CFD 21r99r02           1508 	ld	hl,#(_alphabet + 0x0191)
   0D00 36 FC              1509 	ld	(hl),#0xFC
   0D02 21r9Ar02           1510 	ld	hl,#(_alphabet + 0x0192)
   0D05 36 82              1511 	ld	(hl),#0x82
   0D07 21r9Br02           1512 	ld	hl,#(_alphabet + 0x0193)
   0D0A 36 82              1513 	ld	(hl),#0x82
   0D0C 21r9Cr02           1514 	ld	hl,#(_alphabet + 0x0194)
   0D0F 36 82              1515 	ld	(hl),#0x82
   0D11 21r9Dr02           1516 	ld	hl,#(_alphabet + 0x0195)
   0D14 36 82              1517 	ld	(hl),#0x82
   0D16 21r9Er02           1518 	ld	hl,#(_alphabet + 0x0196)
   0D19 36 FC              1519 	ld	(hl),#0xFC
   0D1B 21r9Fr02           1520 	ld	hl,#(_alphabet + 0x0197)
   0D1E 36 FC              1521 	ld	(hl),#0xFC
   0D20 21rA0r02           1522 	ld	hl,#(_alphabet + 0x0198)
   0D23 36 80              1523 	ld	(hl),#0x80
   0D25 21rA1r02           1524 	ld	hl,#(_alphabet + 0x0199)
   0D28 36 80              1525 	ld	(hl),#0x80
   0D2A 21rA2r02           1526 	ld	hl,#(_alphabet + 0x019a)
   0D2D 36 80              1527 	ld	(hl),#0x80
   0D2F 21rA3r02           1528 	ld	hl,#(_alphabet + 0x019b)
   0D32 36 80              1529 	ld	(hl),#0x80
   0D34 21rA4r02           1530 	ld	hl,#(_alphabet + 0x019c)
   0D37 36 80              1531 	ld	(hl),#0x80
   0D39 21rA5r02           1532 	ld	hl,#(_alphabet + 0x019d)
   0D3C 36 80              1533 	ld	(hl),#0x80
   0D3E 01rA6r02           1534 	ld	bc,#_alphabet + 414
   0D41 AF                 1535 	xor	a, a
   0D42 02                 1536 	ld	(bc),a
   0D43 01rA7r02           1537 	ld	bc,#_alphabet + 415
   0D46 AF                 1538 	xor	a, a
   0D47 02                 1539 	ld	(bc),a
   0D48 21rA8r02           1540 	ld	hl,#(_alphabet + 0x01a0)
   0D4B 36 38              1541 	ld	(hl),#0x38
   0D4D 21rA9r02           1542 	ld	hl,#(_alphabet + 0x01a1)
   0D50 36 38              1543 	ld	(hl),#0x38
   0D52 21rAAr02           1544 	ld	hl,#(_alphabet + 0x01a2)
   0D55 36 44              1545 	ld	(hl),#0x44
   0D57 21rABr02           1546 	ld	hl,#(_alphabet + 0x01a3)
   0D5A 36 44              1547 	ld	(hl),#0x44
   0D5C 21rACr02           1548 	ld	hl,#(_alphabet + 0x01a4)
   0D5F 36 82              1549 	ld	(hl),#0x82
   0D61 21rADr02           1550 	ld	hl,#(_alphabet + 0x01a5)
   0D64 36 82              1551 	ld	(hl),#0x82
   0D66 21rAEr02           1552 	ld	hl,#(_alphabet + 0x01a6)
   0D69 36 82              1553 	ld	(hl),#0x82
   0D6B 21rAFr02           1554 	ld	hl,#(_alphabet + 0x01a7)
   0D6E 36 82              1555 	ld	(hl),#0x82
   0D70 21rB0r02           1556 	ld	hl,#(_alphabet + 0x01a8)
   0D73 36 8A              1557 	ld	(hl),#0x8A
   0D75 21rB1r02           1558 	ld	hl,#(_alphabet + 0x01a9)
   0D78 36 8A              1559 	ld	(hl),#0x8A
   0D7A 21rB2r02           1560 	ld	hl,#(_alphabet + 0x01aa)
   0D7D 36 44              1561 	ld	(hl),#0x44
   0D7F 21rB3r02           1562 	ld	hl,#(_alphabet + 0x01ab)
   0D82 36 44              1563 	ld	(hl),#0x44
   0D84 21rB4r02           1564 	ld	hl,#(_alphabet + 0x01ac)
   0D87 36 3A              1565 	ld	(hl),#0x3A
   0D89 21rB5r02           1566 	ld	hl,#(_alphabet + 0x01ad)
   0D8C 36 3A              1567 	ld	(hl),#0x3A
   0D8E 01rB6r02           1568 	ld	bc,#_alphabet + 430
   0D91 AF                 1569 	xor	a, a
   0D92 02                 1570 	ld	(bc),a
   0D93 01rB7r02           1571 	ld	bc,#_alphabet + 431
   0D96 AF                 1572 	xor	a, a
   0D97 02                 1573 	ld	(bc),a
   0D98 21rB8r02           1574 	ld	hl,#(_alphabet + 0x01b0)
   0D9B 36 FC              1575 	ld	(hl),#0xFC
   0D9D 21rB9r02           1576 	ld	hl,#(_alphabet + 0x01b1)
   0DA0 36 FC              1577 	ld	(hl),#0xFC
   0DA2 21rBAr02           1578 	ld	hl,#(_alphabet + 0x01b2)
   0DA5 36 82              1579 	ld	(hl),#0x82
   0DA7 21rBBr02           1580 	ld	hl,#(_alphabet + 0x01b3)
   0DAA 36 82              1581 	ld	(hl),#0x82
   0DAC 21rBCr02           1582 	ld	hl,#(_alphabet + 0x01b4)
   0DAF 36 82              1583 	ld	(hl),#0x82
   0DB1 21rBDr02           1584 	ld	hl,#(_alphabet + 0x01b5)
   0DB4 36 82              1585 	ld	(hl),#0x82
   0DB6 21rBEr02           1586 	ld	hl,#(_alphabet + 0x01b6)
   0DB9 36 FC              1587 	ld	(hl),#0xFC
   0DBB 21rBFr02           1588 	ld	hl,#(_alphabet + 0x01b7)
   0DBE 36 FC              1589 	ld	(hl),#0xFC
   0DC0 21rC0r02           1590 	ld	hl,#(_alphabet + 0x01b8)
   0DC3 36 88              1591 	ld	(hl),#0x88
   0DC5 21rC1r02           1592 	ld	hl,#(_alphabet + 0x01b9)
   0DC8 36 88              1593 	ld	(hl),#0x88
   0DCA 21rC2r02           1594 	ld	hl,#(_alphabet + 0x01ba)
   0DCD 36 84              1595 	ld	(hl),#0x84
   0DCF 21rC3r02           1596 	ld	hl,#(_alphabet + 0x01bb)
   0DD2 36 84              1597 	ld	(hl),#0x84
   0DD4 21rC4r02           1598 	ld	hl,#(_alphabet + 0x01bc)
   0DD7 36 82              1599 	ld	(hl),#0x82
   0DD9 21rC5r02           1600 	ld	hl,#(_alphabet + 0x01bd)
   0DDC 36 82              1601 	ld	(hl),#0x82
   0DDE 01rC6r02           1602 	ld	bc,#_alphabet + 446
   0DE1 AF                 1603 	xor	a, a
   0DE2 02                 1604 	ld	(bc),a
   0DE3 01rC7r02           1605 	ld	bc,#_alphabet + 447
   0DE6 AF                 1606 	xor	a, a
   0DE7 02                 1607 	ld	(bc),a
   0DE8 21rC8r02           1608 	ld	hl,#(_alphabet + 0x01c0)
   0DEB 36 78              1609 	ld	(hl),#0x78
   0DED 21rC9r02           1610 	ld	hl,#(_alphabet + 0x01c1)
   0DF0 36 78              1611 	ld	(hl),#0x78
   0DF2 21rCAr02           1612 	ld	hl,#(_alphabet + 0x01c2)
   0DF5 36 84              1613 	ld	(hl),#0x84
   0DF7 21rCBr02           1614 	ld	hl,#(_alphabet + 0x01c3)
   0DFA 36 84              1615 	ld	(hl),#0x84
   0DFC 21rCCr02           1616 	ld	hl,#(_alphabet + 0x01c4)
   0DFF 36 80              1617 	ld	(hl),#0x80
   0E01 21rCDr02           1618 	ld	hl,#(_alphabet + 0x01c5)
   0E04 36 80              1619 	ld	(hl),#0x80
   0E06 21rCEr02           1620 	ld	hl,#(_alphabet + 0x01c6)
   0E09 36 7C              1621 	ld	(hl),#0x7C
   0E0B 21rCFr02           1622 	ld	hl,#(_alphabet + 0x01c7)
   0E0E 36 7C              1623 	ld	(hl),#0x7C
   0E10 21rD0r02           1624 	ld	hl,#(_alphabet + 0x01c8)
   0E13 36 02              1625 	ld	(hl),#0x02
   0E15 21rD1r02           1626 	ld	hl,#(_alphabet + 0x01c9)
   0E18 36 02              1627 	ld	(hl),#0x02
   0E1A 21rD2r02           1628 	ld	hl,#(_alphabet + 0x01ca)
   0E1D 36 82              1629 	ld	(hl),#0x82
   0E1F 21rD3r02           1630 	ld	hl,#(_alphabet + 0x01cb)
   0E22 36 82              1631 	ld	(hl),#0x82
   0E24 21rD4r02           1632 	ld	hl,#(_alphabet + 0x01cc)
   0E27 36 7C              1633 	ld	(hl),#0x7C
   0E29 21rD5r02           1634 	ld	hl,#(_alphabet + 0x01cd)
   0E2C 36 7C              1635 	ld	(hl),#0x7C
   0E2E 01rD6r02           1636 	ld	bc,#_alphabet + 462
   0E31 AF                 1637 	xor	a, a
   0E32 02                 1638 	ld	(bc),a
   0E33 01rD7r02           1639 	ld	bc,#_alphabet + 463
   0E36 AF                 1640 	xor	a, a
   0E37 02                 1641 	ld	(bc),a
   0E38 21rD8r02           1642 	ld	hl,#(_alphabet + 0x01d0)
   0E3B 36 FE              1643 	ld	(hl),#0xFE
   0E3D 21rD9r02           1644 	ld	hl,#(_alphabet + 0x01d1)
   0E40 36 FE              1645 	ld	(hl),#0xFE
   0E42 21rDAr02           1646 	ld	hl,#(_alphabet + 0x01d2)
   0E45 36 10              1647 	ld	(hl),#0x10
   0E47 21rDBr02           1648 	ld	hl,#(_alphabet + 0x01d3)
   0E4A 36 10              1649 	ld	(hl),#0x10
   0E4C 21rDCr02           1650 	ld	hl,#(_alphabet + 0x01d4)
   0E4F 36 10              1651 	ld	(hl),#0x10
   0E51 21rDDr02           1652 	ld	hl,#(_alphabet + 0x01d5)
   0E54 36 10              1653 	ld	(hl),#0x10
   0E56 21rDEr02           1654 	ld	hl,#(_alphabet + 0x01d6)
   0E59 36 10              1655 	ld	(hl),#0x10
   0E5B 21rDFr02           1656 	ld	hl,#(_alphabet + 0x01d7)
   0E5E 36 10              1657 	ld	(hl),#0x10
   0E60 21rE0r02           1658 	ld	hl,#(_alphabet + 0x01d8)
   0E63 36 10              1659 	ld	(hl),#0x10
   0E65 21rE1r02           1660 	ld	hl,#(_alphabet + 0x01d9)
   0E68 36 10              1661 	ld	(hl),#0x10
   0E6A 21rE2r02           1662 	ld	hl,#(_alphabet + 0x01da)
   0E6D 36 10              1663 	ld	(hl),#0x10
   0E6F 21rE3r02           1664 	ld	hl,#(_alphabet + 0x01db)
   0E72 36 10              1665 	ld	(hl),#0x10
   0E74 21rE4r02           1666 	ld	hl,#(_alphabet + 0x01dc)
   0E77 36 10              1667 	ld	(hl),#0x10
   0E79 21rE5r02           1668 	ld	hl,#(_alphabet + 0x01dd)
   0E7C 36 10              1669 	ld	(hl),#0x10
   0E7E 01rE6r02           1670 	ld	bc,#_alphabet + 478
   0E81 AF                 1671 	xor	a, a
   0E82 02                 1672 	ld	(bc),a
   0E83 01rE7r02           1673 	ld	bc,#_alphabet + 479
   0E86 AF                 1674 	xor	a, a
   0E87 02                 1675 	ld	(bc),a
   0E88 21rE8r02           1676 	ld	hl,#(_alphabet + 0x01e0)
   0E8B 36 82              1677 	ld	(hl),#0x82
   0E8D 21rE9r02           1678 	ld	hl,#(_alphabet + 0x01e1)
   0E90 36 82              1679 	ld	(hl),#0x82
   0E92 21rEAr02           1680 	ld	hl,#(_alphabet + 0x01e2)
   0E95 36 82              1681 	ld	(hl),#0x82
   0E97 21rEBr02           1682 	ld	hl,#(_alphabet + 0x01e3)
   0E9A 36 82              1683 	ld	(hl),#0x82
   0E9C 21rECr02           1684 	ld	hl,#(_alphabet + 0x01e4)
   0E9F 36 82              1685 	ld	(hl),#0x82
   0EA1 21rEDr02           1686 	ld	hl,#(_alphabet + 0x01e5)
   0EA4 36 82              1687 	ld	(hl),#0x82
   0EA6 21rEEr02           1688 	ld	hl,#(_alphabet + 0x01e6)
   0EA9 36 82              1689 	ld	(hl),#0x82
   0EAB 21rEFr02           1690 	ld	hl,#(_alphabet + 0x01e7)
   0EAE 36 82              1691 	ld	(hl),#0x82
   0EB0 21rF0r02           1692 	ld	hl,#(_alphabet + 0x01e8)
   0EB3 36 82              1693 	ld	(hl),#0x82
   0EB5 21rF1r02           1694 	ld	hl,#(_alphabet + 0x01e9)
   0EB8 36 82              1695 	ld	(hl),#0x82
   0EBA 21rF2r02           1696 	ld	hl,#(_alphabet + 0x01ea)
   0EBD 36 82              1697 	ld	(hl),#0x82
   0EBF 21rF3r02           1698 	ld	hl,#(_alphabet + 0x01eb)
   0EC2 36 82              1699 	ld	(hl),#0x82
   0EC4 21rF4r02           1700 	ld	hl,#(_alphabet + 0x01ec)
   0EC7 36 7C              1701 	ld	(hl),#0x7C
   0EC9 21rF5r02           1702 	ld	hl,#(_alphabet + 0x01ed)
   0ECC 36 7C              1703 	ld	(hl),#0x7C
   0ECE 01rF6r02           1704 	ld	bc,#_alphabet + 494
   0ED1 AF                 1705 	xor	a, a
   0ED2 02                 1706 	ld	(bc),a
   0ED3 01rF7r02           1707 	ld	bc,#_alphabet + 495
   0ED6 AF                 1708 	xor	a, a
   0ED7 02                 1709 	ld	(bc),a
   0ED8 21rF8r02           1710 	ld	hl,#(_alphabet + 0x01f0)
   0EDB 36 82              1711 	ld	(hl),#0x82
   0EDD 21rF9r02           1712 	ld	hl,#(_alphabet + 0x01f1)
   0EE0 36 82              1713 	ld	(hl),#0x82
   0EE2 21rFAr02           1714 	ld	hl,#(_alphabet + 0x01f2)
   0EE5 36 82              1715 	ld	(hl),#0x82
   0EE7 21rFBr02           1716 	ld	hl,#(_alphabet + 0x01f3)
   0EEA 36 82              1717 	ld	(hl),#0x82
   0EEC 21rFCr02           1718 	ld	hl,#(_alphabet + 0x01f4)
   0EEF 36 44              1719 	ld	(hl),#0x44
   0EF1 21rFDr02           1720 	ld	hl,#(_alphabet + 0x01f5)
   0EF4 36 44              1721 	ld	(hl),#0x44
   0EF6 21rFEr02           1722 	ld	hl,#(_alphabet + 0x01f6)
   0EF9 36 44              1723 	ld	(hl),#0x44
   0EFB 21rFFr02           1724 	ld	hl,#(_alphabet + 0x01f7)
   0EFE 36 44              1725 	ld	(hl),#0x44
   0F00 21r00r03           1726 	ld	hl,#(_alphabet + 0x01f8)
   0F03 36 28              1727 	ld	(hl),#0x28
   0F05 21r01r03           1728 	ld	hl,#(_alphabet + 0x01f9)
   0F08 36 28              1729 	ld	(hl),#0x28
   0F0A 21r02r03           1730 	ld	hl,#(_alphabet + 0x01fa)
   0F0D 36 28              1731 	ld	(hl),#0x28
   0F0F 21r03r03           1732 	ld	hl,#(_alphabet + 0x01fb)
   0F12 36 28              1733 	ld	(hl),#0x28
   0F14 21r04r03           1734 	ld	hl,#(_alphabet + 0x01fc)
   0F17 36 10              1735 	ld	(hl),#0x10
   0F19 21r05r03           1736 	ld	hl,#(_alphabet + 0x01fd)
   0F1C 36 10              1737 	ld	(hl),#0x10
   0F1E 01r06r03           1738 	ld	bc,#_alphabet + 510
   0F21 AF                 1739 	xor	a, a
   0F22 02                 1740 	ld	(bc),a
   0F23 01r07r03           1741 	ld	bc,#_alphabet + 511
   0F26 AF                 1742 	xor	a, a
   0F27 02                 1743 	ld	(bc),a
   0F28 21r08r03           1744 	ld	hl,#(_alphabet + 0x0200)
   0F2B 36 82              1745 	ld	(hl),#0x82
   0F2D 21r09r03           1746 	ld	hl,#(_alphabet + 0x0201)
   0F30 36 82              1747 	ld	(hl),#0x82
   0F32 21r0Ar03           1748 	ld	hl,#(_alphabet + 0x0202)
   0F35 36 92              1749 	ld	(hl),#0x92
   0F37 21r0Br03           1750 	ld	hl,#(_alphabet + 0x0203)
   0F3A 36 92              1751 	ld	(hl),#0x92
   0F3C 21r0Cr03           1752 	ld	hl,#(_alphabet + 0x0204)
   0F3F 36 AA              1753 	ld	(hl),#0xAA
   0F41 21r0Dr03           1754 	ld	hl,#(_alphabet + 0x0205)
   0F44 36 AA              1755 	ld	(hl),#0xAA
   0F46 21r0Er03           1756 	ld	hl,#(_alphabet + 0x0206)
   0F49 36 AA              1757 	ld	(hl),#0xAA
   0F4B 21r0Fr03           1758 	ld	hl,#(_alphabet + 0x0207)
   0F4E 36 AA              1759 	ld	(hl),#0xAA
   0F50 21r10r03           1760 	ld	hl,#(_alphabet + 0x0208)
   0F53 36 C6              1761 	ld	(hl),#0xC6
   0F55 21r11r03           1762 	ld	hl,#(_alphabet + 0x0209)
   0F58 36 C6              1763 	ld	(hl),#0xC6
   0F5A 21r12r03           1764 	ld	hl,#(_alphabet + 0x020a)
   0F5D 36 C6              1765 	ld	(hl),#0xC6
   0F5F 21r13r03           1766 	ld	hl,#(_alphabet + 0x020b)
   0F62 36 C6              1767 	ld	(hl),#0xC6
   0F64 21r14r03           1768 	ld	hl,#(_alphabet + 0x020c)
   0F67 36 82              1769 	ld	(hl),#0x82
   0F69 21r15r03           1770 	ld	hl,#(_alphabet + 0x020d)
   0F6C 36 82              1771 	ld	(hl),#0x82
   0F6E 01r16r03           1772 	ld	bc,#_alphabet + 526
   0F71 AF                 1773 	xor	a, a
   0F72 02                 1774 	ld	(bc),a
   0F73 01r17r03           1775 	ld	bc,#_alphabet + 527
   0F76 AF                 1776 	xor	a, a
   0F77 02                 1777 	ld	(bc),a
   0F78 21r18r03           1778 	ld	hl,#(_alphabet + 0x0210)
   0F7B 36 C6              1779 	ld	(hl),#0xC6
   0F7D 21r19r03           1780 	ld	hl,#(_alphabet + 0x0211)
   0F80 36 C6              1781 	ld	(hl),#0xC6
   0F82 21r1Ar03           1782 	ld	hl,#(_alphabet + 0x0212)
   0F85 36 44              1783 	ld	(hl),#0x44
   0F87 21r1Br03           1784 	ld	hl,#(_alphabet + 0x0213)
   0F8A 36 44              1785 	ld	(hl),#0x44
   0F8C 21r1Cr03           1786 	ld	hl,#(_alphabet + 0x0214)
   0F8F 36 28              1787 	ld	(hl),#0x28
   0F91 21r1Dr03           1788 	ld	hl,#(_alphabet + 0x0215)
   0F94 36 28              1789 	ld	(hl),#0x28
   0F96 21r1Er03           1790 	ld	hl,#(_alphabet + 0x0216)
   0F99 36 10              1791 	ld	(hl),#0x10
   0F9B 21r1Fr03           1792 	ld	hl,#(_alphabet + 0x0217)
   0F9E 36 10              1793 	ld	(hl),#0x10
   0FA0 21r20r03           1794 	ld	hl,#(_alphabet + 0x0218)
   0FA3 36 28              1795 	ld	(hl),#0x28
   0FA5 21r21r03           1796 	ld	hl,#(_alphabet + 0x0219)
   0FA8 36 28              1797 	ld	(hl),#0x28
   0FAA 21r22r03           1798 	ld	hl,#(_alphabet + 0x021a)
   0FAD 36 44              1799 	ld	(hl),#0x44
   0FAF 21r23r03           1800 	ld	hl,#(_alphabet + 0x021b)
   0FB2 36 44              1801 	ld	(hl),#0x44
   0FB4 21r24r03           1802 	ld	hl,#(_alphabet + 0x021c)
   0FB7 36 C6              1803 	ld	(hl),#0xC6
   0FB9 21r25r03           1804 	ld	hl,#(_alphabet + 0x021d)
   0FBC 36 C6              1805 	ld	(hl),#0xC6
   0FBE 01r26r03           1806 	ld	bc,#_alphabet + 542
   0FC1 AF                 1807 	xor	a, a
   0FC2 02                 1808 	ld	(bc),a
   0FC3 01r27r03           1809 	ld	bc,#_alphabet + 543
   0FC6 AF                 1810 	xor	a, a
   0FC7 02                 1811 	ld	(bc),a
   0FC8 21r28r03           1812 	ld	hl,#(_alphabet + 0x0220)
   0FCB 36 82              1813 	ld	(hl),#0x82
   0FCD 21r29r03           1814 	ld	hl,#(_alphabet + 0x0221)
   0FD0 36 82              1815 	ld	(hl),#0x82
   0FD2 21r2Ar03           1816 	ld	hl,#(_alphabet + 0x0222)
   0FD5 36 44              1817 	ld	(hl),#0x44
   0FD7 21r2Br03           1818 	ld	hl,#(_alphabet + 0x0223)
   0FDA 36 44              1819 	ld	(hl),#0x44
   0FDC 21r2Cr03           1820 	ld	hl,#(_alphabet + 0x0224)
   0FDF 36 28              1821 	ld	(hl),#0x28
   0FE1 21r2Dr03           1822 	ld	hl,#(_alphabet + 0x0225)
   0FE4 36 28              1823 	ld	(hl),#0x28
   0FE6 21r2Er03           1824 	ld	hl,#(_alphabet + 0x0226)
   0FE9 36 10              1825 	ld	(hl),#0x10
   0FEB 21r2Fr03           1826 	ld	hl,#(_alphabet + 0x0227)
   0FEE 36 10              1827 	ld	(hl),#0x10
   0FF0 21r30r03           1828 	ld	hl,#(_alphabet + 0x0228)
   0FF3 36 10              1829 	ld	(hl),#0x10
   0FF5 21r31r03           1830 	ld	hl,#(_alphabet + 0x0229)
   0FF8 36 10              1831 	ld	(hl),#0x10
   0FFA 21r32r03           1832 	ld	hl,#(_alphabet + 0x022a)
   0FFD 36 10              1833 	ld	(hl),#0x10
   0FFF 21r33r03           1834 	ld	hl,#(_alphabet + 0x022b)
   1002 36 10              1835 	ld	(hl),#0x10
   1004 21r34r03           1836 	ld	hl,#(_alphabet + 0x022c)
   1007 36 10              1837 	ld	(hl),#0x10
   1009 21r35r03           1838 	ld	hl,#(_alphabet + 0x022d)
   100C 36 10              1839 	ld	(hl),#0x10
   100E 01r36r03           1840 	ld	bc,#_alphabet + 558
   1011 AF                 1841 	xor	a, a
   1012 02                 1842 	ld	(bc),a
   1013 01r37r03           1843 	ld	bc,#_alphabet + 559
   1016 AF                 1844 	xor	a, a
   1017 02                 1845 	ld	(bc),a
   1018 21r38r03           1846 	ld	hl,#(_alphabet + 0x0230)
   101B 36 FE              1847 	ld	(hl),#0xFE
   101D 21r39r03           1848 	ld	hl,#(_alphabet + 0x0231)
   1020 36 FE              1849 	ld	(hl),#0xFE
   1022 21r3Ar03           1850 	ld	hl,#(_alphabet + 0x0232)
   1025 36 04              1851 	ld	(hl),#0x04
   1027 21r3Br03           1852 	ld	hl,#(_alphabet + 0x0233)
   102A 36 04              1853 	ld	(hl),#0x04
   102C 21r3Cr03           1854 	ld	hl,#(_alphabet + 0x0234)
   102F 36 08              1855 	ld	(hl),#0x08
   1031 21r3Dr03           1856 	ld	hl,#(_alphabet + 0x0235)
   1034 36 08              1857 	ld	(hl),#0x08
   1036 21r3Er03           1858 	ld	hl,#(_alphabet + 0x0236)
   1039 36 10              1859 	ld	(hl),#0x10
   103B 21r3Fr03           1860 	ld	hl,#(_alphabet + 0x0237)
   103E 36 10              1861 	ld	(hl),#0x10
   1040 21r40r03           1862 	ld	hl,#(_alphabet + 0x0238)
   1043 36 20              1863 	ld	(hl),#0x20
   1045 21r41r03           1864 	ld	hl,#(_alphabet + 0x0239)
   1048 36 20              1865 	ld	(hl),#0x20
   104A 21r42r03           1866 	ld	hl,#(_alphabet + 0x023a)
   104D 36 40              1867 	ld	(hl),#0x40
   104F 21r43r03           1868 	ld	hl,#(_alphabet + 0x023b)
   1052 36 40              1869 	ld	(hl),#0x40
   1054 21r44r03           1870 	ld	hl,#(_alphabet + 0x023c)
   1057 36 FE              1871 	ld	(hl),#0xFE
   1059 21r45r03           1872 	ld	hl,#(_alphabet + 0x023d)
   105C 36 FE              1873 	ld	(hl),#0xFE
   105E 01r46r03           1874 	ld	bc,#_alphabet + 574
   1061 AF                 1875 	xor	a, a
   1062 02                 1876 	ld	(bc),a
   1063 01r47r03           1877 	ld	bc,#_alphabet + 575
   1066 AF                 1878 	xor	a, a
   1067 02                 1879 	ld	(bc),a
   1068 01r48r03           1880 	ld	bc,#_alphabet + 576
   106B AF                 1881 	xor	a, a
   106C 02                 1882 	ld	(bc),a
   106D 01r49r03           1883 	ld	bc,#_alphabet + 577
   1070 AF                 1884 	xor	a, a
   1071 02                 1885 	ld	(bc),a
   1072 01r4Ar03           1886 	ld	bc,#_alphabet + 578
   1075 AF                 1887 	xor	a, a
   1076 02                 1888 	ld	(bc),a
   1077 01r4Br03           1889 	ld	bc,#_alphabet + 579
   107A AF                 1890 	xor	a, a
   107B 02                 1891 	ld	(bc),a
   107C 01r4Cr03           1892 	ld	bc,#_alphabet + 580
   107F AF                 1893 	xor	a, a
   1080 02                 1894 	ld	(bc),a
   1081 01r4Dr03           1895 	ld	bc,#_alphabet + 581
   1084 AF                 1896 	xor	a, a
   1085 02                 1897 	ld	(bc),a
   1086 01r4Er03           1898 	ld	bc,#_alphabet + 582
   1089 AF                 1899 	xor	a, a
   108A 02                 1900 	ld	(bc),a
   108B 01r4Fr03           1901 	ld	bc,#_alphabet + 583
   108E AF                 1902 	xor	a, a
   108F 02                 1903 	ld	(bc),a
   1090 01r50r03           1904 	ld	bc,#_alphabet + 584
   1093 AF                 1905 	xor	a, a
   1094 02                 1906 	ld	(bc),a
   1095 01r51r03           1907 	ld	bc,#_alphabet + 585
   1098 AF                 1908 	xor	a, a
   1099 02                 1909 	ld	(bc),a
   109A 01r52r03           1910 	ld	bc,#_alphabet + 586
   109D AF                 1911 	xor	a, a
   109E 02                 1912 	ld	(bc),a
   109F 01r53r03           1913 	ld	bc,#_alphabet + 587
   10A2 AF                 1914 	xor	a, a
   10A3 02                 1915 	ld	(bc),a
   10A4 01r54r03           1916 	ld	bc,#_alphabet + 588
   10A7 AF                 1917 	xor	a, a
   10A8 02                 1918 	ld	(bc),a
   10A9 01r55r03           1919 	ld	bc,#_alphabet + 589
   10AC AF                 1920 	xor	a, a
   10AD 02                 1921 	ld	(bc),a
   10AE 01r56r03           1922 	ld	bc,#_alphabet + 590
   10B1 AF                 1923 	xor	a, a
   10B2 02                 1924 	ld	(bc),a
   10B3 01r57r03           1925 	ld	bc,#_alphabet + 591
   10B6 AF                 1926 	xor	a, a
   10B7 02                 1927 	ld	(bc),a
   10B8 01r58r03           1928 	ld	bc,#_alphabet + 592
   10BB AF                 1929 	xor	a, a
   10BC 02                 1930 	ld	(bc),a
   10BD 01r59r03           1931 	ld	bc,#_alphabet + 593
   10C0 AF                 1932 	xor	a, a
   10C1 02                 1933 	ld	(bc),a
   10C2 01r5Ar03           1934 	ld	bc,#_alphabet + 594
   10C5 AF                 1935 	xor	a, a
   10C6 02                 1936 	ld	(bc),a
   10C7 01r5Br03           1937 	ld	bc,#_alphabet + 595
   10CA AF                 1938 	xor	a, a
   10CB 02                 1939 	ld	(bc),a
   10CC 21r5Cr03           1940 	ld	hl,#(_alphabet + 0x0254)
   10CF 36 60              1941 	ld	(hl),#0x60
   10D1 21r5Dr03           1942 	ld	hl,#(_alphabet + 0x0255)
   10D4 36 60              1943 	ld	(hl),#0x60
   10D6 21r5Er03           1944 	ld	hl,#(_alphabet + 0x0256)
   10D9 36 92              1945 	ld	(hl),#0x92
   10DB 21r5Fr03           1946 	ld	hl,#(_alphabet + 0x0257)
   10DE 36 92              1947 	ld	(hl),#0x92
   10E0 21r60r03           1948 	ld	hl,#(_alphabet + 0x0258)
   10E3 36 0C              1949 	ld	(hl),#0x0C
   10E5 21r61r03           1950 	ld	hl,#(_alphabet + 0x0259)
   10E8 36 0C              1951 	ld	(hl),#0x0C
   10EA 01r62r03           1952 	ld	bc,#_alphabet + 602
   10ED AF                 1953 	xor	a, a
   10EE 02                 1954 	ld	(bc),a
   10EF 01r63r03           1955 	ld	bc,#_alphabet + 603
   10F2 AF                 1956 	xor	a, a
   10F3 02                 1957 	ld	(bc),a
   10F4 01r64r03           1958 	ld	bc,#_alphabet + 604
   10F7 AF                 1959 	xor	a, a
   10F8 02                 1960 	ld	(bc),a
   10F9 01r65r03           1961 	ld	bc,#_alphabet + 605
   10FC AF                 1962 	xor	a, a
   10FD 02                 1963 	ld	(bc),a
   10FE 01r66r03           1964 	ld	bc,#_alphabet + 606
   1101 AF                 1965 	xor	a, a
   1102 02                 1966 	ld	(bc),a
   1103 01r67r03           1967 	ld	bc,#_alphabet + 607
   1106 AF                 1968 	xor	a, a
   1107 02                 1969 	ld	(bc),a
   1108 01r68r03           1970 	ld	bc,#_alphabet + 608
   110B AF                 1971 	xor	a, a
   110C 02                 1972 	ld	(bc),a
   110D 01r69r03           1973 	ld	bc,#_alphabet + 609
   1110 AF                 1974 	xor	a, a
   1111 02                 1975 	ld	(bc),a
   1112 01r6Ar03           1976 	ld	bc,#_alphabet + 610
   1115 AF                 1977 	xor	a, a
   1116 02                 1978 	ld	(bc),a
   1117 01r6Br03           1979 	ld	bc,#_alphabet + 611
   111A AF                 1980 	xor	a, a
   111B 02                 1981 	ld	(bc),a
   111C 01r6Cr03           1982 	ld	bc,#_alphabet + 612
   111F AF                 1983 	xor	a, a
   1120 02                 1984 	ld	(bc),a
   1121 01r6Dr03           1985 	ld	bc,#_alphabet + 613
   1124 AF                 1986 	xor	a, a
   1125 02                 1987 	ld	(bc),a
   1126 01r6Er03           1988 	ld	bc,#_alphabet + 614
   1129 AF                 1989 	xor	a, a
   112A 02                 1990 	ld	(bc),a
   112B 01r6Fr03           1991 	ld	bc,#_alphabet + 615
   112E AF                 1992 	xor	a, a
   112F 02                 1993 	ld	(bc),a
   1130 01r70r03           1994 	ld	bc,#_alphabet + 616
   1133 AF                 1995 	xor	a, a
   1134 02                 1996 	ld	(bc),a
   1135 01r71r03           1997 	ld	bc,#_alphabet + 617
   1138 AF                 1998 	xor	a, a
   1139 02                 1999 	ld	(bc),a
   113A 01r72r03           2000 	ld	bc,#_alphabet + 618
   113D AF                 2001 	xor	a, a
   113E 02                 2002 	ld	(bc),a
   113F 01r73r03           2003 	ld	bc,#_alphabet + 619
   1142 AF                 2004 	xor	a, a
   1143 02                 2005 	ld	(bc),a
   1144 21r74r03           2006 	ld	hl,#(_alphabet + 0x026c)
   1147 36 FE              2007 	ld	(hl),#0xFE
   1149 21r75r03           2008 	ld	hl,#(_alphabet + 0x026d)
   114C 36 FE              2009 	ld	(hl),#0xFE
   114E 01r76r03           2010 	ld	bc,#_alphabet + 622
   1151 AF                 2011 	xor	a, a
   1152 02                 2012 	ld	(bc),a
   1153 01r77r03           2013 	ld	bc,#_alphabet + 623
   1156 AF                 2014 	xor	a, a
   1157 02                 2015 	ld	(bc),a
   1158 21r78r03           2016 	ld	hl,#(_alphabet + 0x0270)
   115B 36 10              2017 	ld	(hl),#0x10
   115D 21r79r03           2018 	ld	hl,#(_alphabet + 0x0271)
   1160 36 10              2019 	ld	(hl),#0x10
   1162 21r7Ar03           2020 	ld	hl,#(_alphabet + 0x0272)
   1165 36 10              2021 	ld	(hl),#0x10
   1167 21r7Br03           2022 	ld	hl,#(_alphabet + 0x0273)
   116A 36 10              2023 	ld	(hl),#0x10
   116C 21r7Cr03           2024 	ld	hl,#(_alphabet + 0x0274)
   116F 36 10              2025 	ld	(hl),#0x10
   1171 21r7Dr03           2026 	ld	hl,#(_alphabet + 0x0275)
   1174 36 10              2027 	ld	(hl),#0x10
   1176 21r7Er03           2028 	ld	hl,#(_alphabet + 0x0276)
   1179 36 10              2029 	ld	(hl),#0x10
   117B 21r7Fr03           2030 	ld	hl,#(_alphabet + 0x0277)
   117E 36 10              2031 	ld	(hl),#0x10
   1180 21r80r03           2032 	ld	hl,#(_alphabet + 0x0278)
   1183 36 10              2033 	ld	(hl),#0x10
   1185 21r81r03           2034 	ld	hl,#(_alphabet + 0x0279)
   1188 36 10              2035 	ld	(hl),#0x10
   118A 01r82r03           2036 	ld	bc,#_alphabet + 634
   118D AF                 2037 	xor	a, a
   118E 02                 2038 	ld	(bc),a
   118F 01r83r03           2039 	ld	bc,#_alphabet + 635
   1192 AF                 2040 	xor	a, a
   1193 02                 2041 	ld	(bc),a
   1194 21r84r03           2042 	ld	hl,#(_alphabet + 0x027c)
   1197 36 10              2043 	ld	(hl),#0x10
   1199 21r85r03           2044 	ld	hl,#(_alphabet + 0x027d)
   119C 36 10              2045 	ld	(hl),#0x10
   119E 01r86r03           2046 	ld	bc,#_alphabet + 638
   11A1 AF                 2047 	xor	a, a
   11A2 02                 2048 	ld	(bc),a
   11A3 01r87r03           2049 	ld	bc,#_alphabet + 639
   11A6 AF                 2050 	xor	a, a
   11A7 02                 2051 	ld	(bc),a
   11A8 21r88r03           2052 	ld	hl,#(_alphabet + 0x0280)
   11AB 36 3C              2053 	ld	(hl),#0x3C
   11AD 21r89r03           2054 	ld	hl,#(_alphabet + 0x0281)
   11B0 36 3C              2055 	ld	(hl),#0x3C
   11B2 21r8Ar03           2056 	ld	hl,#(_alphabet + 0x0282)
   11B5 36 42              2057 	ld	(hl),#0x42
   11B7 21r8Br03           2058 	ld	hl,#(_alphabet + 0x0283)
   11BA 36 42              2059 	ld	(hl),#0x42
   11BC 21r8Cr03           2060 	ld	hl,#(_alphabet + 0x0284)
   11BF 36 42              2061 	ld	(hl),#0x42
   11C1 21r8Dr03           2062 	ld	hl,#(_alphabet + 0x0285)
   11C4 36 42              2063 	ld	(hl),#0x42
   11C6 21r8Er03           2064 	ld	hl,#(_alphabet + 0x0286)
   11C9 36 1C              2065 	ld	(hl),#0x1C
   11CB 21r8Fr03           2066 	ld	hl,#(_alphabet + 0x0287)
   11CE 36 1C              2067 	ld	(hl),#0x1C
   11D0 21r90r03           2068 	ld	hl,#(_alphabet + 0x0288)
   11D3 36 10              2069 	ld	(hl),#0x10
   11D5 21r91r03           2070 	ld	hl,#(_alphabet + 0x0289)
   11D8 36 10              2071 	ld	(hl),#0x10
   11DA 01r92r03           2072 	ld	bc,#_alphabet + 650
   11DD AF                 2073 	xor	a, a
   11DE 02                 2074 	ld	(bc),a
   11DF 01r93r03           2075 	ld	bc,#_alphabet + 651
   11E2 AF                 2076 	xor	a, a
   11E3 02                 2077 	ld	(bc),a
   11E4 21r94r03           2078 	ld	hl,#(_alphabet + 0x028c)
   11E7 36 10              2079 	ld	(hl),#0x10
   11E9 21r95r03           2080 	ld	hl,#(_alphabet + 0x028d)
   11EC 36 10              2081 	ld	(hl),#0x10
   11EE 01r96r03           2082 	ld	bc,#_alphabet + 654
   11F1 AF                 2083 	xor	a, a
   11F2 02                 2084 	ld	(bc),a
   11F3 01r97r03           2085 	ld	bc,#_alphabet + 655
   11F6 AF                 2086 	xor	a, a
   11F7 02                 2087 	ld	(bc),a
   11F8 21r98r03           2088 	ld	hl,#(_alphabet + 0x0290)
   11FB 36 18              2089 	ld	(hl),#0x18
   11FD 21r99r03           2090 	ld	hl,#(_alphabet + 0x0291)
   1200 36 18              2091 	ld	(hl),#0x18
   1202 21r9Ar03           2092 	ld	hl,#(_alphabet + 0x0292)
   1205 36 18              2093 	ld	(hl),#0x18
   1207 21r9Br03           2094 	ld	hl,#(_alphabet + 0x0293)
   120A 36 18              2095 	ld	(hl),#0x18
   120C 21r9Cr03           2096 	ld	hl,#(_alphabet + 0x0294)
   120F 36 08              2097 	ld	(hl),#0x08
   1211 21r9Dr03           2098 	ld	hl,#(_alphabet + 0x0295)
   1214 36 08              2099 	ld	(hl),#0x08
   1216 21r9Er03           2100 	ld	hl,#(_alphabet + 0x0296)
   1219 36 10              2101 	ld	(hl),#0x10
   121B 21r9Fr03           2102 	ld	hl,#(_alphabet + 0x0297)
   121E 36 10              2103 	ld	(hl),#0x10
   1220 01rA0r03           2104 	ld	bc,#_alphabet + 664
   1223 AF                 2105 	xor	a, a
   1224 02                 2106 	ld	(bc),a
   1225 01rA1r03           2107 	ld	bc,#_alphabet + 665
   1228 AF                 2108 	xor	a, a
   1229 02                 2109 	ld	(bc),a
   122A 01rA2r03           2110 	ld	bc,#_alphabet + 666
   122D AF                 2111 	xor	a, a
   122E 02                 2112 	ld	(bc),a
   122F 01rA3r03           2113 	ld	bc,#_alphabet + 667
   1232 AF                 2114 	xor	a, a
   1233 02                 2115 	ld	(bc),a
   1234 01rA4r03           2116 	ld	bc,#_alphabet + 668
   1237 AF                 2117 	xor	a, a
   1238 02                 2118 	ld	(bc),a
   1239 01rA5r03           2119 	ld	bc,#_alphabet + 669
   123C AF                 2120 	xor	a, a
   123D 02                 2121 	ld	(bc),a
   123E 01rA6r03           2122 	ld	bc,#_alphabet + 670
   1241 AF                 2123 	xor	a, a
   1242 02                 2124 	ld	(bc),a
   1243 01rA7r03           2125 	ld	bc,#_alphabet + 671
   1246 AF                 2126 	xor	a, a
   1247 02                 2127 	ld	(bc),a
   1248 01rA8r03           2128 	ld	bc,#_alphabet + 672
   124B AF                 2129 	xor	a, a
   124C 02                 2130 	ld	(bc),a
   124D 01rA9r03           2131 	ld	bc,#_alphabet + 673
   1250 AF                 2132 	xor	a, a
   1251 02                 2133 	ld	(bc),a
   1252 01rAAr03           2134 	ld	bc,#_alphabet + 674
   1255 AF                 2135 	xor	a, a
   1256 02                 2136 	ld	(bc),a
   1257 01rABr03           2137 	ld	bc,#_alphabet + 675
   125A AF                 2138 	xor	a, a
   125B 02                 2139 	ld	(bc),a
   125C 01rACr03           2140 	ld	bc,#_alphabet + 676
   125F AF                 2141 	xor	a, a
   1260 02                 2142 	ld	(bc),a
   1261 01rADr03           2143 	ld	bc,#_alphabet + 677
   1264 AF                 2144 	xor	a, a
   1265 02                 2145 	ld	(bc),a
   1266 01rAEr03           2146 	ld	bc,#_alphabet + 678
   1269 AF                 2147 	xor	a, a
   126A 02                 2148 	ld	(bc),a
   126B 01rAFr03           2149 	ld	bc,#_alphabet + 679
   126E AF                 2150 	xor	a, a
   126F 02                 2151 	ld	(bc),a
   1270 01rB0r03           2152 	ld	bc,#_alphabet + 680
   1273 AF                 2153 	xor	a, a
   1274 02                 2154 	ld	(bc),a
   1275 01rB1r03           2155 	ld	bc,#_alphabet + 681
   1278 AF                 2156 	xor	a, a
   1279 02                 2157 	ld	(bc),a
   127A 21rB2r03           2158 	ld	hl,#(_alphabet + 0x02aa)
   127D 36 18              2159 	ld	(hl),#0x18
   127F 21rB3r03           2160 	ld	hl,#(_alphabet + 0x02ab)
   1282 36 18              2161 	ld	(hl),#0x18
   1284 21rB4r03           2162 	ld	hl,#(_alphabet + 0x02ac)
   1287 36 18              2163 	ld	(hl),#0x18
   1289 21rB5r03           2164 	ld	hl,#(_alphabet + 0x02ad)
   128C 36 18              2165 	ld	(hl),#0x18
   128E 01rB6r03           2166 	ld	bc,#_alphabet + 686
   1291 AF                 2167 	xor	a, a
   1292 02                 2168 	ld	(bc),a
   1293 01rB7r03           2169 	ld	bc,#_alphabet + 687
   1296 AF                 2170 	xor	a, a
   1297 02                 2171 	ld	(bc),a
   1298 01rB8r03           2172 	ld	bc,#_alphabet + 688
   129B AF                 2173 	xor	a, a
   129C 02                 2174 	ld	(bc),a
   129D 01rB9r03           2175 	ld	bc,#_alphabet + 689
   12A0 AF                 2176 	xor	a, a
   12A1 02                 2177 	ld	(bc),a
   12A2 01rBAr03           2178 	ld	bc,#_alphabet + 690
   12A5 AF                 2179 	xor	a, a
   12A6 02                 2180 	ld	(bc),a
   12A7 01rBBr03           2181 	ld	bc,#_alphabet + 691
   12AA AF                 2182 	xor	a, a
   12AB 02                 2183 	ld	(bc),a
   12AC 01rBCr03           2184 	ld	bc,#_alphabet + 692
   12AF AF                 2185 	xor	a, a
   12B0 02                 2186 	ld	(bc),a
   12B1 01rBDr03           2187 	ld	bc,#_alphabet + 693
   12B4 AF                 2188 	xor	a, a
   12B5 02                 2189 	ld	(bc),a
   12B6 21rBEr03           2190 	ld	hl,#(_alphabet + 0x02b6)
   12B9 36 18              2191 	ld	(hl),#0x18
   12BB 21rBFr03           2192 	ld	hl,#(_alphabet + 0x02b7)
   12BE 36 18              2193 	ld	(hl),#0x18
   12C0 21rC0r03           2194 	ld	hl,#(_alphabet + 0x02b8)
   12C3 36 18              2195 	ld	(hl),#0x18
   12C5 21rC1r03           2196 	ld	hl,#(_alphabet + 0x02b9)
   12C8 36 18              2197 	ld	(hl),#0x18
   12CA 21rC2r03           2198 	ld	hl,#(_alphabet + 0x02ba)
   12CD 36 08              2199 	ld	(hl),#0x08
   12CF 21rC3r03           2200 	ld	hl,#(_alphabet + 0x02bb)
   12D2 36 08              2201 	ld	(hl),#0x08
   12D4 21rC4r03           2202 	ld	hl,#(_alphabet + 0x02bc)
   12D7 36 10              2203 	ld	(hl),#0x10
   12D9 21rC5r03           2204 	ld	hl,#(_alphabet + 0x02bd)
   12DC 36 10              2205 	ld	(hl),#0x10
   12DE 01rC6r03           2206 	ld	bc,#_alphabet + 702
   12E1 AF                 2207 	xor	a, a
   12E2 02                 2208 	ld	(bc),a
   12E3 01rC7r03           2209 	ld	bc,#_alphabet + 703
   12E6 AF                 2210 	xor	a, a
   12E7 02                 2211 	ld	(bc),a
   12E8 01rC8r03           2212 	ld	bc,#_alphabet + 704
   12EB AF                 2213 	xor	a, a
   12EC 02                 2214 	ld	(bc),a
   12ED 01rC9r03           2215 	ld	bc,#_alphabet + 705
   12F0 AF                 2216 	xor	a, a
   12F1 02                 2217 	ld	(bc),a
   12F2 01rCAr03           2218 	ld	bc,#_alphabet + 706
   12F5 AF                 2219 	xor	a, a
   12F6 02                 2220 	ld	(bc),a
   12F7 01rCBr03           2221 	ld	bc,#_alphabet + 707
   12FA AF                 2222 	xor	a, a
   12FB 02                 2223 	ld	(bc),a
   12FC 01rCCr03           2224 	ld	bc,#_alphabet + 708
   12FF AF                 2225 	xor	a, a
   1300 02                 2226 	ld	(bc),a
   1301 01rCDr03           2227 	ld	bc,#_alphabet + 709
   1304 AF                 2228 	xor	a, a
   1305 02                 2229 	ld	(bc),a
   1306 21rCEr03           2230 	ld	hl,#(_alphabet + 0x02c6)
   1309 36 54              2231 	ld	(hl),#0x54
   130B 21rCFr03           2232 	ld	hl,#(_alphabet + 0x02c7)
   130E 36 54              2233 	ld	(hl),#0x54
   1310 01rD0r03           2234 	ld	bc,#_alphabet + 712
   1313 AF                 2235 	xor	a, a
   1314 02                 2236 	ld	(bc),a
   1315 01rD1r03           2237 	ld	bc,#_alphabet + 713
   1318 AF                 2238 	xor	a, a
   1319 02                 2239 	ld	(bc),a
   131A 01rD2r03           2240 	ld	bc,#_alphabet + 714
   131D AF                 2241 	xor	a, a
   131E 02                 2242 	ld	(bc),a
   131F 01rD3r03           2243 	ld	bc,#_alphabet + 715
   1322 AF                 2244 	xor	a, a
   1323 02                 2245 	ld	(bc),a
   1324 01rD4r03           2246 	ld	bc,#_alphabet + 716
   1327 AF                 2247 	xor	a, a
   1328 02                 2248 	ld	(bc),a
   1329 01rD5r03           2249 	ld	bc,#_alphabet + 717
   132C AF                 2250 	xor	a, a
   132D 02                 2251 	ld	(bc),a
   132E 01rD6r03           2252 	ld	bc,#_alphabet + 718
   1331 AF                 2253 	xor	a, a
   1332 02                 2254 	ld	(bc),a
   1333 01rD7r03           2255 	ld	bc,#_alphabet + 719
   1336 AF                 2256 	xor	a, a
   1337 02                 2257 	ld	(bc),a
   1338 01rD8r03           2258 	ld	bc,#_alphabet + 720
   133B AF                 2259 	xor	a, a
   133C 02                 2260 	ld	(bc),a
   133D 01rD9r03           2261 	ld	bc,#_alphabet + 721
   1340 AF                 2262 	xor	a, a
   1341 02                 2263 	ld	(bc),a
   1342 01rDAr03           2264 	ld	bc,#_alphabet + 722
   1345 AF                 2265 	xor	a, a
   1346 02                 2266 	ld	(bc),a
   1347 01rDBr03           2267 	ld	bc,#_alphabet + 723
   134A AF                 2268 	xor	a, a
   134B 02                 2269 	ld	(bc),a
   134C 01rDCr03           2270 	ld	bc,#_alphabet + 724
   134F AF                 2271 	xor	a, a
   1350 02                 2272 	ld	(bc),a
   1351 01rDDr03           2273 	ld	bc,#_alphabet + 725
   1354 AF                 2274 	xor	a, a
   1355 02                 2275 	ld	(bc),a
   1356 21rDEr03           2276 	ld	hl,#(_alphabet + 0x02d6)
   1359 36 10              2277 	ld	(hl),#0x10
   135B 21rDFr03           2278 	ld	hl,#(_alphabet + 0x02d7)
   135E 36 10              2279 	ld	(hl),#0x10
   1360 01rE0r03           2280 	ld	bc,#_alphabet + 728
   1363 AF                 2281 	xor	a, a
   1364 02                 2282 	ld	(bc),a
   1365 01rE1r03           2283 	ld	bc,#_alphabet + 729
   1368 AF                 2284 	xor	a, a
   1369 02                 2285 	ld	(bc),a
   136A 21rE2r03           2286 	ld	hl,#(_alphabet + 0x02da)
   136D 36 10              2287 	ld	(hl),#0x10
   136F 21rE3r03           2288 	ld	hl,#(_alphabet + 0x02db)
   1372 36 10              2289 	ld	(hl),#0x10
   1374 01rE4r03           2290 	ld	bc,#_alphabet + 732
   1377 AF                 2291 	xor	a, a
   1378 02                 2292 	ld	(bc),a
   1379 01rE5r03           2293 	ld	bc,#_alphabet + 733
   137C AF                 2294 	xor	a, a
   137D 02                 2295 	ld	(bc),a
   137E 01rE6r03           2296 	ld	bc,#_alphabet + 734
   1381 AF                 2297 	xor	a, a
   1382 02                 2298 	ld	(bc),a
   1383 01rE7r03           2299 	ld	bc,#_alphabet + 735
   1386 AF                 2300 	xor	a, a
   1387 02                 2301 	ld	(bc),a
                           2302 ;main.c:217: unsigned char arrow_tile[] =
   1388 21rE8r03           2303 	ld	hl,#_arrow_tile
   138B 36 00              2304 	ld	(hl),#0x00
   138D 01rE9r03           2305 	ld	bc,#_arrow_tile + 1
   1390 AF                 2306 	xor	a, a
   1391 02                 2307 	ld	(bc),a
   1392 01rEAr03           2308 	ld	bc,#_arrow_tile + 2
   1395 AF                 2309 	xor	a, a
   1396 02                 2310 	ld	(bc),a
   1397 01rEBr03           2311 	ld	bc,#_arrow_tile + 3
   139A AF                 2312 	xor	a, a
   139B 02                 2313 	ld	(bc),a
   139C 01rECr03           2314 	ld	bc,#_arrow_tile + 4
   139F AF                 2315 	xor	a, a
   13A0 02                 2316 	ld	(bc),a
   13A1 01rEDr03           2317 	ld	bc,#_arrow_tile + 5
   13A4 AF                 2318 	xor	a, a
   13A5 02                 2319 	ld	(bc),a
   13A6 01rEEr03           2320 	ld	bc,#_arrow_tile + 6
   13A9 AF                 2321 	xor	a, a
   13AA 02                 2322 	ld	(bc),a
   13AB 21rEFr03           2323 	ld	hl,#(_arrow_tile + 0x0007)
   13AE 36 7E              2324 	ld	(hl),#0x7E
   13B0 21rF0r03           2325 	ld	hl,#(_arrow_tile + 0x0008)
   13B3 36 7E              2326 	ld	(hl),#0x7E
   13B5 21rF1r03           2327 	ld	hl,#(_arrow_tile + 0x0009)
   13B8 36 7E              2328 	ld	(hl),#0x7E
   13BA 21rF2r03           2329 	ld	hl,#(_arrow_tile + 0x000a)
   13BD 36 7E              2330 	ld	(hl),#0x7E
   13BF 21rF3r03           2331 	ld	hl,#(_arrow_tile + 0x000b)
   13C2 36 7E              2332 	ld	(hl),#0x7E
   13C4 21rF4r03           2333 	ld	hl,#(_arrow_tile + 0x000c)
   13C7 36 3C              2334 	ld	(hl),#0x3C
   13C9 21rF5r03           2335 	ld	hl,#(_arrow_tile + 0x000d)
   13CC 36 3C              2336 	ld	(hl),#0x3C
   13CE 21rF6r03           2337 	ld	hl,#(_arrow_tile + 0x000e)
   13D1 36 18              2338 	ld	(hl),#0x18
   13D3 21rF7r03           2339 	ld	hl,#(_arrow_tile + 0x000f)
   13D6 36 18              2340 	ld	(hl),#0x18
   13D8 01rF8r03           2341 	ld	bc,#_arrow_tile + 16
   13DB AF                 2342 	xor	a, a
   13DC 02                 2343 	ld	(bc),a
   13DD 01rF9r03           2344 	ld	bc,#_arrow_tile + 17
   13E0 AF                 2345 	xor	a, a
   13E1 02                 2346 	ld	(bc),a
   13E2 01rFAr03           2347 	ld	bc,#_arrow_tile + 18
   13E5 AF                 2348 	xor	a, a
   13E6 02                 2349 	ld	(bc),a
   13E7 01rFBr03           2350 	ld	bc,#_arrow_tile + 19
   13EA AF                 2351 	xor	a, a
   13EB 02                 2352 	ld	(bc),a
   13EC 01rFCr03           2353 	ld	bc,#_arrow_tile + 20
   13EF AF                 2354 	xor	a, a
   13F0 02                 2355 	ld	(bc),a
   13F1 21rFDr03           2356 	ld	hl,#(_arrow_tile + 0x0015)
   13F4 36 7E              2357 	ld	(hl),#0x7E
   13F6 21rFEr03           2358 	ld	hl,#(_arrow_tile + 0x0016)
   13F9 36 7E              2359 	ld	(hl),#0x7E
   13FB 21rFFr03           2360 	ld	hl,#(_arrow_tile + 0x0017)
   13FE 36 7E              2361 	ld	(hl),#0x7E
   1400 21r00r04           2362 	ld	hl,#(_arrow_tile + 0x0018)
   1403 36 7E              2363 	ld	(hl),#0x7E
   1405 21r01r04           2364 	ld	hl,#(_arrow_tile + 0x0019)
   1408 36 7E              2365 	ld	(hl),#0x7E
   140A 21r02r04           2366 	ld	hl,#(_arrow_tile + 0x001a)
   140D 36 3C              2367 	ld	(hl),#0x3C
   140F 21r03r04           2368 	ld	hl,#(_arrow_tile + 0x001b)
   1412 36 3C              2369 	ld	(hl),#0x3C
   1414 21r04r04           2370 	ld	hl,#(_arrow_tile + 0x001c)
   1417 36 18              2371 	ld	(hl),#0x18
   1419 21r05r04           2372 	ld	hl,#(_arrow_tile + 0x001d)
   141C 36 18              2373 	ld	(hl),#0x18
   141E 01r06r04           2374 	ld	bc,#_arrow_tile + 30
   1421 AF                 2375 	xor	a, a
   1422 02                 2376 	ld	(bc),a
   1423 01r07r04           2377 	ld	bc,#_arrow_tile + 31
   1426 AF                 2378 	xor	a, a
   1427 02                 2379 	ld	(bc),a
                           2380 ;main.c:227: unsigned char text_map[] =
   1428 21r08r04           2381 	ld	hl,#_text_map
   142B 36 16              2382 	ld	(hl),#0x16
   142D 21r09r04           2383 	ld	hl,#(_text_map + 0x0001)
   1430 36 17              2384 	ld	(hl),#0x17
   1432 21r0Ar04           2385 	ld	hl,#(_text_map + 0x0002)
   1435 36 29              2386 	ld	(hl),#0x29
   1437 21r0Br04           2387 	ld	hl,#(_text_map + 0x0003)
   143A 36 04              2388 	ld	(hl),#0x04
   143C 21r0Cr04           2389 	ld	hl,#(_text_map + 0x0004)
   143F 36 04              2390 	ld	(hl),#0x04
   1441 21r0Dr04           2391 	ld	hl,#(_text_map + 0x0005)
   1444 36 04              2392 	ld	(hl),#0x04
   1446 21r0Er04           2393 	ld	hl,#(_text_map + 0x0006)
   1449 36 04              2394 	ld	(hl),#0x04
   144B 21r0Fr04           2395 	ld	hl,#(_text_map + 0x0007)
   144E 36 04              2396 	ld	(hl),#0x04
   1450 21r10r04           2397 	ld	hl,#(_text_map + 0x0008)
   1453 36 04              2398 	ld	(hl),#0x04
   1455 21r11r04           2399 	ld	hl,#(_text_map + 0x0009)
   1458 36 04              2400 	ld	(hl),#0x04
   145A 21r12r04           2401 	ld	hl,#(_text_map + 0x000a)
   145D 36 04              2402 	ld	(hl),#0x04
   145F 21r13r04           2403 	ld	hl,#(_text_map + 0x000b)
   1462 36 04              2404 	ld	(hl),#0x04
   1464 21r14r04           2405 	ld	hl,#(_text_map + 0x000c)
   1467 36 04              2406 	ld	(hl),#0x04
   1469 21r15r04           2407 	ld	hl,#(_text_map + 0x000d)
   146C 36 04              2408 	ld	(hl),#0x04
   146E 21r16r04           2409 	ld	hl,#(_text_map + 0x000e)
   1471 36 04              2410 	ld	(hl),#0x04
   1473 21r17r04           2411 	ld	hl,#(_text_map + 0x000f)
   1476 36 04              2412 	ld	(hl),#0x04
   1478 21r18r04           2413 	ld	hl,#(_text_map + 0x0010)
   147B 36 04              2414 	ld	(hl),#0x04
   147D 21r19r04           2415 	ld	hl,#(_text_map + 0x0011)
   1480 36 04              2416 	ld	(hl),#0x04
   1482 21r1Ar04           2417 	ld	hl,#(_text_map + 0x0012)
   1485 36 04              2418 	ld	(hl),#0x04
   1487 21r1Br04           2419 	ld	hl,#(_text_map + 0x0013)
   148A 36 04              2420 	ld	(hl),#0x04
   148C 21r1Cr04           2421 	ld	hl,#(_text_map + 0x0014)
   148F 36 04              2422 	ld	(hl),#0x04
   1491 21r1Dr04           2423 	ld	hl,#(_text_map + 0x0015)
   1494 36 04              2424 	ld	(hl),#0x04
   1496 21r1Er04           2425 	ld	hl,#(_text_map + 0x0016)
   1499 36 04              2426 	ld	(hl),#0x04
   149B 21r1Fr04           2427 	ld	hl,#(_text_map + 0x0017)
   149E 36 04              2428 	ld	(hl),#0x04
   14A0 21r20r04           2429 	ld	hl,#(_text_map + 0x0018)
   14A3 36 04              2430 	ld	(hl),#0x04
   14A5 21r21r04           2431 	ld	hl,#(_text_map + 0x0019)
   14A8 36 04              2432 	ld	(hl),#0x04
   14AA 21r22r04           2433 	ld	hl,#(_text_map + 0x001a)
   14AD 36 04              2434 	ld	(hl),#0x04
   14AF 21r23r04           2435 	ld	hl,#(_text_map + 0x001b)
   14B2 36 04              2436 	ld	(hl),#0x04
   14B4 21r24r04           2437 	ld	hl,#(_text_map + 0x001c)
   14B7 36 04              2438 	ld	(hl),#0x04
   14B9 21r25r04           2439 	ld	hl,#(_text_map + 0x001d)
   14BC 36 04              2440 	ld	(hl),#0x04
   14BE 21r26r04           2441 	ld	hl,#(_text_map + 0x001e)
   14C1 36 04              2442 	ld	(hl),#0x04
   14C3 21r27r04           2443 	ld	hl,#(_text_map + 0x001f)
   14C6 36 04              2444 	ld	(hl),#0x04
                           2445 ;main.c:246: UINT8 input_seq_ctr = 0;
   14C8 21r38r04           2446 	ld	hl,#_input_seq_ctr
   14CB 36 00              2447 	ld	(hl),#0x00
                           2448 ;main.c:250: UINT8 flag_a[] =
   14CD 21r39r04           2449 	ld	hl,#_flag_a
   14D0 36 12              2450 	ld	(hl),#0x12
   14D2 21r3Ar04           2451 	ld	hl,#(_flag_a + 0x0001)
   14D5 36 64              2452 	ld	(hl),#0x64
   14D7 21r3Br04           2453 	ld	hl,#(_flag_a + 0x0002)
   14DA 36 88              2454 	ld	(hl),#0x88
   14DC 21r3Cr04           2455 	ld	hl,#(_flag_a + 0x0003)
   14DF 36 F7              2456 	ld	(hl),#0xF7
   14E1 21r3Dr04           2457 	ld	hl,#(_flag_a + 0x0004)
   14E4 36 77              2458 	ld	(hl),#0x77
   14E6 21r3Er04           2459 	ld	hl,#(_flag_a + 0x0005)
   14E9 36 95              2460 	ld	(hl),#0x95
   14EB 21r3Fr04           2461 	ld	hl,#(_flag_a + 0x0006)
   14EE 36 8A              2462 	ld	(hl),#0x8A
   14F0 21r40r04           2463 	ld	hl,#(_flag_a + 0x0007)
   14F3 36 5A              2464 	ld	(hl),#0x5A
                           2465 ;main.c:254: UINT8 flag_b[] =
   14F5 21r41r04           2466 	ld	hl,#_flag_b
   14F8 36 E1              2467 	ld	(hl),#0xE1
   14FA 21r42r04           2468 	ld	hl,#(_flag_b + 0x0001)
   14FD 36 D5              2469 	ld	(hl),#0xD5
   14FF 21r43r04           2470 	ld	hl,#(_flag_b + 0x0002)
   1502 36 FA              2471 	ld	(hl),#0xFA
   1504 21r44r04           2472 	ld	hl,#(_flag_b + 0x0003)
   1507 36 93              2473 	ld	(hl),#0x93
   1509 21r45r04           2474 	ld	hl,#(_flag_b + 0x0004)
   150C 36 3E              2475 	ld	(hl),#0x3E
   150E 21r46r04           2476 	ld	hl,#(_flag_b + 0x0005)
   1511 36 13              2477 	ld	(hl),#0x13
   1513 21r47r04           2478 	ld	hl,#(_flag_b + 0x0006)
   1516 36 30              2479 	ld	(hl),#0x30
   1518 21r48r04           2480 	ld	hl,#(_flag_b + 0x0007)
   151B 36 5F              2481 	ld	(hl),#0x5F
                           2482 ;main.c:264: UINT32 key_a[4] = { 0xc2bb5c5b, 0x93373628,
   151D 21r49r04           2483 	ld	hl,#_key_a
   1520 36 5B              2484 	ld	(hl),#0x5B
   1522 23                 2485 	inc	hl
   1523 36 5C              2486 	ld	(hl),#0x5C
   1525 23                 2487 	inc	hl
   1526 36 BB              2488 	ld	(hl),#0xBB
   1528 23                 2489 	inc	hl
   1529 36 C2              2490 	ld	(hl),#0xC2
   152B 21r4Dr04           2491 	ld	hl,#(_key_a + 0x0004)
   152E 36 28              2492 	ld	(hl),#0x28
   1530 23                 2493 	inc	hl
   1531 36 36              2494 	ld	(hl),#0x36
   1533 23                 2495 	inc	hl
   1534 36 37              2496 	ld	(hl),#0x37
   1536 23                 2497 	inc	hl
   1537 36 93              2498 	ld	(hl),#0x93
   1539 21r51r04           2499 	ld	hl,#(_key_a + 0x0008)
   153C 36 F3              2500 	ld	(hl),#0xF3
   153E 23                 2501 	inc	hl
   153F 36 9A              2502 	ld	(hl),#0x9A
   1541 23                 2503 	inc	hl
   1542 36 84              2504 	ld	(hl),#0x84
   1544 23                 2505 	inc	hl
   1545 36 D0              2506 	ld	(hl),#0xD0
   1547 21r55r04           2507 	ld	hl,#(_key_a + 0x000c)
   154A 36 C4              2508 	ld	(hl),#0xC4
   154C 23                 2509 	inc	hl
   154D 36 3A              2510 	ld	(hl),#0x3A
   154F 23                 2511 	inc	hl
   1550 36 18              2512 	ld	(hl),#0x18
   1552 23                 2513 	inc	hl
   1553 36 04              2514 	ld	(hl),#0x04
                           2515 ;main.c:268: UINT32 key_b[4] = { 0x72ae38ba, 0xa106f553,
   1555 21r59r04           2516 	ld	hl,#_key_b
   1558 36 BA              2517 	ld	(hl),#0xBA
   155A 23                 2518 	inc	hl
   155B 36 38              2519 	ld	(hl),#0x38
   155D 23                 2520 	inc	hl
   155E 36 AE              2521 	ld	(hl),#0xAE
   1560 23                 2522 	inc	hl
   1561 36 72              2523 	ld	(hl),#0x72
   1563 21r5Dr04           2524 	ld	hl,#(_key_b + 0x0004)
   1566 36 53              2525 	ld	(hl),#0x53
   1568 23                 2526 	inc	hl
   1569 36 F5              2527 	ld	(hl),#0xF5
   156B 23                 2528 	inc	hl
   156C 36 06              2529 	ld	(hl),#0x06
   156E 23                 2530 	inc	hl
   156F 36 A1              2531 	ld	(hl),#0xA1
   1571 21r61r04           2532 	ld	hl,#(_key_b + 0x0008)
   1574 36 53              2533 	ld	(hl),#0x53
   1576 23                 2534 	inc	hl
   1577 36 7C              2535 	ld	(hl),#0x7C
   1579 23                 2536 	inc	hl
   157A 36 A9              2537 	ld	(hl),#0xA9
   157C 23                 2538 	inc	hl
   157D 36 1E              2539 	ld	(hl),#0x1E
   157F 21r65r04           2540 	ld	hl,#(_key_b + 0x000c)
   1582 36 B3              2541 	ld	(hl),#0xB3
   1584 23                 2542 	inc	hl
   1585 36 E0              2543 	ld	(hl),#0xE0
   1587 23                 2544 	inc	hl
   1588 36 A8              2545 	ld	(hl),#0xA8
   158A 23                 2546 	inc	hl
   158B 36 CF              2547 	ld	(hl),#0xCF
                           2548 ;--------------------------------------------------------
                           2549 ; Home
                           2550 ;--------------------------------------------------------
                           2551 	.area _HOME
                           2552 	.area _HOME
                           2553 ;--------------------------------------------------------
                           2554 ; code
                           2555 ;--------------------------------------------------------
                           2556 	.area _CODE
                           2557 ;main.c:271: UINT8 divide_UINT8(UINT8 a, UINT8 b)
                           2558 ;	---------------------------------
                           2559 ; Function divide_UINT8
                           2560 ; ---------------------------------
   0000                    2561 _divide_UINT8::
                           2562 ;main.c:275: while (a >= b) {
   0000 06 00              2563 	ld	b,#0x00
   0002                    2564 00101$:
   0002 F8 02              2565 	ldhl	sp,#2
   0004 2A                 2566 	ld	a,(hl+)
   0005 96                 2567 	sub	a, (hl)
   0006 38 08              2568 	jr	C,00103$
                           2569 ;main.c:276: a -= b;
   0008 2B                 2570 	dec	hl
   0009 2A                 2571 	ld	a,(hl+)
   000A 96                 2572 	sub	a, (hl)
   000B 2B                 2573 	dec	hl
   000C 77                 2574 	ld	(hl),a
                           2575 ;main.c:277: result++;
   000D 04                 2576 	inc	b
   000E 18 F2              2577 	jr	00101$
   0010                    2578 00103$:
                           2579 ;main.c:279: return result;
   0010 58                 2580 	ld	e,b
   0011 C9                 2581 	ret
   0012                    2582 _girl_tiles:
   0012 00                 2583 	.db #0x00	; 0
   0013 00                 2584 	.db #0x00	; 0
   0014 00                 2585 	.db #0x00	; 0
   0015 00                 2586 	.db #0x00	; 0
   0016 00                 2587 	.db #0x00	; 0
   0017 00                 2588 	.db #0x00	; 0
   0018 01                 2589 	.db #0x01	; 1
   0019 01                 2590 	.db #0x01	; 1
   001A 03                 2591 	.db #0x03	; 3
   001B 03                 2592 	.db #0x03	; 3
   001C 02                 2593 	.db #0x02	; 2
   001D 03                 2594 	.db #0x03	; 3
   001E 02                 2595 	.db #0x02	; 2
   001F 03                 2596 	.db #0x03	; 3
   0020 02                 2597 	.db #0x02	; 2
   0021 03                 2598 	.db #0x03	; 3
   0022 02                 2599 	.db #0x02	; 2
   0023 03                 2600 	.db #0x03	; 3
   0024 03                 2601 	.db #0x03	; 3
   0025 02                 2602 	.db #0x02	; 2
   0026 02                 2603 	.db #0x02	; 2
   0027 03                 2604 	.db #0x03	; 3
   0028 01                 2605 	.db #0x01	; 1
   0029 01                 2606 	.db #0x01	; 1
   002A 00                 2607 	.db #0x00	; 0
   002B 00                 2608 	.db #0x00	; 0
   002C 00                 2609 	.db #0x00	; 0
   002D 00                 2610 	.db #0x00	; 0
   002E 00                 2611 	.db #0x00	; 0
   002F 00                 2612 	.db #0x00	; 0
   0030 00                 2613 	.db #0x00	; 0
   0031 00                 2614 	.db #0x00	; 0
   0032 1F                 2615 	.db #0x1F	; 31
   0033 1F                 2616 	.db #0x1F	; 31
   0034 70                 2617 	.db #0x70	; 112	'p'
   0035 7F                 2618 	.db #0x7F	; 127
   0036 C0                 2619 	.db #0xC0	; 192
   0037 FF                 2620 	.db #0xFF	; 255
   0038 80                 2621 	.db #0x80	; 128
   0039 FF                 2622 	.db #0xFF	; 255
   003A 40                 2623 	.db #0x40	; 64
   003B BF                 2624 	.db #0xBF	; 191
   003C D0                 2625 	.db #0xD0	; 208
   003D 3F                 2626 	.db #0x3F	; 63
   003E 89                 2627 	.db #0x89	; 137
   003F 7F                 2628 	.db #0x7F	; 127
   0040 34                 2629 	.db #0x34	; 52	'4'
   0041 EF                 2630 	.db #0xEF	; 239
   0042 7B                 2631 	.db #0x7B	; 123
   0043 D6                 2632 	.db #0xD6	; 214
   0044 5F                 2633 	.db #0x5F	; 95
   0045 CF                 2634 	.db #0xCF	; 207
   0046 47                 2635 	.db #0x47	; 71	'G'
   0047 C0                 2636 	.db #0xC0	; 192
   0048 40                 2637 	.db #0x40	; 64
   0049 C0                 2638 	.db #0xC0	; 192
   004A D8                 2639 	.db #0xD8	; 216
   004B D8                 2640 	.db #0xD8	; 216
   004C 64                 2641 	.db #0x64	; 100	'd'
   004D 64                 2642 	.db #0x64	; 100	'd'
   004E 38                 2643 	.db #0x38	; 56	'8'
   004F 20                 2644 	.db #0x20	; 32
   0050 70                 2645 	.db #0x70	; 112	'p'
   0051 71                 2646 	.db #0x71	; 113	'q'
   0052 00                 2647 	.db #0x00	; 0
   0053 00                 2648 	.db #0x00	; 0
   0054 01                 2649 	.db #0x01	; 1
   0055 01                 2650 	.db #0x01	; 1
   0056 02                 2651 	.db #0x02	; 2
   0057 02                 2652 	.db #0x02	; 2
   0058 05                 2653 	.db #0x05	; 5
   0059 04                 2654 	.db #0x04	; 4
   005A 02                 2655 	.db #0x02	; 2
   005B 02                 2656 	.db #0x02	; 2
   005C 01                 2657 	.db #0x01	; 1
   005D 01                 2658 	.db #0x01	; 1
   005E 03                 2659 	.db #0x03	; 3
   005F 02                 2660 	.db #0x02	; 2
   0060 02                 2661 	.db #0x02	; 2
   0061 02                 2662 	.db #0x02	; 2
   0062 04                 2663 	.db #0x04	; 4
   0063 04                 2664 	.db #0x04	; 4
   0064 04                 2665 	.db #0x04	; 4
   0065 04                 2666 	.db #0x04	; 4
   0066 07                 2667 	.db #0x07	; 7
   0067 04                 2668 	.db #0x04	; 4
   0068 03                 2669 	.db #0x03	; 3
   0069 03                 2670 	.db #0x03	; 3
   006A 00                 2671 	.db #0x00	; 0
   006B 00                 2672 	.db #0x00	; 0
   006C 00                 2673 	.db #0x00	; 0
   006D 00                 2674 	.db #0x00	; 0
   006E 00                 2675 	.db #0x00	; 0
   006F 00                 2676 	.db #0x00	; 0
   0070 00                 2677 	.db #0x00	; 0
   0071 00                 2678 	.db #0x00	; 0
   0072 8F                 2679 	.db #0x8F	; 143
   0073 8F                 2680 	.db #0x8F	; 143
   0074 00                 2681 	.db #0x00	; 0
   0075 05                 2682 	.db #0x05	; 5
   0076 80                 2683 	.db #0x80	; 128
   0077 07                 2684 	.db #0x07	; 7
   0078 40                 2685 	.db #0x40	; 64
   0079 05                 2686 	.db #0x05	; 5
   007A A0                 2687 	.db #0xA0	; 160
   007B 00                 2688 	.db #0x00	; 0
   007C 50                 2689 	.db #0x50	; 80	'P'
   007D 00                 2690 	.db #0x00	; 0
   007E F8                 2691 	.db #0xF8	; 248
   007F F8                 2692 	.db #0xF8	; 248
   0080 FF                 2693 	.db #0xFF	; 255
   0081 47                 2694 	.db #0x47	; 71	'G'
   0082 7F                 2695 	.db #0x7F	; 127
   0083 42                 2696 	.db #0x42	; 66	'B'
   0084 7F                 2697 	.db #0x7F	; 127
   0085 7F                 2698 	.db #0x7F	; 127
   0086 AA                 2699 	.db #0xAA	; 170
   0087 B7                 2700 	.db #0xB7	; 183
   0088 AA                 2701 	.db #0xAA	; 170
   0089 B5                 2702 	.db #0xB5	; 181
   008A 3F                 2703 	.db #0x3F	; 63
   008B 3F                 2704 	.db #0x3F	; 63
   008C 12                 2705 	.db #0x12	; 18
   008D 12                 2706 	.db #0x12	; 18
   008E 12                 2707 	.db #0x12	; 18
   008F 12                 2708 	.db #0x12	; 18
   0090 3E                 2709 	.db #0x3E	; 62
   0091 3E                 2710 	.db #0x3E	; 62
   0092 F0                 2711 	.db #0xF0	; 240
   0093 F0                 2712 	.db #0xF0	; 240
   0094 1C                 2713 	.db #0x1C	; 28
   0095 FC                 2714 	.db #0xFC	; 252
   0096 26                 2715 	.db #0x26	; 38
   0097 DE                 2716 	.db #0xDE	; 222
   0098 1B                 2717 	.db #0x1B	; 27
   0099 E7                 2718 	.db #0xE7	; 231
   009A 09                 2719 	.db #0x09	; 9
   009B F7                 2720 	.db #0xF7	; 247
   009C 05                 2721 	.db #0x05	; 5
   009D FB                 2722 	.db #0xFB	; 251
   009E 00                 2723 	.db #0x00	; 0
   009F FF                 2724 	.db #0xFF	; 255
   00A0 80                 2725 	.db #0x80	; 128
   00A1 FF                 2726 	.db #0xFF	; 255
   00A2 49                 2727 	.db #0x49	; 73	'I'
   00A3 FE                 2728 	.db #0xFE	; 254
   00A4 B5                 2729 	.db #0xB5	; 181
   00A5 6E                 2730 	.db #0x6E	; 110	'n'
   00A6 FD                 2731 	.db #0xFD	; 253
   00A7 FF                 2732 	.db #0xFF	; 255
   00A8 7F                 2733 	.db #0x7F	; 127
   00A9 07                 2734 	.db #0x07	; 7
   00AA 36                 2735 	.db #0x36	; 54	'6'
   00AB 36                 2736 	.db #0x36	; 54	'6'
   00AC 4C                 2737 	.db #0x4C	; 76	'L'
   00AD 4C                 2738 	.db #0x4C	; 76	'L'
   00AE 38                 2739 	.db #0x38	; 56	'8'
   00AF 08                 2740 	.db #0x08	; 8
   00B0 1C                 2741 	.db #0x1C	; 28
   00B1 1C                 2742 	.db #0x1C	; 28
   00B2 00                 2743 	.db #0x00	; 0
   00B3 00                 2744 	.db #0x00	; 0
   00B4 00                 2745 	.db #0x00	; 0
   00B5 00                 2746 	.db #0x00	; 0
   00B6 00                 2747 	.db #0x00	; 0
   00B7 00                 2748 	.db #0x00	; 0
   00B8 00                 2749 	.db #0x00	; 0
   00B9 00                 2750 	.db #0x00	; 0
   00BA 00                 2751 	.db #0x00	; 0
   00BB 00                 2752 	.db #0x00	; 0
   00BC 80                 2753 	.db #0x80	; 128
   00BD 80                 2754 	.db #0x80	; 128
   00BE 80                 2755 	.db #0x80	; 128
   00BF 80                 2756 	.db #0x80	; 128
   00C0 80                 2757 	.db #0x80	; 128
   00C1 80                 2758 	.db #0x80	; 128
   00C2 80                 2759 	.db #0x80	; 128
   00C3 80                 2760 	.db #0x80	; 128
   00C4 80                 2761 	.db #0x80	; 128
   00C5 80                 2762 	.db #0x80	; 128
   00C6 00                 2763 	.db #0x00	; 0
   00C7 00                 2764 	.db #0x00	; 0
   00C8 00                 2765 	.db #0x00	; 0
   00C9 00                 2766 	.db #0x00	; 0
   00CA 00                 2767 	.db #0x00	; 0
   00CB 00                 2768 	.db #0x00	; 0
   00CC 00                 2769 	.db #0x00	; 0
   00CD 00                 2770 	.db #0x00	; 0
   00CE 00                 2771 	.db #0x00	; 0
   00CF 00                 2772 	.db #0x00	; 0
   00D0 00                 2773 	.db #0x00	; 0
   00D1 00                 2774 	.db #0x00	; 0
   00D2 E2                 2775 	.db #0xE2	; 226
   00D3 E2                 2776 	.db #0xE2	; 226
   00D4 01                 2777 	.db #0x01	; 1
   00D5 41                 2778 	.db #0x41	; 65	'A'
   00D6 02                 2779 	.db #0x02	; 2
   00D7 40                 2780 	.db #0x40	; 64
   00D8 05                 2781 	.db #0x05	; 5
   00D9 40                 2782 	.db #0x40	; 64
   00DA 0A                 2783 	.db #0x0A	; 10
   00DB 00                 2784 	.db #0x00	; 0
   00DC 15                 2785 	.db #0x15	; 21
   00DD 01                 2786 	.db #0x01	; 1
   00DE 3F                 2787 	.db #0x3F	; 63
   00DF 3E                 2788 	.db #0x3E	; 62
   00E0 FE                 2789 	.db #0xFE	; 254
   00E1 C4                 2790 	.db #0xC4	; 196
   00E2 FC                 2791 	.db #0xFC	; 252
   00E3 84                 2792 	.db #0x84	; 132
   00E4 FC                 2793 	.db #0xFC	; 252
   00E5 FC                 2794 	.db #0xFC	; 252
   00E6 AB                 2795 	.db #0xAB	; 171
   00E7 DA                 2796 	.db #0xDA	; 218
   00E8 AB                 2797 	.db #0xAB	; 171
   00E9 5B                 2798 	.db #0x5B	; 91
   00EA F8                 2799 	.db #0xF8	; 248
   00EB F8                 2800 	.db #0xF8	; 248
   00EC 90                 2801 	.db #0x90	; 144
   00ED 90                 2802 	.db #0x90	; 144
   00EE 90                 2803 	.db #0x90	; 144
   00EF 90                 2804 	.db #0x90	; 144
   00F0 F8                 2805 	.db #0xF8	; 248
   00F1 F8                 2806 	.db #0xF8	; 248
   00F2 00                 2807 	.db #0x00	; 0
   00F3 00                 2808 	.db #0x00	; 0
   00F4 00                 2809 	.db #0x00	; 0
   00F5 00                 2810 	.db #0x00	; 0
   00F6 80                 2811 	.db #0x80	; 128
   00F7 80                 2812 	.db #0x80	; 128
   00F8 40                 2813 	.db #0x40	; 64
   00F9 40                 2814 	.db #0x40	; 64
   00FA 80                 2815 	.db #0x80	; 128
   00FB 80                 2816 	.db #0x80	; 128
   00FC 00                 2817 	.db #0x00	; 0
   00FD 00                 2818 	.db #0x00	; 0
   00FE 80                 2819 	.db #0x80	; 128
   00FF 80                 2820 	.db #0x80	; 128
   0100 80                 2821 	.db #0x80	; 128
   0101 80                 2822 	.db #0x80	; 128
   0102 40                 2823 	.db #0x40	; 64
   0103 40                 2824 	.db #0x40	; 64
   0104 40                 2825 	.db #0x40	; 64
   0105 40                 2826 	.db #0x40	; 64
   0106 C0                 2827 	.db #0xC0	; 192
   0107 40                 2828 	.db #0x40	; 64
   0108 80                 2829 	.db #0x80	; 128
   0109 80                 2830 	.db #0x80	; 128
   010A 00                 2831 	.db #0x00	; 0
   010B 00                 2832 	.db #0x00	; 0
   010C 00                 2833 	.db #0x00	; 0
   010D 00                 2834 	.db #0x00	; 0
   010E 00                 2835 	.db #0x00	; 0
   010F 00                 2836 	.db #0x00	; 0
   0110 00                 2837 	.db #0x00	; 0
   0111 00                 2838 	.db #0x00	; 0
   0112                    2839 _solution_seq:
   0112 08                 2840 	.db #0x08	; 8
   0113 02                 2841 	.db #0x02	; 2
   0114 10                 2842 	.db #0x10	; 16
   0115 04                 2843 	.db #0x04	; 4
   0116 20                 2844 	.db #0x20	; 32
   0117 10                 2845 	.db #0x10	; 16
   0118 04                 2846 	.db #0x04	; 4
   0119 08                 2847 	.db #0x08	; 8
   011A 08                 2848 	.db #0x08	; 8
   011B 10                 2849 	.db #0x10	; 16
   011C 04                 2850 	.db #0x04	; 4
   011D 01                 2851 	.db #0x01	; 1
   011E 02                 2852 	.db #0x02	; 2
   011F 01                 2853 	.db #0x01	; 1
   0120 20                 2854 	.db #0x20	; 32
   0121 08                 2855 	.db #0x08	; 8
                           2856 ;main.c:290: void set_text_map(char *text, UINT8 len)
                           2857 ;	---------------------------------
                           2858 ; Function set_text_map
                           2859 ; ---------------------------------
   0122                    2860 _set_text_map::
   0122 E8 FB              2861 	add	sp, #-5
                           2862 ;main.c:299: memset(text_map, EMPTY_TILE_ADDR, text_map_width*text_map_height);
   0124 11r08r04           2863 	ld	de,#_text_map
   0127 21 20 00           2864 	ld	hl,#0x0020
   012A E5                 2865 	push	hl
   012B 2E 24              2866 	ld	l, #0x24
   012D E5                 2867 	push	hl
   012E D5                 2868 	push	de
   012F CDr00r00           2869 	call	_memset
   0132 E8 06              2870 	add	sp, #6
                           2871 ;main.c:302: if (!text || len > 0x20U || len <= 0x0U) {
   0134 F8 08              2872 	ldhl	sp,#8
   0136 3A                 2873 	ld	a,(hl-)
   0137 B6                 2874 	or	a,(hl)
   0138 CAr84r02           2875 	jp	Z,00141$
   013B 23                 2876 	inc	hl
   013C 23                 2877 	inc	hl
   013D 46                 2878 	ld	b,(hl)
   013E 0E 00              2879 	ld	c,#0x00
   0140 3E 20              2880 	ld	a,#0x20
   0142 B8                 2881 	cp	a, b
   0143 3E 00              2882 	ld	a,#0x00
   0145 99                 2883 	sbc	a, c
   0146 DAr84r02           2884 	jp	C,00141$
   0149 7E                 2885 	ld	a,(hl)
   014A B7                 2886 	or	a, a
                           2887 ;main.c:303: return;
                           2888 ;main.c:309: for (i = 0; i < len; ++i) {
   014B CAr84r02           2889 	jp	Z,00141$
   014E F8 00              2890 	ldhl	sp,#0
   0150 36 00              2891 	ld	(hl),#0x00
   0152                    2892 00139$:
   0152 F8 00              2893 	ldhl	sp,#0
   0154 7E                 2894 	ld	a,(hl)
   0155 F8 09              2895 	ldhl	sp,#9
   0157 96                 2896 	sub	a, (hl)
   0158 D2r76r02           2897 	jp	NC,00137$
                           2898 ;main.c:311: if (text[i] >= 'A' && text[i] <= 'Z') {
   015B 2B                 2899 	dec	hl
   015C 2B                 2900 	dec	hl
   015D 5E                 2901 	ld	e,(hl)
   015E 23                 2902 	inc	hl
   015F 56                 2903 	ld	d,(hl)
   0160 F8 00              2904 	ldhl	sp,#0
   0162 6E                 2905 	ld	l,(hl)
   0163 26 00              2906 	ld	h,#0x00
   0165 19                 2907 	add	hl,de
   0166 7D                 2908 	ld	a,l
   0167 54                 2909 	ld	d,h
   0168 F8 01              2910 	ldhl	sp,#1
   016A 22                 2911 	ld	(hl+),a
   016B 72                 2912 	ld	(hl),d
   016C 2B                 2913 	dec	hl
   016D 5E                 2914 	ld	e,(hl)
   016E 23                 2915 	inc	hl
   016F 56                 2916 	ld	d,(hl)
   0170 1A                 2917 	ld	a,(de)
   0171 47                 2918 	ld	b,a
                           2919 ;main.c:312: text_map[i] = text[i] - 'A' + 0xAU; // eg. character A - ascii value of A + index of A in VRAM
   0172 11r08r04           2920 	ld	de,#_text_map
   0175 2B                 2921 	dec	hl
   0176 2B                 2922 	dec	hl
   0177 6E                 2923 	ld	l,(hl)
   0178 26 00              2924 	ld	h,#0x00
   017A 19                 2925 	add	hl,de
   017B 7D                 2926 	ld	a,l
   017C 54                 2927 	ld	d,h
   017D F8 03              2928 	ldhl	sp,#3
   017F 22                 2929 	ld	(hl+),a
   0180 72                 2930 	ld	(hl),d
                           2931 ;main.c:311: if (text[i] >= 'A' && text[i] <= 'Z') {
   0181 3E 41              2932 	ld	a,#0x41
   0183 5F                 2933 	ld	e,a
   0184 78                 2934 	ld	a,b
   0185 57                 2935 	ld	d,a
   0186 78                 2936 	ld	a,b
   0187 EE 80              2937 	xor	a, #0x80
   0189 D6 C1              2938 	sub	a, #0xC1
   018B 38 24              2939 	jr	C,00106$
   018D 78                 2940 	ld	a,b
   018E 5F                 2941 	ld	e,a
   018F 3E 5A              2942 	ld	a,#0x5A
   0191 57                 2943 	ld	d,a
   0192 3E 5A              2944 	ld	a,#0x5A
   0194 90                 2945 	sub	a, b
   0195 CB 7B              2946 	bit	7, e
   0197 28 07              2947 	jr	Z,00212$
   0199 CB 7A              2948 	bit	7, d
   019B 20 08              2949 	jr	NZ,00213$
   019D BF                 2950 	cp	a, a
   019E 18 05              2951 	jr	00213$
   01A0                    2952 00212$:
   01A0 CB 7A              2953 	bit	7, d
   01A2 28 01              2954 	jr	Z,00213$
   01A4 37                 2955 	scf
   01A5                    2956 00213$:
   01A5 38 0A              2957 	jr	C,00106$
                           2958 ;main.c:312: text_map[i] = text[i] - 'A' + 0xAU; // eg. character A - ascii value of A + index of A in VRAM
   01A7 78                 2959 	ld	a,b
   01A8 C6 C9              2960 	add	a, #0xC9
   01AA 47                 2961 	ld	b,a
   01AB F8 03              2962 	ldhl	sp,#3
   01AD 2A                 2963 	ld	a,(hl+)
   01AE 66                 2964 	ld	h,(hl)
   01AF 6F                 2965 	ld	l,a
   01B0 70                 2966 	ld	(hl),b
   01B1                    2967 00106$:
                           2968 ;main.c:316: if (text[i] >= '0' && text[i] <= '9') {
   01B1 F8 02              2969 	ldhl	sp,#2
   01B3 2B                 2970 	dec	hl
   01B4 5E                 2971 	ld	e,(hl)
   01B5 23                 2972 	inc	hl
   01B6 56                 2973 	ld	d,(hl)
   01B7 1A                 2974 	ld	a,(de)
   01B8 47                 2975 	ld	b,a
   01B9 3E 30              2976 	ld	a,#0x30
   01BB 5F                 2977 	ld	e,a
   01BC 78                 2978 	ld	a,b
   01BD 57                 2979 	ld	d,a
   01BE 78                 2980 	ld	a,b
   01BF EE 80              2981 	xor	a, #0x80
   01C1 D6 B0              2982 	sub	a, #0xB0
   01C3 38 24              2983 	jr	C,00109$
   01C5 78                 2984 	ld	a,b
   01C6 5F                 2985 	ld	e,a
   01C7 3E 39              2986 	ld	a,#0x39
   01C9 57                 2987 	ld	d,a
   01CA 3E 39              2988 	ld	a,#0x39
   01CC 90                 2989 	sub	a, b
   01CD CB 7B              2990 	bit	7, e
   01CF 28 07              2991 	jr	Z,00214$
   01D1 CB 7A              2992 	bit	7, d
   01D3 20 08              2993 	jr	NZ,00215$
   01D5 BF                 2994 	cp	a, a
   01D6 18 05              2995 	jr	00215$
   01D8                    2996 00214$:
   01D8 CB 7A              2997 	bit	7, d
   01DA 28 01              2998 	jr	Z,00215$
   01DC 37                 2999 	scf
   01DD                    3000 00215$:
   01DD 38 0A              3001 	jr	C,00109$
                           3002 ;main.c:317: text_map[i] = text[i] - '0';
   01DF 78                 3003 	ld	a,b
   01E0 C6 D0              3004 	add	a,#0xD0
   01E2 47                 3005 	ld	b,a
   01E3 F8 03              3006 	ldhl	sp,#3
   01E5 2A                 3007 	ld	a,(hl+)
   01E6 66                 3008 	ld	h,(hl)
   01E7 6F                 3009 	ld	l,a
   01E8 70                 3010 	ld	(hl),b
   01E9                    3011 00109$:
                           3012 ;main.c:321: if (text[i] == '~') {
   01E9 F8 02              3013 	ldhl	sp,#2
   01EB 2B                 3014 	dec	hl
   01EC 5E                 3015 	ld	e,(hl)
   01ED 23                 3016 	inc	hl
   01EE 56                 3017 	ld	d,(hl)
   01EF 1A                 3018 	ld	a,(de)
   01F0 47                 3019 	ld	b,a
   01F1 D6 7E              3020 	sub	a, #0x7E
   01F3 20 09              3021 	jr	NZ,00135$
                           3022 ;main.c:322: text_map[i] = 0x25U;
   01F5 23                 3023 	inc	hl
   01F6 2A                 3024 	ld	a,(hl+)
   01F7 66                 3025 	ld	h,(hl)
   01F8 6F                 3026 	ld	l,a
   01F9 36 25              3027 	ld	(hl),#0x25
   01FB C3r70r02           3028 	jp	00140$
   01FE                    3029 00135$:
                           3030 ;main.c:323: } else if (text[i] == '_') {
   01FE 78                 3031 	ld	a,b
   01FF D6 5F              3032 	sub	a, #0x5F
   0201 20 0A              3033 	jr	NZ,00132$
                           3034 ;main.c:324: text_map[i] = 0x26U;
   0203 F8 03              3035 	ldhl	sp,#3
   0205 2A                 3036 	ld	a,(hl+)
   0206 66                 3037 	ld	h,(hl)
   0207 6F                 3038 	ld	l,a
   0208 36 26              3039 	ld	(hl),#0x26
   020A C3r70r02           3040 	jp	00140$
   020D                    3041 00132$:
                           3042 ;main.c:325: } else if (text[i] == '!') {
   020D 78                 3043 	ld	a,b
   020E D6 21              3044 	sub	a, #0x21
   0210 20 0A              3045 	jr	NZ,00129$
                           3046 ;main.c:326: text_map[i] = 0x27U;
   0212 F8 03              3047 	ldhl	sp,#3
   0214 2A                 3048 	ld	a,(hl+)
   0215 66                 3049 	ld	h,(hl)
   0216 6F                 3050 	ld	l,a
   0217 36 27              3051 	ld	(hl),#0x27
   0219 C3r70r02           3052 	jp	00140$
   021C                    3053 00129$:
                           3054 ;main.c:327: } else if (text[i] == '?') {
   021C 78                 3055 	ld	a,b
   021D D6 3F              3056 	sub	a, #0x3F
   021F 20 0A              3057 	jr	NZ,00126$
                           3058 ;main.c:328: text_map[i] = 0x28U;
   0221 F8 03              3059 	ldhl	sp,#3
   0223 2A                 3060 	ld	a,(hl+)
   0224 66                 3061 	ld	h,(hl)
   0225 6F                 3062 	ld	l,a
   0226 36 28              3063 	ld	(hl),#0x28
   0228 C3r70r02           3064 	jp	00140$
   022B                    3065 00126$:
                           3066 ;main.c:329: } else if (text[i] == '\'') {
   022B 78                 3067 	ld	a,b
   022C D6 27              3068 	sub	a, #0x27
   022E 20 0A              3069 	jr	NZ,00123$
                           3070 ;main.c:330: text_map[i] = 0x29U;
   0230 F8 03              3071 	ldhl	sp,#3
   0232 2A                 3072 	ld	a,(hl+)
   0233 66                 3073 	ld	h,(hl)
   0234 6F                 3074 	ld	l,a
   0235 36 29              3075 	ld	(hl),#0x29
   0237 C3r70r02           3076 	jp	00140$
   023A                    3077 00123$:
                           3078 ;main.c:331: } else if (text[i] == '.') {
   023A 78                 3079 	ld	a,b
   023B D6 2E              3080 	sub	a, #0x2E
   023D 20 09              3081 	jr	NZ,00120$
                           3082 ;main.c:332: text_map[i] = 0x2AU;
   023F F8 03              3083 	ldhl	sp,#3
   0241 2A                 3084 	ld	a,(hl+)
   0242 66                 3085 	ld	h,(hl)
   0243 6F                 3086 	ld	l,a
   0244 36 2A              3087 	ld	(hl),#0x2A
   0246 18 28              3088 	jr	00140$
   0248                    3089 00120$:
                           3090 ;main.c:333: } else if (text[i] == ',') {
   0248 78                 3091 	ld	a,b
   0249 D6 2C              3092 	sub	a, #0x2C
   024B 20 09              3093 	jr	NZ,00117$
                           3094 ;main.c:334: text_map[i] = 0x2BU;
   024D F8 03              3095 	ldhl	sp,#3
   024F 2A                 3096 	ld	a,(hl+)
   0250 66                 3097 	ld	h,(hl)
   0251 6F                 3098 	ld	l,a
   0252 36 2B              3099 	ld	(hl),#0x2B
   0254 18 1A              3100 	jr	00140$
   0256                    3101 00117$:
                           3102 ;main.c:335: } else if (text[i] == '') {
   0256 78                 3103 	ld	a,b
   0257 D6 E2              3104 	sub	a, #0xE2
   0259 20 09              3105 	jr	NZ,00114$
                           3106 ;main.c:336: text_map[i] = 0x2CU;
   025B F8 03              3107 	ldhl	sp,#3
   025D 2A                 3108 	ld	a,(hl+)
   025E 66                 3109 	ld	h,(hl)
   025F 6F                 3110 	ld	l,a
   0260 36 2C              3111 	ld	(hl),#0x2C
   0262 18 0C              3112 	jr	00140$
   0264                    3113 00114$:
                           3114 ;main.c:337: } else if (text[i] == ':') {
   0264 78                 3115 	ld	a,b
   0265 D6 3A              3116 	sub	a, #0x3A
   0267 20 07              3117 	jr	NZ,00140$
                           3118 ;main.c:338: text_map[i] = 0x2DU;
   0269 F8 03              3119 	ldhl	sp,#3
   026B 2A                 3120 	ld	a,(hl+)
   026C 66                 3121 	ld	h,(hl)
   026D 6F                 3122 	ld	l,a
   026E 36 2D              3123 	ld	(hl),#0x2D
   0270                    3124 00140$:
                           3125 ;main.c:309: for (i = 0; i < len; ++i) {
   0270 F8 00              3126 	ldhl	sp,#0
   0272 34                 3127 	inc	(hl)
   0273 C3r52r01           3128 	jp	00139$
   0276                    3129 00137$:
                           3130 ;main.c:343: text_map[len] = arrow_address_1;
   0276 11r08r04           3131 	ld	de,#_text_map
   0279 F8 09              3132 	ldhl	sp,#9
   027B 6E                 3133 	ld	l,(hl)
   027C 26 00              3134 	ld	h,#0x00
   027E 19                 3135 	add	hl,de
   027F 4D                 3136 	ld	c,l
   0280 44                 3137 	ld	b,h
   0281 3E 2E              3138 	ld	a,#0x2E
   0283 02                 3139 	ld	(bc),a
   0284                    3140 00141$:
   0284 E8 05              3141 	add	sp, #5
   0286 C9                 3142 	ret
                           3143 ;main.c:348: void clear_window()
                           3144 ;	---------------------------------
                           3145 ; Function clear_window
                           3146 ; ---------------------------------
   0287                    3147 _clear_window::
                           3148 ;main.c:351: memset(text_map, EMPTY_TILE_ADDR, text_map_width * text_map_height);
   0287 11r08r04           3149 	ld	de,#_text_map
   028A 21 20 00           3150 	ld	hl,#0x0020
   028D E5                 3151 	push	hl
   028E 2E 24              3152 	ld	l, #0x24
   0290 E5                 3153 	push	hl
   0291 D5                 3154 	push	de
   0292 CDr00r00           3155 	call	_memset
   0295 E8 06              3156 	add	sp, #6
                           3157 ;main.c:352: set_win_tiles(0x2U, 0x2U, text_map_width, text_map_height, text_map);
   0297 11r08r04           3158 	ld	de,#_text_map
   029A D5                 3159 	push	de
   029B 21 10 02           3160 	ld	hl,#0x0210
   029E E5                 3161 	push	hl
   029F 2E 02              3162 	ld	l, #0x02
   02A1 E5                 3163 	push	hl
   02A2 CDr00r00           3164 	call	_set_win_tiles
   02A5 E8 06              3165 	add	sp, #6
   02A7 C9                 3166 	ret
                           3167 ;main.c:355: void show_text(char *text)
                           3168 ;	---------------------------------
                           3169 ; Function show_text
                           3170 ; ---------------------------------
   02A8                    3171 _show_text::
   02A8 E8 FD              3172 	add	sp, #-3
                           3173 ;main.c:358: UINT8 cursor_state = 0;
   02AA F8 02              3174 	ldhl	sp,#2
   02AC 36 00              3175 	ld	(hl),#0x00
                           3176 ;main.c:359: UINT8 text_len = strlen(text);
   02AE F8 05              3177 	ldhl	sp,#5
   02B0 2A                 3178 	ld	a,(hl+)
   02B1 66                 3179 	ld	h,(hl)
   02B2 6F                 3180 	ld	l,a
   02B3 E5                 3181 	push	hl
   02B4 CDr00r00           3182 	call	_strlen
   02B7 E8 02              3183 	add	sp, #2
   02B9 43                 3184 	ld	b,e
                           3185 ;main.c:360: UINT8 cursor_index = text_len;
   02BA 48                 3186 	ld	c,b
                           3187 ;main.c:362: clear_window();
   02BB C5                 3188 	push	bc
   02BC CDr87r02           3189 	call	_clear_window
   02BF C1                 3190 	pop	bc
                           3191 ;main.c:363: set_text_map(text, text_len);
   02C0 C5                 3192 	push	bc
   02C1 C5                 3193 	push	bc
   02C2 33                 3194 	inc	sp
   02C3 F8 08              3195 	ldhl	sp,#8
   02C5 2A                 3196 	ld	a,(hl+)
   02C6 66                 3197 	ld	h,(hl)
   02C7 6F                 3198 	ld	l,a
   02C8 E5                 3199 	push	hl
   02C9 CDr22r01           3200 	call	_set_text_map
   02CC E8 03              3201 	add	sp, #3
   02CE C1                 3202 	pop	bc
                           3203 ;main.c:366: text_len++;
   02CF 04                 3204 	inc	b
                           3205 ;main.c:367: scroll_text(text_len);
   02D0 C5                 3206 	push	bc
   02D1 C5                 3207 	push	bc
   02D2 33                 3208 	inc	sp
   02D3 CDr50r03           3209 	call	_scroll_text
   02D6 33                 3210 	inc	sp
   02D7 C1                 3211 	pop	bc
                           3212 ;main.c:371: x = 2 + (cursor_index % 16);
   02D8 79                 3213 	ld	a,c
   02D9 E6 0F              3214 	and	a, #0x0F
   02DB C6 02              3215 	add	a, #0x02
   02DD F8 00              3216 	ldhl	sp,#0
   02DF 77                 3217 	ld	(hl),a
                           3218 ;main.c:373: y = 2 + divide_UINT8(cursor_index, 16);
   02E0 C5                 3219 	push	bc
   02E1 3E 10              3220 	ld	a,#0x10
   02E3 F5                 3221 	push	af
   02E4 33                 3222 	inc	sp
   02E5 79                 3223 	ld	a,c
   02E6 F5                 3224 	push	af
   02E7 33                 3225 	inc	sp
   02E8 CDr00r00           3226 	call	_divide_UINT8
   02EB E8 02              3227 	add	sp, #2
   02ED 7B                 3228 	ld	a,e
   02EE C1                 3229 	pop	bc
   02EF C6 02              3230 	add	a, #0x02
   02F1 F8 01              3231 	ldhl	sp,#1
   02F3 77                 3232 	ld	(hl),a
                           3233 ;main.c:375: while (!joypad()) {
   02F4 3Er08              3234 	ld	a,#<(_text_map)
   02F6 81                 3235 	add	a, c
   02F7 4F                 3236 	ld	c,a
   02F8 3Es04              3237 	ld	a,#>(_text_map)
   02FA CE 00              3238 	adc	a, #0x00
   02FC 47                 3239 	ld	b,a
   02FD                    3240 00104$:
   02FD C5                 3241 	push	bc
   02FE CDr00r00           3242 	call	_joypad
   0301 7B                 3243 	ld	a,e
   0302 C1                 3244 	pop	bc
   0303 B7                 3245 	or	a, a
   0304 C2r4Dr03           3246 	jp	NZ,00107$
                           3247 ;main.c:376: if (cursor_state == 0) {
   0307 F8 02              3248 	ldhl	sp,#2
   0309 7E                 3249 	ld	a,(hl)
   030A B7                 3250 	or	a, a
   030B 20 05              3251 	jr	NZ,00102$
                           3252 ;main.c:377: text_map[cursor_index] = arrow_address_2;
   030D 3E 2F              3253 	ld	a,#0x2F
   030F 02                 3254 	ld	(bc),a
   0310 18 03              3255 	jr	00103$
   0312                    3256 00102$:
                           3257 ;main.c:379: text_map[cursor_index] = arrow_address_1;
   0312 3E 2E              3258 	ld	a,#0x2E
   0314 02                 3259 	ld	(bc),a
   0315                    3260 00103$:
                           3261 ;main.c:382: set_win_tiles(x, y, 1, 1, &text_map[cursor_index]);
   0315 59                 3262 	ld	e, c
   0316 50                 3263 	ld	d, b
   0317 C5                 3264 	push	bc
   0318 D5                 3265 	push	de
   0319 21 01 01           3266 	ld	hl,#0x0101
   031C E5                 3267 	push	hl
   031D F8 07              3268 	ldhl	sp,#7
   031F 7E                 3269 	ld	a,(hl)
   0320 F5                 3270 	push	af
   0321 33                 3271 	inc	sp
   0322 2B                 3272 	dec	hl
   0323 7E                 3273 	ld	a,(hl)
   0324 F5                 3274 	push	af
   0325 33                 3275 	inc	sp
   0326 CDr00r00           3276 	call	_set_win_tiles
   0329 E8 06              3277 	add	sp, #6
   032B C1                 3278 	pop	bc
                           3279 ;main.c:383: cursor_state = !cursor_state;
   032C F8 02              3280 	ldhl	sp,#2
   032E 7E                 3281 	ld	a,(hl)
   032F D6 01              3282 	sub	a,#0x01
   0331 3E 00              3283 	ld	a,#0x00
   0333 17                 3284 	rla
   0334 77                 3285 	ld	(hl),a
                           3286 ;main.c:384: delay(50);
   0335 C5                 3287 	push	bc
   0336 21 32 00           3288 	ld	hl,#0x0032
   0339 E5                 3289 	push	hl
   033A CDr00r00           3290 	call	_delay
   033D E8 02              3291 	add	sp, #2
   033F C1                 3292 	pop	bc
                           3293 ;main.c:385: sleep(4);
   0340 C5                 3294 	push	bc
   0341 3E 04              3295 	ld	a,#0x04
   0343 F5                 3296 	push	af
   0344 33                 3297 	inc	sp
   0345 CDrA9r03           3298 	call	_sleep
   0348 33                 3299 	inc	sp
   0349 C1                 3300 	pop	bc
   034A C3rFDr02           3301 	jp	00104$
   034D                    3302 00107$:
   034D E8 03              3303 	add	sp, #3
   034F C9                 3304 	ret
                           3305 ;main.c:394: void scroll_text(UINT8 len)
                           3306 ;	---------------------------------
                           3307 ; Function scroll_text
                           3308 ; ---------------------------------
   0350                    3309 _scroll_text::
   0350 E8 FD              3310 	add	sp, #-3
                           3311 ;main.c:397: for (counter = 0; counter < len; ++counter) {
   0352 06 00              3312 	ld	b,#0x00
   0354                    3313 00103$:
   0354 78                 3314 	ld	a,b
   0355 F8 05              3315 	ldhl	sp,#5
   0357 96                 3316 	sub	a, (hl)
   0358 D2rA6r03           3317 	jp	NC,00105$
                           3318 ;main.c:398: x = 2 + (counter % 16);
   035B 78                 3319 	ld	a,b
   035C E6 0F              3320 	and	a, #0x0F
   035E C6 02              3321 	add	a, #0x02
   0360 F8 00              3322 	ldhl	sp,#0
   0362 77                 3323 	ld	(hl),a
                           3324 ;main.c:399: y = 2 + divide_UINT8(counter, 16);
   0363 C5                 3325 	push	bc
   0364 3E 10              3326 	ld	a,#0x10
   0366 F5                 3327 	push	af
   0367 33                 3328 	inc	sp
   0368 C5                 3329 	push	bc
   0369 33                 3330 	inc	sp
   036A CDr00r00           3331 	call	_divide_UINT8
   036D E8 02              3332 	add	sp, #2
   036F C1                 3333 	pop	bc
   0370 4B                 3334 	ld	c,e
   0371 0C                 3335 	inc	c
   0372 0C                 3336 	inc	c
                           3337 ;main.c:403: set_win_tiles(x, y, 1, 1, &text_map[counter]);
   0373 11r08r04           3338 	ld	de,#_text_map
   0376 68                 3339 	ld	l,b
   0377 26 00              3340 	ld	h,#0x00
   0379 19                 3341 	add	hl,de
   037A 7D                 3342 	ld	a,l
   037B 54                 3343 	ld	d,h
   037C F8 01              3344 	ldhl	sp,#1
   037E 22                 3345 	ld	(hl+),a
   037F 72                 3346 	ld	(hl),d
   0380 2B                 3347 	dec	hl
   0381 5E                 3348 	ld	e,(hl)
   0382 23                 3349 	inc	hl
   0383 56                 3350 	ld	d,(hl)
   0384 C5                 3351 	push	bc
   0385 D5                 3352 	push	de
   0386 21 01 01           3353 	ld	hl,#0x0101
   0389 E5                 3354 	push	hl
   038A 79                 3355 	ld	a,c
   038B F5                 3356 	push	af
   038C 33                 3357 	inc	sp
   038D F8 07              3358 	ldhl	sp,#7
   038F 7E                 3359 	ld	a,(hl)
   0390 F5                 3360 	push	af
   0391 33                 3361 	inc	sp
   0392 CDr00r00           3362 	call	_set_win_tiles
   0395 E8 06              3363 	add	sp, #6
   0397 C1                 3364 	pop	bc
                           3365 ;main.c:404: sleep(4);
   0398 C5                 3366 	push	bc
   0399 3E 04              3367 	ld	a,#0x04
   039B F5                 3368 	push	af
   039C 33                 3369 	inc	sp
   039D CDrA9r03           3370 	call	_sleep
   03A0 33                 3371 	inc	sp
   03A1 C1                 3372 	pop	bc
                           3373 ;main.c:397: for (counter = 0; counter < len; ++counter) {
   03A2 04                 3374 	inc	b
   03A3 C3r54r03           3375 	jp	00103$
   03A6                    3376 00105$:
   03A6 E8 03              3377 	add	sp, #3
   03A8 C9                 3378 	ret
                           3379 ;main.c:408: void sleep(UINT8 cycles)
                           3380 ;	---------------------------------
                           3381 ; Function sleep
                           3382 ; ---------------------------------
   03A9                    3383 _sleep::
                           3384 ;main.c:411: for(counter = 0; counter < cycles; ++counter){
   03A9 06 00              3385 	ld	b,#0x00
   03AB                    3386 00103$:
   03AB 78                 3387 	ld	a,b
   03AC F8 02              3388 	ldhl	sp,#2
   03AE 96                 3389 	sub	a, (hl)
   03AF D0                 3390 	ret	NC
                           3391 ;main.c:412: wait_vbl_done();
   03B0 C5                 3392 	push	bc
   03B1 CDr00r00           3393 	call	_wait_vbl_done
   03B4 C1                 3394 	pop	bc
                           3395 ;main.c:411: for(counter = 0; counter < cycles; ++counter){
   03B5 04                 3396 	inc	b
   03B6 18 F3              3397 	jr	00103$
   03B8 C9                 3398 	ret
                           3399 ;main.c:416: void process_button_press()
                           3400 ;	---------------------------------
                           3401 ; Function process_button_press
                           3402 ; ---------------------------------
   03B9                    3403 _process_button_press::
                           3404 ;main.c:418: UINT8 input = joypad();
   03B9 CDr00r00           3405 	call	_joypad
   03BC 7B                 3406 	ld	a,e
                           3407 ;main.c:419: if (input) {
   03BD B7                 3408 	or	a, a
   03BE C8                 3409 	ret	Z
                           3410 ;main.c:420: input_seq[input_seq_ctr] = joypad();
   03BF 3Er28              3411 	ld	a,#<(_input_seq)
   03C1 21r38r04           3412 	ld	hl,#_input_seq_ctr
   03C4 86                 3413 	add	a, (hl)
   03C5 4F                 3414 	ld	c,a
   03C6 3Es04              3415 	ld	a,#>(_input_seq)
   03C8 CE 00              3416 	adc	a, #0x00
   03CA 47                 3417 	ld	b,a
   03CB C5                 3418 	push	bc
   03CC CDr00r00           3419 	call	_joypad
   03CF 7B                 3420 	ld	a,e
   03D0 C1                 3421 	pop	bc
   03D1 02                 3422 	ld	(bc),a
                           3423 ;main.c:422: input_seq_ctr++;
   03D2 21r38r04           3424 	ld	hl,#_input_seq_ctr
   03D5 34                 3425 	inc	(hl)
                           3426 ;main.c:426: delay(50);
   03D6 21 32 00           3427 	ld	hl,#0x0032
   03D9 E5                 3428 	push	hl
   03DA CDr00r00           3429 	call	_delay
   03DD E8 02              3430 	add	sp, #2
   03DF C9                 3431 	ret
                           3432 ;main.c:430: void check_sequence()
                           3433 ;	---------------------------------
                           3434 ; Function check_sequence
                           3435 ; ---------------------------------
   03E0                    3436 _check_sequence::
   03E0 E8 FD              3437 	add	sp, #-3
                           3438 ;main.c:435: for (i = 0; i < SEQ_LEN; ++i) {
   03E2 F8 00              3439 	ldhl	sp,#0
   03E4 36 00              3440 	ld	(hl),#0x00
   03E6 23                 3441 	inc	hl
   03E7 36 00              3442 	ld	(hl),#0x00
   03E9                    3443 00107$:
                           3444 ;main.c:437: key_b[0] = 0x72ae38ba;
   03E9 21r59r04           3445 	ld	hl,#_key_b
   03EC 36 BA              3446 	ld	(hl),#0xBA
   03EE 23                 3447 	inc	hl
   03EF 36 38              3448 	ld	(hl),#0x38
   03F1 23                 3449 	inc	hl
   03F2 36 AE              3450 	ld	(hl),#0xAE
   03F4 23                 3451 	inc	hl
   03F5 36 72              3452 	ld	(hl),#0x72
                           3453 ;main.c:438: if (input_seq[i] & solution_seq[i]) {
   03F7 11r28r04           3454 	ld	de,#_input_seq
   03FA F8 01              3455 	ldhl	sp,#1
   03FC 6E                 3456 	ld	l,(hl)
   03FD 26 00              3457 	ld	h,#0x00
   03FF 19                 3458 	add	hl,de
   0400 4D                 3459 	ld	c,l
   0401 44                 3460 	ld	b,h
   0402 0A                 3461 	ld	a,(bc)
   0403 F8 02              3462 	ldhl	sp,#2
   0405 77                 3463 	ld	(hl),a
   0406 11r12r01           3464 	ld	de,#_solution_seq
   0409 2B                 3465 	dec	hl
   040A 6E                 3466 	ld	l,(hl)
   040B 26 00              3467 	ld	h,#0x00
   040D 19                 3468 	add	hl,de
   040E 4D                 3469 	ld	c,l
   040F 44                 3470 	ld	b,h
   0410 0A                 3471 	ld	a,(bc)
   0411 F8 02              3472 	ldhl	sp,#2
   0413 A6                 3473 	and	a,(hl)
   0414 28 11              3474 	jr	Z,00108$
                           3475 ;main.c:439: pass++;
   0416 2B                 3476 	dec	hl
   0417 2B                 3477 	dec	hl
   0418 34                 3478 	inc	(hl)
                           3479 ;main.c:441: key_b[1] = 0xa106f553;
   0419 21r5Dr04           3480 	ld	hl,#(_key_b + 0x0004)
   041C 36 53              3481 	ld	(hl),#0x53
   041E 23                 3482 	inc	hl
   041F 36 F5              3483 	ld	(hl),#0xF5
   0421 23                 3484 	inc	hl
   0422 36 06              3485 	ld	(hl),#0x06
   0424 23                 3486 	inc	hl
   0425 36 A1              3487 	ld	(hl),#0xA1
   0427                    3488 00108$:
                           3489 ;main.c:435: for (i = 0; i < SEQ_LEN; ++i) {
   0427 F8 01              3490 	ldhl	sp,#1
   0429 34                 3491 	inc	(hl)
   042A 46                 3492 	ld	b,(hl)
   042B 0E 00              3493 	ld	c,#0x00
   042D 78                 3494 	ld	a,b
   042E D6 10              3495 	sub	a, #0x10
   0430 79                 3496 	ld	a,c
   0431 DE 00              3497 	sbc	a, #0x00
   0433 DArE9r03           3498 	jp	C,00107$
                           3499 ;main.c:445: if (pass == SEQ_LEN) {
   0436 2B                 3500 	dec	hl
   0437 5E                 3501 	ld	e,(hl)
   0438 16 00              3502 	ld	d,#0x00
   043A 7B                 3503 	ld	a,e
   043B D6 10              3504 	sub	a, #0x10
   043D 20 17              3505 	jr	NZ,00105$
   043F 7A                 3506 	ld	a,d
   0440 B7                 3507 	or	a, a
   0441 20 13              3508 	jr	NZ,00105$
                           3509 ;main.c:448: key_b[2] = 0x1ea97c53;
   0443 21r61r04           3510 	ld	hl,#(_key_b + 0x0008)
   0446 36 53              3511 	ld	(hl),#0x53
   0448 23                 3512 	inc	hl
   0449 36 7C              3513 	ld	(hl),#0x7C
   044B 23                 3514 	inc	hl
   044C 36 A9              3515 	ld	(hl),#0xA9
   044E 23                 3516 	inc	hl
   044F 36 1E              3517 	ld	(hl),#0x1E
                           3518 ;main.c:455: pass_level_1();
   0451 CDr5Cr04           3519 	call	_pass_level_1
   0454 18 03              3520 	jr	00109$
   0456                    3521 00105$:
                           3522 ;main.c:461: fail_level_1();
   0456 CDr2Cr05           3523 	call	_fail_level_1
   0459                    3524 00109$:
   0459 E8 03              3525 	add	sp, #3
   045B C9                 3526 	ret
                           3527 ;main.c:465: void pass_level_1()
                           3528 ;	---------------------------------
                           3529 ; Function pass_level_1
                           3530 ; ---------------------------------
   045C                    3531 _pass_level_1::
   045C E8 E1              3532 	add	sp, #-31
                           3533 ;main.c:470: key_b[3] = 0xcfa8e0b3;
   045E 21r65r04           3534 	ld	hl,#(_key_b + 0x000c)
   0461 36 B3              3535 	ld	(hl),#0xB3
   0463 23                 3536 	inc	hl
   0464 36 E0              3537 	ld	(hl),#0xE0
   0466 23                 3538 	inc	hl
   0467 36 A8              3539 	ld	(hl),#0xA8
   0469 23                 3540 	inc	hl
   046A 36 CF              3541 	ld	(hl),#0xCF
                           3542 ;main.c:473: decrypt((UINT32 *)flag_a, key_a);
   046C 11r49r04           3543 	ld	de,#_key_a+0
   046F 01r39r04           3544 	ld	bc,#_flag_a
   0472 D5                 3545 	push	de
   0473 C5                 3546 	push	bc
   0474 CDr82r05           3547 	call	_decrypt
   0477 E8 04              3548 	add	sp, #4
                           3549 ;main.c:474: decrypt((UINT32 *)flag_b, key_b);
   0479 11r59r04           3550 	ld	de,#_key_b
   047C 01r41r04           3551 	ld	bc,#_flag_b
   047F D5                 3552 	push	de
   0480 C5                 3553 	push	bc
   0481 CDr82r05           3554 	call	_decrypt
   0484 E8 04              3555 	add	sp, #4
                           3556 ;main.c:477: remove_flag_padding();
   0486 CDr10r09           3557 	call	_remove_flag_padding
                           3558 ;main.c:480: strcpy((char *)flag_string, "1ST FLAG IS     ");
   0489 F8 00              3559 	ldhl	sp,#0
   048B 4D                 3560 	ld	c,l
   048C 44                 3561 	ld	b,h
   048D 59                 3562 	ld	e, c
   048E 50                 3563 	ld	d, b
   048F C5                 3564 	push	bc
   0490 21r04r05           3565 	ld	hl,#___str_0
   0493 E5                 3566 	push	hl
   0494 D5                 3567 	push	de
   0495 CDr00r00           3568 	call	_strcpy
   0498 E8 04              3569 	add	sp, #4
   049A C1                 3570 	pop	bc
                           3571 ;main.c:481: strcat((char *)flag_string, flag_a);
   049B 59                 3572 	ld	e, c
   049C 50                 3573 	ld	d, b
   049D C5                 3574 	push	bc
   049E 21r39r04           3575 	ld	hl,#_flag_a
   04A1 E5                 3576 	push	hl
   04A2 D5                 3577 	push	de
   04A3 CDr00r00           3578 	call	_strcat
   04A6 E8 04              3579 	add	sp, #4
   04A8 C1                 3580 	pop	bc
                           3581 ;main.c:482: strcat((char *)flag_string, flag_b);
   04A9 59                 3582 	ld	e, c
   04AA 50                 3583 	ld	d, b
   04AB C5                 3584 	push	bc
   04AC 21r41r04           3585 	ld	hl,#_flag_b
   04AF E5                 3586 	push	hl
   04B0 D5                 3587 	push	de
   04B1 CDr00r00           3588 	call	_strcat
   04B4 E8 04              3589 	add	sp, #4
   04B6 C1                 3590 	pop	bc
                           3591 ;main.c:483: strcat((char *)flag_string, ".");
   04B7 59                 3592 	ld	e, c
   04B8 50                 3593 	ld	d, b
   04B9 C5                 3594 	push	bc
   04BA 21r15r05           3595 	ld	hl,#___str_1
   04BD E5                 3596 	push	hl
   04BE D5                 3597 	push	de
   04BF CDr00r00           3598 	call	_strcat
   04C2 E8 04              3599 	add	sp, #4
   04C4 C1                 3600 	pop	bc
                           3601 ;main.c:485: SHOW_WIN;
   04C5 11 40 FF           3602 	ld	de,#0xFF40
   04C8 1A                 3603 	ld	a,(de)
   04C9 57                 3604 	ld	d,a
   04CA 1E 00              3605 	ld	e,#0x00
   04CC 7A                 3606 	ld	a,d
   04CD CB EF              3607 	set	5, a
   04CF 57                 3608 	ld	d,a
   04D0 11 40 FF           3609 	ld	de,#0xFF40
   04D3 12                 3610 	ld	(de),a
                           3611 ;main.c:486: show_text("THAT WORKED.");
   04D4 11r17r05           3612 	ld	de,#___str_2+0
   04D7 C5                 3613 	push	bc
   04D8 D5                 3614 	push	de
   04D9 CDrA8r02           3615 	call	_show_text
   04DC E8 02              3616 	add	sp, #2
   04DE C1                 3617 	pop	bc
                           3618 ;main.c:487: show_text("I\'M IN.");
   04DF 11r24r05           3619 	ld	de,#___str_3+0
   04E2 C5                 3620 	push	bc
   04E3 D5                 3621 	push	de
   04E4 CDrA8r02           3622 	call	_show_text
   04E7 E8 02              3623 	add	sp, #2
   04E9 C1                 3624 	pop	bc
                           3625 ;main.c:488: show_text((char *)flag_string);
   04EA C5                 3626 	push	bc
   04EB CDrA8r02           3627 	call	_show_text
   04EE E8 02              3628 	add	sp, #2
                           3629 ;main.c:489: HIDE_WIN;
   04F0 11 40 FF           3630 	ld	de,#0xFF40
   04F3 1A                 3631 	ld	a,(de)
   04F4 47                 3632 	ld	b,a
   04F5 16 00              3633 	ld	d,#0x00
   04F7 CB A8              3634 	res	5, b
   04F9 16 00              3635 	ld	d,#0x00
   04FB 21 40 FF           3636 	ld	hl,#0xFF40
   04FE 70                 3637 	ld	(hl),b
                           3638 ;main.c:492: while (1) {}
   04FF                    3639 00102$:
   04FF 18 FE              3640 	jr	00102$
   0501 E8 1F              3641 	add	sp, #31
   0503 C9                 3642 	ret
   0504                    3643 ___str_0:
   0504 31 53 54 20 46 4C  3644 	.ascii "1ST FLAG IS     "
        41 47 20 49 53 20
        20 20 20 20
   0514 00                 3645 	.db 0x00
   0515                    3646 ___str_1:
   0515 2E                 3647 	.ascii "."
   0516 00                 3648 	.db 0x00
   0517                    3649 ___str_2:
   0517 54 48 41 54 20 57  3650 	.ascii "THAT WORKED."
        4F 52 4B 45 44 2E
   0523 00                 3651 	.db 0x00
   0524                    3652 ___str_3:
   0524 49 27 4D 20 49 4E  3653 	.ascii "I'M IN."
        2E
   052B 00                 3654 	.db 0x00
                           3655 ;main.c:495: void fail_level_1()
                           3656 ;	---------------------------------
                           3657 ; Function fail_level_1
                           3658 ; ---------------------------------
   052C                    3659 _fail_level_1::
                           3660 ;main.c:497: SHOW_WIN;
   052C 11 40 FF           3661 	ld	de,#0xFF40
   052F 1A                 3662 	ld	a,(de)
   0530 5F                 3663 	ld	e,a
   0531 16 00              3664 	ld	d,#0x00
   0533 7B                 3665 	ld	a,e
   0534 CB EF              3666 	set	5, a
   0536 47                 3667 	ld	b,a
   0537 21 40 FF           3668 	ld	hl,#0xFF40
   053A 70                 3669 	ld	(hl),b
                           3670 ;main.c:498: show_text("NO GOOD.");
   053B 11r5Dr05           3671 	ld	de,#___str_4
   053E D5                 3672 	push	de
   053F CDrA8r02           3673 	call	_show_text
   0542 E8 02              3674 	add	sp, #2
                           3675 ;main.c:499: show_text("LET ME TRY SOME THING ELSE.");
   0544 11r66r05           3676 	ld	de,#___str_5
   0547 D5                 3677 	push	de
   0548 CDrA8r02           3678 	call	_show_text
   054B E8 02              3679 	add	sp, #2
                           3680 ;main.c:500: HIDE_WIN;
   054D 11 40 FF           3681 	ld	de,#0xFF40
   0550 1A                 3682 	ld	a,(de)
   0551 47                 3683 	ld	b,a
   0552 16 00              3684 	ld	d,#0x00
   0554 CB A8              3685 	res	5, b
   0556 16 00              3686 	ld	d,#0x00
   0558 21 40 FF           3687 	ld	hl,#0xFF40
   055B 70                 3688 	ld	(hl),b
   055C C9                 3689 	ret
   055D                    3690 ___str_4:
   055D 4E 4F 20 47 4F 4F  3691 	.ascii "NO GOOD."
        44 2E
   0565 00                 3692 	.db 0x00
   0566                    3693 ___str_5:
   0566 4C 45 54 20 4D 45  3694 	.ascii "LET ME TRY SOME THING ELSE."
        20 54 52 59 20 53
        4F 4D 45 20 54 48
        49 4E 47 20 45 4C
        53 45 2E
   0581 00                 3695 	.db 0x00
                           3696 ;main.c:503: void decrypt(UINT32 *v, UINT32 *k)
                           3697 ;	---------------------------------
                           3698 ; Function decrypt
                           3699 ; ---------------------------------
   0582                    3700 _decrypt::
   0582 E8 D2              3701 	add	sp, #-46
                           3702 ;main.c:505: UINT32 v0=v[0], v1=v[1], sum=0xC6EF3720, i;  /* set up */
   0584 F8 30              3703 	ldhl	sp,#48
   0586 2A                 3704 	ld	a,(hl+)
   0587 5E                 3705 	ld	e, (hl)
   0588 F8 2C              3706 	ldhl	sp,#44
   058A 22                 3707 	ld	(hl+),a
   058B 73                 3708 	ld	(hl),e
   058C 2B                 3709 	dec	hl
   058D 5E                 3710 	ld	e,(hl)
   058E 23                 3711 	inc	hl
   058F 56                 3712 	ld	d,(hl)
   0590 1A                 3713 	ld	a,(de)
   0591 F8 1C              3714 	ldhl	sp,#28
   0593 22                 3715 	ld	(hl+),a
   0594 13                 3716 	inc	de
   0595 1A                 3717 	ld	a,(de)
   0596 22                 3718 	ld	(hl+),a
   0597 13                 3719 	inc	de
   0598 1A                 3720 	ld	a,(de)
   0599 22                 3721 	ld	(hl+),a
   059A 13                 3722 	inc	de
   059B 1A                 3723 	ld	a,(de)
   059C 77                 3724 	ld	(hl),a
   059D F8 2D              3725 	ldhl	sp,#45
   059F 2B                 3726 	dec	hl
   05A0 5E                 3727 	ld	e,(hl)
   05A1 23                 3728 	inc	hl
   05A2 56                 3729 	ld	d,(hl)
   05A3 21 04 00           3730 	ld	hl,#0x0004
   05A6 19                 3731 	add	hl,de
   05A7 7D                 3732 	ld	a,l
   05A8 54                 3733 	ld	d,h
   05A9 F8 2A              3734 	ldhl	sp,#42
   05AB 22                 3735 	ld	(hl+),a
   05AC 72                 3736 	ld	(hl),d
   05AD 2B                 3737 	dec	hl
   05AE 5E                 3738 	ld	e,(hl)
   05AF 23                 3739 	inc	hl
   05B0 56                 3740 	ld	d,(hl)
   05B1 1A                 3741 	ld	a,(de)
   05B2 F8 08              3742 	ldhl	sp,#8
   05B4 22                 3743 	ld	(hl+),a
   05B5 13                 3744 	inc	de
   05B6 1A                 3745 	ld	a,(de)
   05B7 22                 3746 	ld	(hl+),a
   05B8 13                 3747 	inc	de
   05B9 1A                 3748 	ld	a,(de)
   05BA 22                 3749 	ld	(hl+),a
   05BB 13                 3750 	inc	de
   05BC 1A                 3751 	ld	a,(de)
   05BD 77                 3752 	ld	(hl),a
                           3753 ;main.c:507: UINT32 k0=k[0], k1=k[1], k2=k[2], k3=k[3];   /* cache key */
   05BE F8 33              3754 	ldhl	sp,#51
   05C0 2B                 3755 	dec	hl
   05C1 4E                 3756 	ld	c,(hl)
   05C2 23                 3757 	inc	hl
   05C3 46                 3758 	ld	b,(hl)
   05C4 59                 3759 	ld	e, c
   05C5 50                 3760 	ld	d, b
   05C6 1A                 3761 	ld	a,(de)
   05C7 F8 10              3762 	ldhl	sp,#16
   05C9 22                 3763 	ld	(hl+),a
   05CA 13                 3764 	inc	de
   05CB 1A                 3765 	ld	a,(de)
   05CC 22                 3766 	ld	(hl+),a
   05CD 13                 3767 	inc	de
   05CE 1A                 3768 	ld	a,(de)
   05CF 22                 3769 	ld	(hl+),a
   05D0 13                 3770 	inc	de
   05D1 1A                 3771 	ld	a,(de)
   05D2 77                 3772 	ld	(hl),a
   05D3 21 04 00           3773 	ld	hl,#0x0004
   05D6 09                 3774 	add	hl,bc
   05D7 7D                 3775 	ld	a,l
   05D8 54                 3776 	ld	d,h
   05D9 F8 28              3777 	ldhl	sp,#40
   05DB 22                 3778 	ld	(hl+),a
   05DC 72                 3779 	ld	(hl),d
   05DD 2B                 3780 	dec	hl
   05DE 5E                 3781 	ld	e,(hl)
   05DF 23                 3782 	inc	hl
   05E0 56                 3783 	ld	d,(hl)
   05E1 1A                 3784 	ld	a,(de)
   05E2 F8 14              3785 	ldhl	sp,#20
   05E4 22                 3786 	ld	(hl+),a
   05E5 13                 3787 	inc	de
   05E6 1A                 3788 	ld	a,(de)
   05E7 22                 3789 	ld	(hl+),a
   05E8 13                 3790 	inc	de
   05E9 1A                 3791 	ld	a,(de)
   05EA 22                 3792 	ld	(hl+),a
   05EB 13                 3793 	inc	de
   05EC 1A                 3794 	ld	a,(de)
   05ED 77                 3795 	ld	(hl),a
   05EE 21 08 00           3796 	ld	hl,#0x0008
   05F1 09                 3797 	add	hl,bc
   05F2 7D                 3798 	ld	a,l
   05F3 54                 3799 	ld	d,h
   05F4 F8 28              3800 	ldhl	sp,#40
   05F6 22                 3801 	ld	(hl+),a
   05F7 72                 3802 	ld	(hl),d
   05F8 2B                 3803 	dec	hl
   05F9 5E                 3804 	ld	e,(hl)
   05FA 23                 3805 	inc	hl
   05FB 56                 3806 	ld	d,(hl)
   05FC 1A                 3807 	ld	a,(de)
   05FD F8 04              3808 	ldhl	sp,#4
   05FF 22                 3809 	ld	(hl+),a
   0600 13                 3810 	inc	de
   0601 1A                 3811 	ld	a,(de)
   0602 22                 3812 	ld	(hl+),a
   0603 13                 3813 	inc	de
   0604 1A                 3814 	ld	a,(de)
   0605 22                 3815 	ld	(hl+),a
   0606 13                 3816 	inc	de
   0607 1A                 3817 	ld	a,(de)
   0608 77                 3818 	ld	(hl),a
   0609 21 0C 00           3819 	ld	hl,#0x000C
   060C 09                 3820 	add	hl,bc
   060D 4D                 3821 	ld	c,l
   060E 44                 3822 	ld	b,h
   060F 59                 3823 	ld	e, c
   0610 50                 3824 	ld	d, b
   0611 1A                 3825 	ld	a,(de)
   0612 F8 18              3826 	ldhl	sp,#24
   0614 22                 3827 	ld	(hl+),a
   0615 13                 3828 	inc	de
   0616 1A                 3829 	ld	a,(de)
   0617 22                 3830 	ld	(hl+),a
   0618 13                 3831 	inc	de
   0619 1A                 3832 	ld	a,(de)
   061A 22                 3833 	ld	(hl+),a
   061B 13                 3834 	inc	de
   061C 1A                 3835 	ld	a,(de)
   061D 77                 3836 	ld	(hl),a
                           3837 ;main.c:508: for (i=0; i<32; i++) {                         /* basic cycle start */
   061E F8 00              3838 	ldhl	sp,#0
   0620 36 20              3839 	ld	(hl),#0x20
   0622 AF                 3840 	xor	a, a
   0623 23                 3841 	inc	hl
   0624 22                 3842 	ld	(hl+),a
   0625 22                 3843 	ld	(hl+),a
   0626 77                 3844 	ld	(hl),a
   0627 F8 0C              3845 	ldhl	sp,#12
   0629 36 20              3846 	ld	(hl),#0x20
   062B 23                 3847 	inc	hl
   062C 36 37              3848 	ld	(hl),#0x37
   062E 23                 3849 	inc	hl
   062F 36 EF              3850 	ld	(hl),#0xEF
   0631 23                 3851 	inc	hl
   0632 36 C6              3852 	ld	(hl),#0xC6
   0634                    3853 00104$:
                           3854 ;main.c:509: v1 -= ((v0<<4) + k2) ^ (v0 + sum) ^ ((v0>>5) + k3);
   0634 F5                 3855 	push	af
   0635 F8 1E              3856 	ldhl	sp,#30
   0637 7E                 3857 	ld	a,(hl)
   0638 F8 26              3858 	ldhl	sp,#38
   063A 77                 3859 	ld	(hl),a
   063B F8 1F              3860 	ldhl	sp,#31
   063D 7E                 3861 	ld	a,(hl)
   063E F8 27              3862 	ldhl	sp,#39
   0640 77                 3863 	ld	(hl),a
   0641 F8 20              3864 	ldhl	sp,#32
   0643 7E                 3865 	ld	a,(hl)
   0644 F8 28              3866 	ldhl	sp,#40
   0646 77                 3867 	ld	(hl),a
   0647 F8 21              3868 	ldhl	sp,#33
   0649 7E                 3869 	ld	a,(hl)
   064A F8 29              3870 	ldhl	sp,#41
   064C 77                 3871 	ld	(hl),a
   064D F1                 3872 	pop	af
   064E 3E 04              3873 	ld	a,#0x04
   0650                    3874 00116$:
   0650 F8 24              3875 	ldhl	sp,#36
   0652 CB 26              3876 	sla	(hl)
   0654 23                 3877 	inc	hl
   0655 CB 16              3878 	rl	(hl)
   0657 23                 3879 	inc	hl
   0658 CB 16              3880 	rl	(hl)
   065A 23                 3881 	inc	hl
   065B CB 16              3882 	rl	(hl)
   065D 3D                 3883 	dec	a
   065E 20 F0              3884 	jr	NZ,00116$
   0660 2B                 3885 	dec	hl
   0661 2B                 3886 	dec	hl
   0662 2B                 3887 	dec	hl
   0663 5E                 3888 	ld	e,(hl)
   0664 23                 3889 	inc	hl
   0665 56                 3890 	ld	d,(hl)
   0666 7B                 3891 	ld	a,e
   0667 F8 04              3892 	ldhl	sp,#4
   0669 86                 3893 	add	a, (hl)
   066A 5F                 3894 	ld	e,a
   066B 7A                 3895 	ld	a,d
   066C 23                 3896 	inc	hl
   066D 8E                 3897 	adc	a, (hl)
   066E F5                 3898 	push	af
   066F F8 27              3899 	ldhl	sp,#39
   0671 32                 3900 	ld	(hl-),a
   0672 73                 3901 	ld	(hl),e
   0673 F8 29              3902 	ldhl	sp,#41
   0675 2B                 3903 	dec	hl
   0676 5E                 3904 	ld	e,(hl)
   0677 23                 3905 	inc	hl
   0678 56                 3906 	ld	d,(hl)
   0679 F8 08              3907 	ldhl	sp,#8
   067B F1                 3908 	pop	af
   067C 7B                 3909 	ld	a,e
   067D 8E                 3910 	adc	a, (hl)
   067E 5F                 3911 	ld	e,a
   067F 7A                 3912 	ld	a,d
   0680 23                 3913 	inc	hl
   0681 8E                 3914 	adc	a, (hl)
   0682 F8 27              3915 	ldhl	sp,#39
   0684 32                 3916 	ld	(hl-),a
   0685 73                 3917 	ld	(hl),e
   0686 F8 1D              3918 	ldhl	sp,#29
   0688 2B                 3919 	dec	hl
   0689 5E                 3920 	ld	e,(hl)
   068A 23                 3921 	inc	hl
   068B 56                 3922 	ld	d,(hl)
   068C 7B                 3923 	ld	a,e
   068D F8 0C              3924 	ldhl	sp,#12
   068F 86                 3925 	add	a, (hl)
   0690 5F                 3926 	ld	e,a
   0691 7A                 3927 	ld	a,d
   0692 23                 3928 	inc	hl
   0693 8E                 3929 	adc	a, (hl)
   0694 F5                 3930 	push	af
   0695 F8 23              3931 	ldhl	sp,#35
   0697 32                 3932 	ld	(hl-),a
   0698 73                 3933 	ld	(hl),e
   0699 2B                 3934 	dec	hl
   069A 2B                 3935 	dec	hl
   069B 5E                 3936 	ld	e,(hl)
   069C 23                 3937 	inc	hl
   069D 56                 3938 	ld	d,(hl)
   069E F8 10              3939 	ldhl	sp,#16
   06A0 F1                 3940 	pop	af
   06A1 7B                 3941 	ld	a,e
   06A2 8E                 3942 	adc	a, (hl)
   06A3 5F                 3943 	ld	e,a
   06A4 7A                 3944 	ld	a,d
   06A5 23                 3945 	inc	hl
   06A6 8E                 3946 	adc	a, (hl)
   06A7 F8 23              3947 	ldhl	sp,#35
   06A9 32                 3948 	ld	(hl-),a
   06AA 73                 3949 	ld	(hl),e
   06AB 2B                 3950 	dec	hl
   06AC 2B                 3951 	dec	hl
   06AD 7E                 3952 	ld	a,(hl)
   06AE F8 24              3953 	ldhl	sp,#36
   06B0 AE                 3954 	xor	a, (hl)
   06B1 F8 20              3955 	ldhl	sp,#32
   06B3 22                 3956 	ld	(hl+),a
   06B4 7E                 3957 	ld	a,(hl)
   06B5 F8 25              3958 	ldhl	sp,#37
   06B7 AE                 3959 	xor	a, (hl)
   06B8 F8 21              3960 	ldhl	sp,#33
   06BA 22                 3961 	ld	(hl+),a
   06BB 7E                 3962 	ld	a,(hl)
   06BC F8 26              3963 	ldhl	sp,#38
   06BE AE                 3964 	xor	a, (hl)
   06BF F8 22              3965 	ldhl	sp,#34
   06C1 22                 3966 	ld	(hl+),a
   06C2 7E                 3967 	ld	a,(hl)
   06C3 F8 27              3968 	ldhl	sp,#39
   06C5 AE                 3969 	xor	a, (hl)
   06C6 F8 23              3970 	ldhl	sp,#35
   06C8 77                 3971 	ld	(hl),a
   06C9 F5                 3972 	push	af
   06CA F8 1E              3973 	ldhl	sp,#30
   06CC 7E                 3974 	ld	a,(hl)
   06CD F8 26              3975 	ldhl	sp,#38
   06CF 77                 3976 	ld	(hl),a
   06D0 F8 1F              3977 	ldhl	sp,#31
   06D2 7E                 3978 	ld	a,(hl)
   06D3 F8 27              3979 	ldhl	sp,#39
   06D5 77                 3980 	ld	(hl),a
   06D6 F8 20              3981 	ldhl	sp,#32
   06D8 7E                 3982 	ld	a,(hl)
   06D9 F8 28              3983 	ldhl	sp,#40
   06DB 77                 3984 	ld	(hl),a
   06DC F8 21              3985 	ldhl	sp,#33
   06DE 7E                 3986 	ld	a,(hl)
   06DF F8 29              3987 	ldhl	sp,#41
   06E1 77                 3988 	ld	(hl),a
   06E2 F1                 3989 	pop	af
   06E3 3E 05              3990 	ld	a,#0x05
   06E5                    3991 00118$:
   06E5 F8 27              3992 	ldhl	sp,#39
   06E7 CB 3E              3993 	srl	(hl)
   06E9 2B                 3994 	dec	hl
   06EA CB 1E              3995 	rr	(hl)
   06EC 2B                 3996 	dec	hl
   06ED CB 1E              3997 	rr	(hl)
   06EF 2B                 3998 	dec	hl
   06F0 CB 1E              3999 	rr	(hl)
   06F2 3D                 4000 	dec	a
   06F3 20 F0              4001 	jr	NZ,00118$
   06F5 5E                 4002 	ld	e,(hl)
   06F6 23                 4003 	inc	hl
   06F7 56                 4004 	ld	d,(hl)
   06F8 7B                 4005 	ld	a,e
   06F9 F8 18              4006 	ldhl	sp,#24
   06FB 86                 4007 	add	a, (hl)
   06FC 5F                 4008 	ld	e,a
   06FD 7A                 4009 	ld	a,d
   06FE 23                 4010 	inc	hl
   06FF 8E                 4011 	adc	a, (hl)
   0700 F5                 4012 	push	af
   0701 F8 27              4013 	ldhl	sp,#39
   0703 32                 4014 	ld	(hl-),a
   0704 73                 4015 	ld	(hl),e
   0705 F8 29              4016 	ldhl	sp,#41
   0707 2B                 4017 	dec	hl
   0708 5E                 4018 	ld	e,(hl)
   0709 23                 4019 	inc	hl
   070A 56                 4020 	ld	d,(hl)
   070B F8 1C              4021 	ldhl	sp,#28
   070D F1                 4022 	pop	af
   070E 7B                 4023 	ld	a,e
   070F 8E                 4024 	adc	a, (hl)
   0710 5F                 4025 	ld	e,a
   0711 7A                 4026 	ld	a,d
   0712 23                 4027 	inc	hl
   0713 8E                 4028 	adc	a, (hl)
   0714 F8 27              4029 	ldhl	sp,#39
   0716 32                 4030 	ld	(hl-),a
   0717 73                 4031 	ld	(hl),e
   0718 F8 20              4032 	ldhl	sp,#32
   071A 7E                 4033 	ld	a,(hl)
   071B F8 24              4034 	ldhl	sp,#36
   071D AE                 4035 	xor	a, (hl)
   071E F8 20              4036 	ldhl	sp,#32
   0720 22                 4037 	ld	(hl+),a
   0721 7E                 4038 	ld	a,(hl)
   0722 F8 25              4039 	ldhl	sp,#37
   0724 AE                 4040 	xor	a, (hl)
   0725 F8 21              4041 	ldhl	sp,#33
   0727 22                 4042 	ld	(hl+),a
   0728 7E                 4043 	ld	a,(hl)
   0729 F8 26              4044 	ldhl	sp,#38
   072B AE                 4045 	xor	a, (hl)
   072C F8 22              4046 	ldhl	sp,#34
   072E 22                 4047 	ld	(hl+),a
   072F 7E                 4048 	ld	a,(hl)
   0730 F8 27              4049 	ldhl	sp,#39
   0732 AE                 4050 	xor	a, (hl)
   0733 F8 23              4051 	ldhl	sp,#35
   0735 77                 4052 	ld	(hl),a
   0736 F8 09              4053 	ldhl	sp,#9
   0738 2B                 4054 	dec	hl
   0739 5E                 4055 	ld	e,(hl)
   073A 23                 4056 	inc	hl
   073B 56                 4057 	ld	d,(hl)
   073C 7B                 4058 	ld	a,e
   073D F8 20              4059 	ldhl	sp,#32
   073F 96                 4060 	sub	a, (hl)
   0740 5F                 4061 	ld	e,a
   0741 7A                 4062 	ld	a,d
   0742 23                 4063 	inc	hl
   0743 9E                 4064 	sbc	a, (hl)
   0744 F5                 4065 	push	af
   0745 F8 0B              4066 	ldhl	sp,#11
   0747 32                 4067 	ld	(hl-),a
   0748 73                 4068 	ld	(hl),e
   0749 F8 0D              4069 	ldhl	sp,#13
   074B 2B                 4070 	dec	hl
   074C 5E                 4071 	ld	e,(hl)
   074D 23                 4072 	inc	hl
   074E 56                 4073 	ld	d,(hl)
   074F F8 24              4074 	ldhl	sp,#36
   0751 F1                 4075 	pop	af
   0752 7B                 4076 	ld	a,e
   0753 9E                 4077 	sbc	a, (hl)
   0754 5F                 4078 	ld	e,a
   0755 7A                 4079 	ld	a,d
   0756 23                 4080 	inc	hl
   0757 9E                 4081 	sbc	a, (hl)
   0758 F8 0B              4082 	ldhl	sp,#11
   075A 32                 4083 	ld	(hl-),a
   075B 73                 4084 	ld	(hl),e
                           4085 ;main.c:510: v0 -= ((v1<<4) + k0) ^ (v1 + sum) ^ ((v1>>5) + k1);
   075C F5                 4086 	push	af
   075D 2B                 4087 	dec	hl
   075E 2B                 4088 	dec	hl
   075F 7E                 4089 	ld	a,(hl)
   0760 F8 22              4090 	ldhl	sp,#34
   0762 77                 4091 	ld	(hl),a
   0763 F8 0B              4092 	ldhl	sp,#11
   0765 7E                 4093 	ld	a,(hl)
   0766 F8 23              4094 	ldhl	sp,#35
   0768 77                 4095 	ld	(hl),a
   0769 F8 0C              4096 	ldhl	sp,#12
   076B 7E                 4097 	ld	a,(hl)
   076C F8 24              4098 	ldhl	sp,#36
   076E 77                 4099 	ld	(hl),a
   076F F8 0D              4100 	ldhl	sp,#13
   0771 7E                 4101 	ld	a,(hl)
   0772 F8 25              4102 	ldhl	sp,#37
   0774 77                 4103 	ld	(hl),a
   0775 F1                 4104 	pop	af
   0776 3E 04              4105 	ld	a,#0x04
   0778                    4106 00120$:
   0778 F8 20              4107 	ldhl	sp,#32
   077A CB 26              4108 	sla	(hl)
   077C 23                 4109 	inc	hl
   077D CB 16              4110 	rl	(hl)
   077F 23                 4111 	inc	hl
   0780 CB 16              4112 	rl	(hl)
   0782 23                 4113 	inc	hl
   0783 CB 16              4114 	rl	(hl)
   0785 3D                 4115 	dec	a
   0786 20 F0              4116 	jr	NZ,00120$
   0788 2B                 4117 	dec	hl
   0789 2B                 4118 	dec	hl
   078A 2B                 4119 	dec	hl
   078B 5E                 4120 	ld	e,(hl)
   078C 23                 4121 	inc	hl
   078D 56                 4122 	ld	d,(hl)
   078E 7B                 4123 	ld	a,e
   078F F8 10              4124 	ldhl	sp,#16
   0791 86                 4125 	add	a, (hl)
   0792 5F                 4126 	ld	e,a
   0793 7A                 4127 	ld	a,d
   0794 23                 4128 	inc	hl
   0795 8E                 4129 	adc	a, (hl)
   0796 F5                 4130 	push	af
   0797 F8 23              4131 	ldhl	sp,#35
   0799 32                 4132 	ld	(hl-),a
   079A 73                 4133 	ld	(hl),e
   079B F8 25              4134 	ldhl	sp,#37
   079D 2B                 4135 	dec	hl
   079E 5E                 4136 	ld	e,(hl)
   079F 23                 4137 	inc	hl
   07A0 56                 4138 	ld	d,(hl)
   07A1 F8 14              4139 	ldhl	sp,#20
   07A3 F1                 4140 	pop	af
   07A4 7B                 4141 	ld	a,e
   07A5 8E                 4142 	adc	a, (hl)
   07A6 5F                 4143 	ld	e,a
   07A7 7A                 4144 	ld	a,d
   07A8 23                 4145 	inc	hl
   07A9 8E                 4146 	adc	a, (hl)
   07AA F8 23              4147 	ldhl	sp,#35
   07AC 32                 4148 	ld	(hl-),a
   07AD 73                 4149 	ld	(hl),e
   07AE F8 09              4150 	ldhl	sp,#9
   07B0 2B                 4151 	dec	hl
   07B1 5E                 4152 	ld	e,(hl)
   07B2 23                 4153 	inc	hl
   07B3 56                 4154 	ld	d,(hl)
   07B4 7B                 4155 	ld	a,e
   07B5 F8 0C              4156 	ldhl	sp,#12
   07B7 86                 4157 	add	a, (hl)
   07B8 5F                 4158 	ld	e,a
   07B9 7A                 4159 	ld	a,d
   07BA 23                 4160 	inc	hl
   07BB 8E                 4161 	adc	a, (hl)
   07BC F5                 4162 	push	af
   07BD F8 27              4163 	ldhl	sp,#39
   07BF 32                 4164 	ld	(hl-),a
   07C0 73                 4165 	ld	(hl),e
   07C1 F8 0D              4166 	ldhl	sp,#13
   07C3 2B                 4167 	dec	hl
   07C4 5E                 4168 	ld	e,(hl)
   07C5 23                 4169 	inc	hl
   07C6 56                 4170 	ld	d,(hl)
   07C7 F8 10              4171 	ldhl	sp,#16
   07C9 F1                 4172 	pop	af
   07CA 7B                 4173 	ld	a,e
   07CB 8E                 4174 	adc	a, (hl)
   07CC 5F                 4175 	ld	e,a
   07CD 7A                 4176 	ld	a,d
   07CE 23                 4177 	inc	hl
   07CF 8E                 4178 	adc	a, (hl)
   07D0 F8 27              4179 	ldhl	sp,#39
   07D2 32                 4180 	ld	(hl-),a
   07D3 73                 4181 	ld	(hl),e
   07D4 F8 20              4182 	ldhl	sp,#32
   07D6 7E                 4183 	ld	a,(hl)
   07D7 F8 24              4184 	ldhl	sp,#36
   07D9 AE                 4185 	xor	a, (hl)
   07DA F8 20              4186 	ldhl	sp,#32
   07DC 22                 4187 	ld	(hl+),a
   07DD 7E                 4188 	ld	a,(hl)
   07DE F8 25              4189 	ldhl	sp,#37
   07E0 AE                 4190 	xor	a, (hl)
   07E1 F8 21              4191 	ldhl	sp,#33
   07E3 22                 4192 	ld	(hl+),a
   07E4 7E                 4193 	ld	a,(hl)
   07E5 F8 26              4194 	ldhl	sp,#38
   07E7 AE                 4195 	xor	a, (hl)
   07E8 F8 22              4196 	ldhl	sp,#34
   07EA 22                 4197 	ld	(hl+),a
   07EB 7E                 4198 	ld	a,(hl)
   07EC F8 27              4199 	ldhl	sp,#39
   07EE AE                 4200 	xor	a, (hl)
   07EF F8 23              4201 	ldhl	sp,#35
   07F1 77                 4202 	ld	(hl),a
   07F2 F5                 4203 	push	af
   07F3 F8 0A              4204 	ldhl	sp,#10
   07F5 7E                 4205 	ld	a,(hl)
   07F6 F8 26              4206 	ldhl	sp,#38
   07F8 77                 4207 	ld	(hl),a
   07F9 F8 0B              4208 	ldhl	sp,#11
   07FB 7E                 4209 	ld	a,(hl)
   07FC F8 27              4210 	ldhl	sp,#39
   07FE 77                 4211 	ld	(hl),a
   07FF F8 0C              4212 	ldhl	sp,#12
   0801 7E                 4213 	ld	a,(hl)
   0802 F8 28              4214 	ldhl	sp,#40
   0804 77                 4215 	ld	(hl),a
   0805 F8 0D              4216 	ldhl	sp,#13
   0807 7E                 4217 	ld	a,(hl)
   0808 F8 29              4218 	ldhl	sp,#41
   080A 77                 4219 	ld	(hl),a
   080B F1                 4220 	pop	af
   080C 3E 05              4221 	ld	a,#0x05
   080E                    4222 00122$:
   080E F8 27              4223 	ldhl	sp,#39
   0810 CB 3E              4224 	srl	(hl)
   0812 2B                 4225 	dec	hl
   0813 CB 1E              4226 	rr	(hl)
   0815 2B                 4227 	dec	hl
   0816 CB 1E              4228 	rr	(hl)
   0818 2B                 4229 	dec	hl
   0819 CB 1E              4230 	rr	(hl)
   081B 3D                 4231 	dec	a
   081C 20 F0              4232 	jr	NZ,00122$
   081E 5E                 4233 	ld	e,(hl)
   081F 23                 4234 	inc	hl
   0820 56                 4235 	ld	d,(hl)
   0821 7B                 4236 	ld	a,e
   0822 F8 14              4237 	ldhl	sp,#20
   0824 86                 4238 	add	a, (hl)
   0825 5F                 4239 	ld	e,a
   0826 7A                 4240 	ld	a,d
   0827 23                 4241 	inc	hl
   0828 8E                 4242 	adc	a, (hl)
   0829 F5                 4243 	push	af
   082A F8 27              4244 	ldhl	sp,#39
   082C 32                 4245 	ld	(hl-),a
   082D 73                 4246 	ld	(hl),e
   082E F8 29              4247 	ldhl	sp,#41
   0830 2B                 4248 	dec	hl
   0831 5E                 4249 	ld	e,(hl)
   0832 23                 4250 	inc	hl
   0833 56                 4251 	ld	d,(hl)
   0834 F8 18              4252 	ldhl	sp,#24
   0836 F1                 4253 	pop	af
   0837 7B                 4254 	ld	a,e
   0838 8E                 4255 	adc	a, (hl)
   0839 5F                 4256 	ld	e,a
   083A 7A                 4257 	ld	a,d
   083B 23                 4258 	inc	hl
   083C 8E                 4259 	adc	a, (hl)
   083D F8 27              4260 	ldhl	sp,#39
   083F 32                 4261 	ld	(hl-),a
   0840 73                 4262 	ld	(hl),e
   0841 F8 20              4263 	ldhl	sp,#32
   0843 7E                 4264 	ld	a,(hl)
   0844 F8 24              4265 	ldhl	sp,#36
   0846 AE                 4266 	xor	a, (hl)
   0847 F8 20              4267 	ldhl	sp,#32
   0849 22                 4268 	ld	(hl+),a
   084A 7E                 4269 	ld	a,(hl)
   084B F8 25              4270 	ldhl	sp,#37
   084D AE                 4271 	xor	a, (hl)
   084E F8 21              4272 	ldhl	sp,#33
   0850 22                 4273 	ld	(hl+),a
   0851 7E                 4274 	ld	a,(hl)
   0852 F8 26              4275 	ldhl	sp,#38
   0854 AE                 4276 	xor	a, (hl)
   0855 F8 22              4277 	ldhl	sp,#34
   0857 22                 4278 	ld	(hl+),a
   0858 7E                 4279 	ld	a,(hl)
   0859 F8 27              4280 	ldhl	sp,#39
   085B AE                 4281 	xor	a, (hl)
   085C F8 23              4282 	ldhl	sp,#35
   085E 77                 4283 	ld	(hl),a
   085F F8 1D              4284 	ldhl	sp,#29
   0861 2B                 4285 	dec	hl
   0862 5E                 4286 	ld	e,(hl)
   0863 23                 4287 	inc	hl
   0864 56                 4288 	ld	d,(hl)
   0865 7B                 4289 	ld	a,e
   0866 F8 20              4290 	ldhl	sp,#32
   0868 96                 4291 	sub	a, (hl)
   0869 5F                 4292 	ld	e,a
   086A 7A                 4293 	ld	a,d
   086B 23                 4294 	inc	hl
   086C 9E                 4295 	sbc	a, (hl)
   086D F5                 4296 	push	af
   086E F8 1F              4297 	ldhl	sp,#31
   0870 32                 4298 	ld	(hl-),a
   0871 73                 4299 	ld	(hl),e
   0872 F8 21              4300 	ldhl	sp,#33
   0874 2B                 4301 	dec	hl
   0875 5E                 4302 	ld	e,(hl)
   0876 23                 4303 	inc	hl
   0877 56                 4304 	ld	d,(hl)
   0878 F8 24              4305 	ldhl	sp,#36
   087A F1                 4306 	pop	af
   087B 7B                 4307 	ld	a,e
   087C 9E                 4308 	sbc	a, (hl)
   087D 5F                 4309 	ld	e,a
   087E 7A                 4310 	ld	a,d
   087F 23                 4311 	inc	hl
   0880 9E                 4312 	sbc	a, (hl)
   0881 F8 1F              4313 	ldhl	sp,#31
   0883 32                 4314 	ld	(hl-),a
   0884 73                 4315 	ld	(hl),e
                           4316 ;main.c:511: sum -= delta;
   0885 F8 0D              4317 	ldhl	sp,#13
   0887 2B                 4318 	dec	hl
   0888 5E                 4319 	ld	e,(hl)
   0889 23                 4320 	inc	hl
   088A 56                 4321 	ld	d,(hl)
   088B 7B                 4322 	ld	a,e
   088C D6 B9              4323 	sub	a, #0xB9
   088E 5F                 4324 	ld	e,a
   088F 7A                 4325 	ld	a,d
   0890 DE 79              4326 	sbc	a, #0x79
   0892 F5                 4327 	push	af
   0893 32                 4328 	ld	(hl-),a
   0894 73                 4329 	ld	(hl),e
   0895 F8 11              4330 	ldhl	sp,#17
   0897 2B                 4331 	dec	hl
   0898 5E                 4332 	ld	e,(hl)
   0899 23                 4333 	inc	hl
   089A 56                 4334 	ld	d,(hl)
   089B F1                 4335 	pop	af
   089C 7B                 4336 	ld	a,e
   089D DE 37              4337 	sbc	a, #0x37
   089F 5F                 4338 	ld	e,a
   08A0 7A                 4339 	ld	a,d
   08A1 DE 9E              4340 	sbc	a, #0x9E
   08A3 32                 4341 	ld	(hl-),a
   08A4 73                 4342 	ld	(hl),e
   08A5 D1                 4343 	pop	de
   08A6 D5                 4344 	push	de
   08A7 7B                 4345 	ld	a,e
   08A8 D6 01              4346 	sub	a, #0x01
   08AA 5F                 4347 	ld	e,a
   08AB 7A                 4348 	ld	a,d
   08AC DE 00              4349 	sbc	a, #0x00
   08AE F5                 4350 	push	af
   08AF F8 23              4351 	ldhl	sp,#35
   08B1 32                 4352 	ld	(hl-),a
   08B2 73                 4353 	ld	(hl),e
   08B3 F8 05              4354 	ldhl	sp,#5
   08B5 2B                 4355 	dec	hl
   08B6 5E                 4356 	ld	e,(hl)
   08B7 23                 4357 	inc	hl
   08B8 56                 4358 	ld	d,(hl)
   08B9 F1                 4359 	pop	af
   08BA 7B                 4360 	ld	a,e
   08BB DE 00              4361 	sbc	a, #0x00
   08BD 5F                 4362 	ld	e,a
   08BE 7A                 4363 	ld	a,d
   08BF DE 00              4364 	sbc	a, #0x00
   08C1 F8 23              4365 	ldhl	sp,#35
   08C3 32                 4366 	ld	(hl-),a
   08C4 73                 4367 	ld	(hl),e
   08C5 2B                 4368 	dec	hl
   08C6 2B                 4369 	dec	hl
   08C7 54                 4370 	ld	d,h
   08C8 5D                 4371 	ld	e,l
   08C9 F8 00              4372 	ldhl	sp,#0
   08CB 1A                 4373 	ld	a,(de)
   08CC 22                 4374 	ld	(hl+),a
   08CD 13                 4375 	inc	de
   08CE 1A                 4376 	ld	a,(de)
   08CF 22                 4377 	ld	(hl+),a
   08D0 13                 4378 	inc	de
   08D1 1A                 4379 	ld	a,(de)
   08D2 22                 4380 	ld	(hl+),a
   08D3 13                 4381 	inc	de
   08D4 1A                 4382 	ld	a,(de)
   08D5 77                 4383 	ld	(hl),a
                           4384 ;main.c:508: for (i=0; i<32; i++) {                         /* basic cycle start */
   08D6 F8 23              4385 	ldhl	sp,#35
   08D8 3A                 4386 	ld	a,(hl-)
   08D9 B6                 4387 	or	a, (hl)
   08DA 2B                 4388 	dec	hl
   08DB B6                 4389 	or	a, (hl)
   08DC 2B                 4390 	dec	hl
   08DD B6                 4391 	or	a,(hl)
   08DE C2r34r06           4392 	jp	NZ,00104$
                           4393 ;main.c:513: v[0]=v0; v[1]=v1;
   08E1 F8 2D              4394 	ldhl	sp,#45
   08E3 2B                 4395 	dec	hl
   08E4 5E                 4396 	ld	e,(hl)
   08E5 23                 4397 	inc	hl
   08E6 56                 4398 	ld	d,(hl)
   08E7 F8 1C              4399 	ldhl	sp,#28
   08E9 7E                 4400 	ld	a,(hl)
   08EA 12                 4401 	ld	(de),a
   08EB 13                 4402 	inc	de
   08EC 23                 4403 	inc	hl
   08ED 7E                 4404 	ld	a,(hl)
   08EE 12                 4405 	ld	(de),a
   08EF 13                 4406 	inc	de
   08F0 23                 4407 	inc	hl
   08F1 7E                 4408 	ld	a,(hl)
   08F2 12                 4409 	ld	(de),a
   08F3 13                 4410 	inc	de
   08F4 23                 4411 	inc	hl
   08F5 7E                 4412 	ld	a,(hl)
   08F6 12                 4413 	ld	(de),a
   08F7 F8 2B              4414 	ldhl	sp,#43
   08F9 2B                 4415 	dec	hl
   08FA 5E                 4416 	ld	e,(hl)
   08FB 23                 4417 	inc	hl
   08FC 56                 4418 	ld	d,(hl)
   08FD F8 08              4419 	ldhl	sp,#8
   08FF 7E                 4420 	ld	a,(hl)
   0900 12                 4421 	ld	(de),a
   0901 13                 4422 	inc	de
   0902 23                 4423 	inc	hl
   0903 7E                 4424 	ld	a,(hl)
   0904 12                 4425 	ld	(de),a
   0905 13                 4426 	inc	de
   0906 23                 4427 	inc	hl
   0907 7E                 4428 	ld	a,(hl)
   0908 12                 4429 	ld	(de),a
   0909 13                 4430 	inc	de
   090A 23                 4431 	inc	hl
   090B 7E                 4432 	ld	a,(hl)
   090C 12                 4433 	ld	(de),a
   090D E8 2E              4434 	add	sp, #46
   090F C9                 4435 	ret
                           4436 ;main.c:517: void remove_flag_padding()
                           4437 ;	---------------------------------
                           4438 ; Function remove_flag_padding
                           4439 ; ---------------------------------
   0910                    4440 _remove_flag_padding::
   0910 E8 FD              4441 	add	sp, #-3
                           4442 ;main.c:521: UINT8 flab_b_len = flag_b[FLAG_LEN - 1];
   0912 01r48r04           4443 	ld	bc,#_flag_b + 7
   0915 0A                 4444 	ld	a,(bc)
   0916 F8 00              4445 	ldhl	sp,#0
   0918 77                 4446 	ld	(hl),a
                           4447 ;main.c:522: memset(flag_b + flab_b_len, '\0', FLAG_LEN - flab_b_len);
   0919 4E                 4448 	ld	c,(hl)
   091A 06 00              4449 	ld	b,#0x00
   091C 11 08 00           4450 	ld	de,#0x0008
   091F 7B                 4451 	ld	a,e
   0920 91                 4452 	sub	a,c
   0921 5F                 4453 	ld	e,a
   0922 7A                 4454 	ld	a,d
   0923 98                 4455 	sbc	a,b
   0924 23                 4456 	inc	hl
   0925 23                 4457 	inc	hl
   0926 32                 4458 	ld	(hl-),a
   0927 73                 4459 	ld	(hl),e
   0928 11r41r04           4460 	ld	de,#_flag_b
   092B 2B                 4461 	dec	hl
   092C 6E                 4462 	ld	l,(hl)
   092D 26 00              4463 	ld	h,#0x00
   092F 19                 4464 	add	hl,de
   0930 4D                 4465 	ld	c,l
   0931 44                 4466 	ld	b,h
   0932 F8 01              4467 	ldhl	sp,#1
   0934 2A                 4468 	ld	a,(hl+)
   0935 66                 4469 	ld	h,(hl)
   0936 6F                 4470 	ld	l,a
   0937 E5                 4471 	push	hl
   0938 21 00 00           4472 	ld	hl,#0x0000
   093B E5                 4473 	push	hl
   093C C5                 4474 	push	bc
   093D CDr00r00           4475 	call	_memset
   0940 E8 06              4476 	add	sp, #6
   0942 E8 03              4477 	add	sp, #3
   0944 C9                 4478 	ret
                           4479 ;main.c:525: void main()
                           4480 ;	---------------------------------
                           4481 ; Function main
                           4482 ; ---------------------------------
   0945                    4483 _main::
                           4484 ;main.c:528: key_a[0] = 0xc2bb5c5b;
   0945 21r49r04           4485 	ld	hl,#_key_a
   0948 36 5B              4486 	ld	(hl),#0x5B
   094A 23                 4487 	inc	hl
   094B 36 5C              4488 	ld	(hl),#0x5C
   094D 23                 4489 	inc	hl
   094E 36 BB              4490 	ld	(hl),#0xBB
   0950 23                 4491 	inc	hl
   0951 36 C2              4492 	ld	(hl),#0xC2
                           4493 ;main.c:530: disable_interrupts();
   0953 CDr00r00           4494 	call	_disable_interrupts
                           4495 ;main.c:531: DISPLAY_OFF;
   0956 CDr00r00           4496 	call	_display_off
                           4497 ;main.c:541: set_win_data(0x80, window_border_len, window_border);
   0959 11r00r00           4498 	ld	de,#_window_border
   095C D5                 4499 	push	de
   095D 21 80 09           4500 	ld	hl,#0x0980
   0960 E5                 4501 	push	hl
   0961 CDr00r00           4502 	call	_set_win_data
   0964 E8 04              4503 	add	sp, #4
                           4504 ;main.c:542: set_win_tiles(0, 0, text_box_width, text_box_height, text_box);
   0966 11r90r00           4505 	ld	de,#_text_box
   0969 D5                 4506 	push	de
   096A 21 14 06           4507 	ld	hl,#0x0614
   096D E5                 4508 	push	hl
   096E 21 00 00           4509 	ld	hl,#0x0000
   0971 E5                 4510 	push	hl
   0972 CDr00r00           4511 	call	_set_win_tiles
   0975 E8 06              4512 	add	sp, #6
                           4513 ;main.c:543: move_win(7,96);
   0977 21 07 60           4514 	ld	hl,#0x6007
   097A E5                 4515 	push	hl
   097B CDr00r00           4516 	call	_move_win
   097E E8 02              4517 	add	sp, #2
                           4518 ;main.c:546: set_win_data(0U, alphabet_len, alphabet);
   0980 11r08r01           4519 	ld	de,#_alphabet
   0983 D5                 4520 	push	de
   0984 21 00 2E           4521 	ld	hl,#0x2E00
   0987 E5                 4522 	push	hl
   0988 CDr00r00           4523 	call	_set_win_data
   098B E8 04              4524 	add	sp, #4
                           4525 ;main.c:547: set_win_tiles(2U, 2U, text_map_width, text_map_height, text_map);
   098D 11r08r04           4526 	ld	de,#_text_map
   0990 D5                 4527 	push	de
   0991 21 10 02           4528 	ld	hl,#0x0210
   0994 E5                 4529 	push	hl
   0995 2E 02              4530 	ld	l, #0x02
   0997 E5                 4531 	push	hl
   0998 CDr00r00           4532 	call	_set_win_tiles
   099B E8 06              4533 	add	sp, #6
                           4534 ;main.c:550: key_a[1] = 0x93373628;
   099D 21r4Dr04           4535 	ld	hl,#(_key_a + 0x0004)
   09A0 36 28              4536 	ld	(hl),#0x28
   09A2 23                 4537 	inc	hl
   09A3 36 36              4538 	ld	(hl),#0x36
   09A5 23                 4539 	inc	hl
   09A6 36 37              4540 	ld	(hl),#0x37
   09A8 23                 4541 	inc	hl
   09A9 36 93              4542 	ld	(hl),#0x93
                           4543 ;main.c:553: set_win_data(arrow_address_1, arrow_tile_len, arrow_tile);
   09AB 11rE8r03           4544 	ld	de,#_arrow_tile
   09AE D5                 4545 	push	de
   09AF 21 2E 02           4546 	ld	hl,#0x022E
   09B2 E5                 4547 	push	hl
   09B3 CDr00r00           4548 	call	_set_win_data
   09B6 E8 04              4549 	add	sp, #4
                           4550 ;main.c:555: SHOW_BKG;
   09B8 11 40 FF           4551 	ld	de,#0xFF40
   09BB 1A                 4552 	ld	a,(de)
   09BC 5F                 4553 	ld	e,a
   09BD 16 00              4554 	ld	d,#0x00
   09BF 7B                 4555 	ld	a,e
   09C0 CB C7              4556 	set	0, a
   09C2 47                 4557 	ld	b,a
   09C3 21 40 FF           4558 	ld	hl,#0xFF40
   09C6 70                 4559 	ld	(hl),b
                           4560 ;main.c:557: DISPLAY_ON;
   09C7 11 40 FF           4561 	ld	de,#0xFF40
   09CA 1A                 4562 	ld	a,(de)
   09CB 5F                 4563 	ld	e,a
   09CC 16 00              4564 	ld	d,#0x00
   09CE 7B                 4565 	ld	a,e
   09CF CB FF              4566 	set	7, a
   09D1 47                 4567 	ld	b,a
   09D2 2E 40              4568 	ld	l, #0x40
   09D4 70                 4569 	ld	(hl),b
                           4570 ;main.c:558: enable_interrupts();
   09D5 CDr00r00           4571 	call	_enable_interrupts
                           4572 ;main.c:561: key_a[2] = 0xd0849af3;
   09D8 21r51r04           4573 	ld	hl,#(_key_a + 0x0008)
   09DB 36 F3              4574 	ld	(hl),#0xF3
   09DD 23                 4575 	inc	hl
   09DE 36 9A              4576 	ld	(hl),#0x9A
   09E0 23                 4577 	inc	hl
   09E1 36 84              4578 	ld	(hl),#0x84
   09E3 23                 4579 	inc	hl
   09E4 36 D0              4580 	ld	(hl),#0xD0
                           4581 ;main.c:563: while(1) {
   09E6                    4582 00104$:
                           4583 ;main.c:565: sleep(4);
   09E6 3E 04              4584 	ld	a,#0x04
   09E8 F5                 4585 	push	af
   09E9 33                 4586 	inc	sp
   09EA CDrA9r03           4587 	call	_sleep
   09ED 33                 4588 	inc	sp
                           4589 ;main.c:566: process_button_press();
   09EE CDrB9r03           4590 	call	_process_button_press
                           4591 ;main.c:568: if (input_seq_ctr >= SEQ_LEN) {
   09F1 21r38r04           4592 	ld	hl,#_input_seq_ctr
   09F4 46                 4593 	ld	b,(hl)
   09F5 0E 00              4594 	ld	c,#0x00
   09F7 78                 4595 	ld	a,b
   09F8 D6 10              4596 	sub	a, #0x10
   09FA 79                 4597 	ld	a,c
   09FB DE 00              4598 	sbc	a, #0x00
   09FD 38 E7              4599 	jr	C,00104$
                           4600 ;main.c:570: key_a[3] = 0x04183ac4;
   09FF 21r55r04           4601 	ld	hl,#(_key_a + 0x000c)
   0A02 36 C4              4602 	ld	(hl),#0xC4
   0A04 23                 4603 	inc	hl
   0A05 36 3A              4604 	ld	(hl),#0x3A
   0A07 23                 4605 	inc	hl
   0A08 36 18              4606 	ld	(hl),#0x18
   0A0A 23                 4607 	inc	hl
   0A0B 36 04              4608 	ld	(hl),#0x04
                           4609 ;main.c:574: check_sequence();
   0A0D CDrE0r03           4610 	call	_check_sequence
                           4611 ;main.c:575: input_seq_ctr = 0;
   0A10 21r38r04           4612 	ld	hl,#_input_seq_ctr
   0A13 36 00              4613 	ld	(hl),#0x00
   0A15 18 CF              4614 	jr	00104$
   0A17 C9                 4615 	ret
                           4616 	.area _CODE
                           4617 	.area _CABS (ABS)
