;--------------------------------------------------------
; File Created by SDCC : free open source ANSI-C Compiler
; Version 3.5.0 #9253 (Mar 24 2016) (Linux)
; This file was generated Wed Jul 19 00:47:22 2017
;--------------------------------------------------------
	.module main
	.optsdcc -mgbz80
	
;--------------------------------------------------------
; Public variables in this module
;--------------------------------------------------------
	.globl _main
	.globl _move_sprite
	.globl _set_sprite_tile
	.globl _set_sprite_data
	.globl _move_win
	.globl _set_win_tiles
	.globl _set_win_data
	.globl _display_off
	.globl _wait_vbl_done
	.globl _disable_interrupts
	.globl _enable_interrupts
	.globl _joypad
	.globl _delay
	.globl _strlen
	.globl _memset
	.globl _strcat
	.globl _strcpy
	.globl _memcpy
	.globl _key_b
	.globl _key_a
	.globl _flag_b
	.globl _flag_a
	.globl _input_seq_ctr
	.globl _input_seq
	.globl _text_map
	.globl _arrow_tile
	.globl _alphabet
	.globl _text_box
	.globl _window_border
	.globl _solution_seq
	.globl _button
	.globl _agent
	.globl _divide_UINT8
	.globl _set_text_map
	.globl _clear_window
	.globl _show_text
	.globl _scroll_text
	.globl _sleep
	.globl _process_button_press
	.globl _number_of_bits_set
	.globl _return_lsb_set
	.globl _log2
	.globl _display_button_press
	.globl _check_sequence
	.globl _pass_level_1
	.globl _fail_level_1
	.globl _decrypt
	.globl _remove_flag_padding
;--------------------------------------------------------
; ram data
;--------------------------------------------------------
	.area _DATA
_window_border::
	.ds 16
_text_box::
	.ds 120
_alphabet::
	.ds 736
_arrow_tile::
	.ds 32
_text_map::
	.ds 32
_input_seq::
	.ds 16
_input_seq_ctr::
	.ds 1
_flag_a::
	.ds 8
_flag_b::
	.ds 8
_key_a::
	.ds 16
_key_b::
	.ds 16
;--------------------------------------------------------
; absolute external ram data
;--------------------------------------------------------
	.area _DABS (ABS)
;--------------------------------------------------------
; global & static initialisations
;--------------------------------------------------------
	.area _HOME
	.area _GSINIT
	.area _GSFINAL
	.area _GSINIT
;main.c:122: unsigned char window_border[] =
	ld	hl,#_window_border
	ld	(hl),#0xFF
	ld	hl,#(_window_border + 0x0001)
	ld	(hl),#0xFF
	ld	hl,#(_window_border + 0x0002)
	ld	(hl),#0xFF
	ld	hl,#(_window_border + 0x0003)
	ld	(hl),#0xFF
	ld	hl,#(_window_border + 0x0004)
	ld	(hl),#0xFF
	ld	hl,#(_window_border + 0x0005)
	ld	(hl),#0xFF
	ld	hl,#(_window_border + 0x0006)
	ld	(hl),#0xFF
	ld	hl,#(_window_border + 0x0007)
	ld	(hl),#0xFF
	ld	hl,#(_window_border + 0x0008)
	ld	(hl),#0xFF
	ld	hl,#(_window_border + 0x0009)
	ld	(hl),#0xFF
	ld	hl,#(_window_border + 0x000a)
	ld	(hl),#0xFF
	ld	hl,#(_window_border + 0x000b)
	ld	(hl),#0xFF
	ld	hl,#(_window_border + 0x000c)
	ld	(hl),#0xFF
	ld	hl,#(_window_border + 0x000d)
	ld	(hl),#0xFF
	ld	hl,#(_window_border + 0x000e)
	ld	(hl),#0xFF
	ld	hl,#(_window_border + 0x000f)
	ld	(hl),#0xFF
;main.c:132: unsigned char text_box[] =
	ld	hl,#_text_box
	ld	(hl),#0x80
	ld	hl,#(_text_box + 0x0001)
	ld	(hl),#0x80
	ld	hl,#(_text_box + 0x0002)
	ld	(hl),#0x80
	ld	hl,#(_text_box + 0x0003)
	ld	(hl),#0x80
	ld	hl,#(_text_box + 0x0004)
	ld	(hl),#0x80
	ld	hl,#(_text_box + 0x0005)
	ld	(hl),#0x80
	ld	hl,#(_text_box + 0x0006)
	ld	(hl),#0x80
	ld	hl,#(_text_box + 0x0007)
	ld	(hl),#0x80
	ld	hl,#(_text_box + 0x0008)
	ld	(hl),#0x80
	ld	hl,#(_text_box + 0x0009)
	ld	(hl),#0x80
	ld	hl,#(_text_box + 0x000a)
	ld	(hl),#0x80
	ld	hl,#(_text_box + 0x000b)
	ld	(hl),#0x80
	ld	hl,#(_text_box + 0x000c)
	ld	(hl),#0x80
	ld	hl,#(_text_box + 0x000d)
	ld	(hl),#0x80
	ld	hl,#(_text_box + 0x000e)
	ld	(hl),#0x80
	ld	hl,#(_text_box + 0x000f)
	ld	(hl),#0x80
	ld	hl,#(_text_box + 0x0010)
	ld	(hl),#0x80
	ld	hl,#(_text_box + 0x0011)
	ld	(hl),#0x80
	ld	hl,#(_text_box + 0x0012)
	ld	(hl),#0x80
	ld	hl,#(_text_box + 0x0013)
	ld	(hl),#0x80
	ld	hl,#(_text_box + 0x0014)
	ld	(hl),#0x80
	ld	hl,#(_text_box + 0x0015)
	ld	(hl),#0x80
	ld	hl,#(_text_box + 0x0016)
	ld	(hl),#0x80
	ld	hl,#(_text_box + 0x0017)
	ld	(hl),#0x80
	ld	hl,#(_text_box + 0x0018)
	ld	(hl),#0x80
	ld	hl,#(_text_box + 0x0019)
	ld	(hl),#0x80
	ld	hl,#(_text_box + 0x001a)
	ld	(hl),#0x80
	ld	hl,#(_text_box + 0x001b)
	ld	(hl),#0x80
	ld	hl,#(_text_box + 0x001c)
	ld	(hl),#0x80
	ld	hl,#(_text_box + 0x001d)
	ld	(hl),#0x80
	ld	hl,#(_text_box + 0x001e)
	ld	(hl),#0x80
	ld	hl,#(_text_box + 0x001f)
	ld	(hl),#0x80
	ld	hl,#(_text_box + 0x0020)
	ld	(hl),#0x80
	ld	hl,#(_text_box + 0x0021)
	ld	(hl),#0x80
	ld	hl,#(_text_box + 0x0022)
	ld	(hl),#0x80
	ld	hl,#(_text_box + 0x0023)
	ld	(hl),#0x80
	ld	hl,#(_text_box + 0x0024)
	ld	(hl),#0x80
	ld	hl,#(_text_box + 0x0025)
	ld	(hl),#0x80
	ld	hl,#(_text_box + 0x0026)
	ld	(hl),#0x80
	ld	hl,#(_text_box + 0x0027)
	ld	(hl),#0x80
	ld	hl,#(_text_box + 0x0028)
	ld	(hl),#0x80
	ld	hl,#(_text_box + 0x0029)
	ld	(hl),#0x80
	ld	hl,#(_text_box + 0x002a)
	ld	(hl),#0x80
	ld	hl,#(_text_box + 0x002b)
	ld	(hl),#0x80
	ld	hl,#(_text_box + 0x002c)
	ld	(hl),#0x80
	ld	hl,#(_text_box + 0x002d)
	ld	(hl),#0x80
	ld	hl,#(_text_box + 0x002e)
	ld	(hl),#0x80
	ld	hl,#(_text_box + 0x002f)
	ld	(hl),#0x80
	ld	hl,#(_text_box + 0x0030)
	ld	(hl),#0x80
	ld	hl,#(_text_box + 0x0031)
	ld	(hl),#0x80
	ld	hl,#(_text_box + 0x0032)
	ld	(hl),#0x80
	ld	hl,#(_text_box + 0x0033)
	ld	(hl),#0x80
	ld	hl,#(_text_box + 0x0034)
	ld	(hl),#0x80
	ld	hl,#(_text_box + 0x0035)
	ld	(hl),#0x80
	ld	hl,#(_text_box + 0x0036)
	ld	(hl),#0x80
	ld	hl,#(_text_box + 0x0037)
	ld	(hl),#0x80
	ld	hl,#(_text_box + 0x0038)
	ld	(hl),#0x80
	ld	hl,#(_text_box + 0x0039)
	ld	(hl),#0x80
	ld	hl,#(_text_box + 0x003a)
	ld	(hl),#0x80
	ld	hl,#(_text_box + 0x003b)
	ld	(hl),#0x80
	ld	hl,#(_text_box + 0x003c)
	ld	(hl),#0x80
	ld	hl,#(_text_box + 0x003d)
	ld	(hl),#0x80
	ld	hl,#(_text_box + 0x003e)
	ld	(hl),#0x80
	ld	hl,#(_text_box + 0x003f)
	ld	(hl),#0x80
	ld	hl,#(_text_box + 0x0040)
	ld	(hl),#0x80
	ld	hl,#(_text_box + 0x0041)
	ld	(hl),#0x80
	ld	hl,#(_text_box + 0x0042)
	ld	(hl),#0x80
	ld	hl,#(_text_box + 0x0043)
	ld	(hl),#0x80
	ld	hl,#(_text_box + 0x0044)
	ld	(hl),#0x80
	ld	hl,#(_text_box + 0x0045)
	ld	(hl),#0x80
	ld	hl,#(_text_box + 0x0046)
	ld	(hl),#0x80
	ld	hl,#(_text_box + 0x0047)
	ld	(hl),#0x80
	ld	hl,#(_text_box + 0x0048)
	ld	(hl),#0x80
	ld	hl,#(_text_box + 0x0049)
	ld	(hl),#0x80
	ld	hl,#(_text_box + 0x004a)
	ld	(hl),#0x80
	ld	hl,#(_text_box + 0x004b)
	ld	(hl),#0x80
	ld	hl,#(_text_box + 0x004c)
	ld	(hl),#0x80
	ld	hl,#(_text_box + 0x004d)
	ld	(hl),#0x80
	ld	hl,#(_text_box + 0x004e)
	ld	(hl),#0x80
	ld	hl,#(_text_box + 0x004f)
	ld	(hl),#0x80
	ld	hl,#(_text_box + 0x0050)
	ld	(hl),#0x80
	ld	hl,#(_text_box + 0x0051)
	ld	(hl),#0x80
	ld	hl,#(_text_box + 0x0052)
	ld	(hl),#0x80
	ld	hl,#(_text_box + 0x0053)
	ld	(hl),#0x80
	ld	hl,#(_text_box + 0x0054)
	ld	(hl),#0x80
	ld	hl,#(_text_box + 0x0055)
	ld	(hl),#0x80
	ld	hl,#(_text_box + 0x0056)
	ld	(hl),#0x80
	ld	hl,#(_text_box + 0x0057)
	ld	(hl),#0x80
	ld	hl,#(_text_box + 0x0058)
	ld	(hl),#0x80
	ld	hl,#(_text_box + 0x0059)
	ld	(hl),#0x80
	ld	hl,#(_text_box + 0x005a)
	ld	(hl),#0x80
	ld	hl,#(_text_box + 0x005b)
	ld	(hl),#0x80
	ld	hl,#(_text_box + 0x005c)
	ld	(hl),#0x80
	ld	hl,#(_text_box + 0x005d)
	ld	(hl),#0x80
	ld	hl,#(_text_box + 0x005e)
	ld	(hl),#0x80
	ld	hl,#(_text_box + 0x005f)
	ld	(hl),#0x80
	ld	hl,#(_text_box + 0x0060)
	ld	(hl),#0x80
	ld	hl,#(_text_box + 0x0061)
	ld	(hl),#0x80
	ld	hl,#(_text_box + 0x0062)
	ld	(hl),#0x80
	ld	hl,#(_text_box + 0x0063)
	ld	(hl),#0x80
	ld	hl,#(_text_box + 0x0064)
	ld	(hl),#0x80
	ld	hl,#(_text_box + 0x0065)
	ld	(hl),#0x80
	ld	hl,#(_text_box + 0x0066)
	ld	(hl),#0x80
	ld	hl,#(_text_box + 0x0067)
	ld	(hl),#0x80
	ld	hl,#(_text_box + 0x0068)
	ld	(hl),#0x80
	ld	hl,#(_text_box + 0x0069)
	ld	(hl),#0x80
	ld	hl,#(_text_box + 0x006a)
	ld	(hl),#0x80
	ld	hl,#(_text_box + 0x006b)
	ld	(hl),#0x80
	ld	hl,#(_text_box + 0x006c)
	ld	(hl),#0x80
	ld	hl,#(_text_box + 0x006d)
	ld	(hl),#0x80
	ld	hl,#(_text_box + 0x006e)
	ld	(hl),#0x80
	ld	hl,#(_text_box + 0x006f)
	ld	(hl),#0x80
	ld	hl,#(_text_box + 0x0070)
	ld	(hl),#0x80
	ld	hl,#(_text_box + 0x0071)
	ld	(hl),#0x80
	ld	hl,#(_text_box + 0x0072)
	ld	(hl),#0x80
	ld	hl,#(_text_box + 0x0073)
	ld	(hl),#0x80
	ld	hl,#(_text_box + 0x0074)
	ld	(hl),#0x80
	ld	hl,#(_text_box + 0x0075)
	ld	(hl),#0x80
	ld	hl,#(_text_box + 0x0076)
	ld	(hl),#0x80
	ld	hl,#(_text_box + 0x0077)
	ld	(hl),#0x80
;main.c:151: unsigned char alphabet[] =
	ld	hl,#_alphabet
	ld	(hl),#0x83
	ld	hl,#(_alphabet + 0x0001)
	ld	(hl),#0x83
	ld	hl,#(_alphabet + 0x0002)
	ld	(hl),#0x7D
	ld	hl,#(_alphabet + 0x0003)
	ld	(hl),#0x7D
	ld	hl,#(_alphabet + 0x0004)
	ld	(hl),#0x7D
	ld	hl,#(_alphabet + 0x0005)
	ld	(hl),#0x7D
	ld	hl,#(_alphabet + 0x0006)
	ld	(hl),#0x7D
	ld	hl,#(_alphabet + 0x0007)
	ld	(hl),#0x7D
	ld	hl,#(_alphabet + 0x0008)
	ld	(hl),#0x7D
	ld	hl,#(_alphabet + 0x0009)
	ld	(hl),#0x7D
	ld	hl,#(_alphabet + 0x000a)
	ld	(hl),#0x7D
	ld	hl,#(_alphabet + 0x000b)
	ld	(hl),#0x7D
	ld	hl,#(_alphabet + 0x000c)
	ld	(hl),#0x83
	ld	hl,#(_alphabet + 0x000d)
	ld	(hl),#0x83
	ld	hl,#(_alphabet + 0x000e)
	ld	(hl),#0xFF
	ld	hl,#(_alphabet + 0x000f)
	ld	(hl),#0xFF
	ld	hl,#(_alphabet + 0x0010)
	ld	(hl),#0xEF
	ld	hl,#(_alphabet + 0x0011)
	ld	(hl),#0xEF
	ld	hl,#(_alphabet + 0x0012)
	ld	(hl),#0xCF
	ld	hl,#(_alphabet + 0x0013)
	ld	(hl),#0xCF
	ld	hl,#(_alphabet + 0x0014)
	ld	(hl),#0xEF
	ld	hl,#(_alphabet + 0x0015)
	ld	(hl),#0xEF
	ld	hl,#(_alphabet + 0x0016)
	ld	(hl),#0xEF
	ld	hl,#(_alphabet + 0x0017)
	ld	(hl),#0xEF
	ld	hl,#(_alphabet + 0x0018)
	ld	(hl),#0xEF
	ld	hl,#(_alphabet + 0x0019)
	ld	(hl),#0xEF
	ld	hl,#(_alphabet + 0x001a)
	ld	(hl),#0xEF
	ld	hl,#(_alphabet + 0x001b)
	ld	(hl),#0xEF
	ld	hl,#(_alphabet + 0x001c)
	ld	(hl),#0x83
	ld	hl,#(_alphabet + 0x001d)
	ld	(hl),#0x83
	ld	hl,#(_alphabet + 0x001e)
	ld	(hl),#0xFF
	ld	hl,#(_alphabet + 0x001f)
	ld	(hl),#0xFF
	ld	hl,#(_alphabet + 0x0020)
	ld	(hl),#0x83
	ld	hl,#(_alphabet + 0x0021)
	ld	(hl),#0x83
	ld	hl,#(_alphabet + 0x0022)
	ld	(hl),#0x7D
	ld	hl,#(_alphabet + 0x0023)
	ld	(hl),#0x7D
	ld	hl,#(_alphabet + 0x0024)
	ld	(hl),#0xFD
	ld	hl,#(_alphabet + 0x0025)
	ld	(hl),#0xFD
	ld	hl,#(_alphabet + 0x0026)
	ld	(hl),#0xF3
	ld	hl,#(_alphabet + 0x0027)
	ld	(hl),#0xF3
	ld	hl,#(_alphabet + 0x0028)
	ld	(hl),#0xCF
	ld	hl,#(_alphabet + 0x0029)
	ld	(hl),#0xCF
	ld	hl,#(_alphabet + 0x002a)
	ld	(hl),#0xBF
	ld	hl,#(_alphabet + 0x002b)
	ld	(hl),#0xBF
	ld	hl,#(_alphabet + 0x002c)
	ld	(hl),#0x01
	ld	hl,#(_alphabet + 0x002d)
	ld	(hl),#0x01
	ld	hl,#(_alphabet + 0x002e)
	ld	(hl),#0xFF
	ld	hl,#(_alphabet + 0x002f)
	ld	(hl),#0xFF
	ld	hl,#(_alphabet + 0x0030)
	ld	(hl),#0x83
	ld	hl,#(_alphabet + 0x0031)
	ld	(hl),#0x83
	ld	hl,#(_alphabet + 0x0032)
	ld	(hl),#0x7D
	ld	hl,#(_alphabet + 0x0033)
	ld	(hl),#0x7D
	ld	hl,#(_alphabet + 0x0034)
	ld	(hl),#0xFD
	ld	hl,#(_alphabet + 0x0035)
	ld	(hl),#0xFD
	ld	hl,#(_alphabet + 0x0036)
	ld	(hl),#0xC3
	ld	hl,#(_alphabet + 0x0037)
	ld	(hl),#0xC3
	ld	hl,#(_alphabet + 0x0038)
	ld	(hl),#0xFD
	ld	hl,#(_alphabet + 0x0039)
	ld	(hl),#0xFD
	ld	hl,#(_alphabet + 0x003a)
	ld	(hl),#0x7D
	ld	hl,#(_alphabet + 0x003b)
	ld	(hl),#0x7D
	ld	hl,#(_alphabet + 0x003c)
	ld	(hl),#0x83
	ld	hl,#(_alphabet + 0x003d)
	ld	(hl),#0x83
	ld	hl,#(_alphabet + 0x003e)
	ld	(hl),#0xFF
	ld	hl,#(_alphabet + 0x003f)
	ld	(hl),#0xFF
	ld	hl,#(_alphabet + 0x0040)
	ld	(hl),#0xF3
	ld	hl,#(_alphabet + 0x0041)
	ld	(hl),#0xF3
	ld	hl,#(_alphabet + 0x0042)
	ld	(hl),#0xEB
	ld	hl,#(_alphabet + 0x0043)
	ld	(hl),#0xEB
	ld	hl,#(_alphabet + 0x0044)
	ld	(hl),#0xDB
	ld	hl,#(_alphabet + 0x0045)
	ld	(hl),#0xDB
	ld	hl,#(_alphabet + 0x0046)
	ld	(hl),#0xBB
	ld	hl,#(_alphabet + 0x0047)
	ld	(hl),#0xBB
	ld	hl,#(_alphabet + 0x0048)
	ld	(hl),#0x7B
	ld	hl,#(_alphabet + 0x0049)
	ld	(hl),#0x7B
	ld	hl,#(_alphabet + 0x004a)
	ld	(hl),#0x01
	ld	hl,#(_alphabet + 0x004b)
	ld	(hl),#0x01
	ld	hl,#(_alphabet + 0x004c)
	ld	(hl),#0xFB
	ld	hl,#(_alphabet + 0x004d)
	ld	(hl),#0xFB
	ld	hl,#(_alphabet + 0x004e)
	ld	(hl),#0xFF
	ld	hl,#(_alphabet + 0x004f)
	ld	(hl),#0xFF
	ld	hl,#(_alphabet + 0x0050)
	ld	(hl),#0x03
	ld	hl,#(_alphabet + 0x0051)
	ld	(hl),#0x03
	ld	hl,#(_alphabet + 0x0052)
	ld	(hl),#0x7F
	ld	hl,#(_alphabet + 0x0053)
	ld	(hl),#0x7F
	ld	hl,#(_alphabet + 0x0054)
	ld	(hl),#0x7F
	ld	hl,#(_alphabet + 0x0055)
	ld	(hl),#0x7F
	ld	hl,#(_alphabet + 0x0056)
	ld	(hl),#0x03
	ld	hl,#(_alphabet + 0x0057)
	ld	(hl),#0x03
	ld	hl,#(_alphabet + 0x0058)
	ld	(hl),#0xFD
	ld	hl,#(_alphabet + 0x0059)
	ld	(hl),#0xFD
	ld	hl,#(_alphabet + 0x005a)
	ld	(hl),#0x7D
	ld	hl,#(_alphabet + 0x005b)
	ld	(hl),#0x7D
	ld	hl,#(_alphabet + 0x005c)
	ld	(hl),#0x83
	ld	hl,#(_alphabet + 0x005d)
	ld	(hl),#0x83
	ld	hl,#(_alphabet + 0x005e)
	ld	(hl),#0xFF
	ld	hl,#(_alphabet + 0x005f)
	ld	(hl),#0xFF
	ld	hl,#(_alphabet + 0x0060)
	ld	(hl),#0x83
	ld	hl,#(_alphabet + 0x0061)
	ld	(hl),#0x83
	ld	hl,#(_alphabet + 0x0062)
	ld	(hl),#0x7D
	ld	hl,#(_alphabet + 0x0063)
	ld	(hl),#0x7D
	ld	hl,#(_alphabet + 0x0064)
	ld	(hl),#0x7F
	ld	hl,#(_alphabet + 0x0065)
	ld	(hl),#0x7F
	ld	hl,#(_alphabet + 0x0066)
	ld	(hl),#0x03
	ld	hl,#(_alphabet + 0x0067)
	ld	(hl),#0x03
	ld	hl,#(_alphabet + 0x0068)
	ld	(hl),#0x7D
	ld	hl,#(_alphabet + 0x0069)
	ld	(hl),#0x7D
	ld	hl,#(_alphabet + 0x006a)
	ld	(hl),#0x7D
	ld	hl,#(_alphabet + 0x006b)
	ld	(hl),#0x7D
	ld	hl,#(_alphabet + 0x006c)
	ld	(hl),#0x83
	ld	hl,#(_alphabet + 0x006d)
	ld	(hl),#0x83
	ld	hl,#(_alphabet + 0x006e)
	ld	(hl),#0xFF
	ld	hl,#(_alphabet + 0x006f)
	ld	(hl),#0xFF
	ld	hl,#(_alphabet + 0x0070)
	ld	(hl),#0x81
	ld	hl,#(_alphabet + 0x0071)
	ld	(hl),#0x81
	ld	hl,#(_alphabet + 0x0072)
	ld	(hl),#0x7D
	ld	hl,#(_alphabet + 0x0073)
	ld	(hl),#0x7D
	ld	hl,#(_alphabet + 0x0074)
	ld	(hl),#0xFD
	ld	hl,#(_alphabet + 0x0075)
	ld	(hl),#0xFD
	ld	hl,#(_alphabet + 0x0076)
	ld	(hl),#0xFB
	ld	hl,#(_alphabet + 0x0077)
	ld	(hl),#0xFB
	ld	hl,#(_alphabet + 0x0078)
	ld	(hl),#0xFB
	ld	hl,#(_alphabet + 0x0079)
	ld	(hl),#0xFB
	ld	hl,#(_alphabet + 0x007a)
	ld	(hl),#0xF7
	ld	hl,#(_alphabet + 0x007b)
	ld	(hl),#0xF7
	ld	hl,#(_alphabet + 0x007c)
	ld	(hl),#0xF7
	ld	hl,#(_alphabet + 0x007d)
	ld	(hl),#0xF7
	ld	hl,#(_alphabet + 0x007e)
	ld	(hl),#0xFF
	ld	hl,#(_alphabet + 0x007f)
	ld	(hl),#0xFF
	ld	hl,#(_alphabet + 0x0080)
	ld	(hl),#0x83
	ld	hl,#(_alphabet + 0x0081)
	ld	(hl),#0x83
	ld	hl,#(_alphabet + 0x0082)
	ld	(hl),#0x7D
	ld	hl,#(_alphabet + 0x0083)
	ld	(hl),#0x7D
	ld	hl,#(_alphabet + 0x0084)
	ld	(hl),#0x7D
	ld	hl,#(_alphabet + 0x0085)
	ld	(hl),#0x7D
	ld	hl,#(_alphabet + 0x0086)
	ld	(hl),#0x83
	ld	hl,#(_alphabet + 0x0087)
	ld	(hl),#0x83
	ld	hl,#(_alphabet + 0x0088)
	ld	(hl),#0x7D
	ld	hl,#(_alphabet + 0x0089)
	ld	(hl),#0x7D
	ld	hl,#(_alphabet + 0x008a)
	ld	(hl),#0x7D
	ld	hl,#(_alphabet + 0x008b)
	ld	(hl),#0x7D
	ld	hl,#(_alphabet + 0x008c)
	ld	(hl),#0x83
	ld	hl,#(_alphabet + 0x008d)
	ld	(hl),#0x83
	ld	hl,#(_alphabet + 0x008e)
	ld	(hl),#0xFF
	ld	hl,#(_alphabet + 0x008f)
	ld	(hl),#0xFF
	ld	hl,#(_alphabet + 0x0090)
	ld	(hl),#0x83
	ld	hl,#(_alphabet + 0x0091)
	ld	(hl),#0x83
	ld	hl,#(_alphabet + 0x0092)
	ld	(hl),#0x7D
	ld	hl,#(_alphabet + 0x0093)
	ld	(hl),#0x7D
	ld	hl,#(_alphabet + 0x0094)
	ld	(hl),#0x7D
	ld	hl,#(_alphabet + 0x0095)
	ld	(hl),#0x7D
	ld	hl,#(_alphabet + 0x0096)
	ld	(hl),#0x81
	ld	hl,#(_alphabet + 0x0097)
	ld	(hl),#0x81
	ld	hl,#(_alphabet + 0x0098)
	ld	(hl),#0xFD
	ld	hl,#(_alphabet + 0x0099)
	ld	(hl),#0xFD
	ld	hl,#(_alphabet + 0x009a)
	ld	(hl),#0x7D
	ld	hl,#(_alphabet + 0x009b)
	ld	(hl),#0x7D
	ld	hl,#(_alphabet + 0x009c)
	ld	(hl),#0x83
	ld	hl,#(_alphabet + 0x009d)
	ld	(hl),#0x83
	ld	hl,#(_alphabet + 0x009e)
	ld	(hl),#0xFF
	ld	hl,#(_alphabet + 0x009f)
	ld	(hl),#0xFF
	ld	hl,#(_alphabet + 0x00a0)
	ld	(hl),#0xEF
	ld	hl,#(_alphabet + 0x00a1)
	ld	(hl),#0xEF
	ld	hl,#(_alphabet + 0x00a2)
	ld	(hl),#0xD7
	ld	hl,#(_alphabet + 0x00a3)
	ld	(hl),#0xD7
	ld	hl,#(_alphabet + 0x00a4)
	ld	(hl),#0xD7
	ld	hl,#(_alphabet + 0x00a5)
	ld	(hl),#0xD7
	ld	hl,#(_alphabet + 0x00a6)
	ld	(hl),#0xBB
	ld	hl,#(_alphabet + 0x00a7)
	ld	(hl),#0xBB
	ld	hl,#(_alphabet + 0x00a8)
	ld	(hl),#0x83
	ld	hl,#(_alphabet + 0x00a9)
	ld	(hl),#0x83
	ld	hl,#(_alphabet + 0x00aa)
	ld	(hl),#0x7D
	ld	hl,#(_alphabet + 0x00ab)
	ld	(hl),#0x7D
	ld	hl,#(_alphabet + 0x00ac)
	ld	(hl),#0x7D
	ld	hl,#(_alphabet + 0x00ad)
	ld	(hl),#0x7D
	ld	hl,#(_alphabet + 0x00ae)
	ld	(hl),#0xFF
	ld	hl,#(_alphabet + 0x00af)
	ld	(hl),#0xFF
	ld	hl,#(_alphabet + 0x00b0)
	ld	(hl),#0x07
	ld	hl,#(_alphabet + 0x00b1)
	ld	(hl),#0x07
	ld	hl,#(_alphabet + 0x00b2)
	ld	(hl),#0x7B
	ld	hl,#(_alphabet + 0x00b3)
	ld	(hl),#0x7B
	ld	hl,#(_alphabet + 0x00b4)
	ld	(hl),#0x7B
	ld	hl,#(_alphabet + 0x00b5)
	ld	(hl),#0x7B
	ld	hl,#(_alphabet + 0x00b6)
	ld	(hl),#0x03
	ld	hl,#(_alphabet + 0x00b7)
	ld	(hl),#0x03
	ld	hl,#(_alphabet + 0x00b8)
	ld	(hl),#0x7D
	ld	hl,#(_alphabet + 0x00b9)
	ld	(hl),#0x7D
	ld	hl,#(_alphabet + 0x00ba)
	ld	(hl),#0x7D
	ld	hl,#(_alphabet + 0x00bb)
	ld	(hl),#0x7D
	ld	hl,#(_alphabet + 0x00bc)
	ld	(hl),#0x03
	ld	hl,#(_alphabet + 0x00bd)
	ld	(hl),#0x03
	ld	hl,#(_alphabet + 0x00be)
	ld	(hl),#0xFF
	ld	hl,#(_alphabet + 0x00bf)
	ld	(hl),#0xFF
	ld	hl,#(_alphabet + 0x00c0)
	ld	(hl),#0xC3
	ld	hl,#(_alphabet + 0x00c1)
	ld	(hl),#0xC3
	ld	hl,#(_alphabet + 0x00c2)
	ld	(hl),#0xBD
	ld	hl,#(_alphabet + 0x00c3)
	ld	(hl),#0xBD
	ld	hl,#(_alphabet + 0x00c4)
	ld	(hl),#0x7F
	ld	hl,#(_alphabet + 0x00c5)
	ld	(hl),#0x7F
	ld	hl,#(_alphabet + 0x00c6)
	ld	(hl),#0x7F
	ld	hl,#(_alphabet + 0x00c7)
	ld	(hl),#0x7F
	ld	hl,#(_alphabet + 0x00c8)
	ld	(hl),#0x7F
	ld	hl,#(_alphabet + 0x00c9)
	ld	(hl),#0x7F
	ld	hl,#(_alphabet + 0x00ca)
	ld	(hl),#0xBD
	ld	hl,#(_alphabet + 0x00cb)
	ld	(hl),#0xBD
	ld	hl,#(_alphabet + 0x00cc)
	ld	(hl),#0xC3
	ld	hl,#(_alphabet + 0x00cd)
	ld	(hl),#0xC3
	ld	hl,#(_alphabet + 0x00ce)
	ld	(hl),#0xFF
	ld	hl,#(_alphabet + 0x00cf)
	ld	(hl),#0xFF
	ld	hl,#(_alphabet + 0x00d0)
	ld	(hl),#0x07
	ld	hl,#(_alphabet + 0x00d1)
	ld	(hl),#0x07
	ld	hl,#(_alphabet + 0x00d2)
	ld	(hl),#0x7B
	ld	hl,#(_alphabet + 0x00d3)
	ld	(hl),#0x7B
	ld	hl,#(_alphabet + 0x00d4)
	ld	(hl),#0x7D
	ld	hl,#(_alphabet + 0x00d5)
	ld	(hl),#0x7D
	ld	hl,#(_alphabet + 0x00d6)
	ld	(hl),#0x7D
	ld	hl,#(_alphabet + 0x00d7)
	ld	(hl),#0x7D
	ld	hl,#(_alphabet + 0x00d8)
	ld	(hl),#0x7D
	ld	hl,#(_alphabet + 0x00d9)
	ld	(hl),#0x7D
	ld	hl,#(_alphabet + 0x00da)
	ld	(hl),#0x7B
	ld	hl,#(_alphabet + 0x00db)
	ld	(hl),#0x7B
	ld	hl,#(_alphabet + 0x00dc)
	ld	(hl),#0x07
	ld	hl,#(_alphabet + 0x00dd)
	ld	(hl),#0x07
	ld	hl,#(_alphabet + 0x00de)
	ld	(hl),#0xFF
	ld	hl,#(_alphabet + 0x00df)
	ld	(hl),#0xFF
	ld	hl,#(_alphabet + 0x00e0)
	ld	(hl),#0x01
	ld	hl,#(_alphabet + 0x00e1)
	ld	(hl),#0x01
	ld	hl,#(_alphabet + 0x00e2)
	ld	(hl),#0x7F
	ld	hl,#(_alphabet + 0x00e3)
	ld	(hl),#0x7F
	ld	hl,#(_alphabet + 0x00e4)
	ld	(hl),#0x7F
	ld	hl,#(_alphabet + 0x00e5)
	ld	(hl),#0x7F
	ld	hl,#(_alphabet + 0x00e6)
	ld	(hl),#0x03
	ld	hl,#(_alphabet + 0x00e7)
	ld	(hl),#0x03
	ld	hl,#(_alphabet + 0x00e8)
	ld	(hl),#0x7F
	ld	hl,#(_alphabet + 0x00e9)
	ld	(hl),#0x7F
	ld	hl,#(_alphabet + 0x00ea)
	ld	(hl),#0x7F
	ld	hl,#(_alphabet + 0x00eb)
	ld	(hl),#0x7F
	ld	hl,#(_alphabet + 0x00ec)
	ld	(hl),#0x01
	ld	hl,#(_alphabet + 0x00ed)
	ld	(hl),#0x01
	ld	hl,#(_alphabet + 0x00ee)
	ld	(hl),#0xFF
	ld	hl,#(_alphabet + 0x00ef)
	ld	(hl),#0xFF
	ld	hl,#(_alphabet + 0x00f0)
	ld	(hl),#0x01
	ld	hl,#(_alphabet + 0x00f1)
	ld	(hl),#0x01
	ld	hl,#(_alphabet + 0x00f2)
	ld	(hl),#0x7F
	ld	hl,#(_alphabet + 0x00f3)
	ld	(hl),#0x7F
	ld	hl,#(_alphabet + 0x00f4)
	ld	(hl),#0x7F
	ld	hl,#(_alphabet + 0x00f5)
	ld	(hl),#0x7F
	ld	hl,#(_alphabet + 0x00f6)
	ld	(hl),#0x03
	ld	hl,#(_alphabet + 0x00f7)
	ld	(hl),#0x03
	ld	hl,#(_alphabet + 0x00f8)
	ld	(hl),#0x7F
	ld	hl,#(_alphabet + 0x00f9)
	ld	(hl),#0x7F
	ld	hl,#(_alphabet + 0x00fa)
	ld	(hl),#0x7F
	ld	hl,#(_alphabet + 0x00fb)
	ld	(hl),#0x7F
	ld	hl,#(_alphabet + 0x00fc)
	ld	(hl),#0x7F
	ld	hl,#(_alphabet + 0x00fd)
	ld	(hl),#0x7F
	ld	hl,#(_alphabet + 0x00fe)
	ld	(hl),#0xFF
	ld	hl,#(_alphabet + 0x00ff)
	ld	(hl),#0xFF
	ld	hl,#(_alphabet + 0x0100)
	ld	(hl),#0xC3
	ld	hl,#(_alphabet + 0x0101)
	ld	(hl),#0xC3
	ld	hl,#(_alphabet + 0x0102)
	ld	(hl),#0xBD
	ld	hl,#(_alphabet + 0x0103)
	ld	(hl),#0xBD
	ld	hl,#(_alphabet + 0x0104)
	ld	(hl),#0x7F
	ld	hl,#(_alphabet + 0x0105)
	ld	(hl),#0x7F
	ld	hl,#(_alphabet + 0x0106)
	ld	(hl),#0x61
	ld	hl,#(_alphabet + 0x0107)
	ld	(hl),#0x61
	ld	hl,#(_alphabet + 0x0108)
	ld	(hl),#0x7D
	ld	hl,#(_alphabet + 0x0109)
	ld	(hl),#0x7D
	ld	hl,#(_alphabet + 0x010a)
	ld	(hl),#0xBD
	ld	hl,#(_alphabet + 0x010b)
	ld	(hl),#0xBD
	ld	hl,#(_alphabet + 0x010c)
	ld	(hl),#0xC3
	ld	hl,#(_alphabet + 0x010d)
	ld	(hl),#0xC3
	ld	hl,#(_alphabet + 0x010e)
	ld	(hl),#0xFF
	ld	hl,#(_alphabet + 0x010f)
	ld	(hl),#0xFF
	ld	hl,#(_alphabet + 0x0110)
	ld	(hl),#0x7D
	ld	hl,#(_alphabet + 0x0111)
	ld	(hl),#0x7D
	ld	hl,#(_alphabet + 0x0112)
	ld	(hl),#0x7D
	ld	hl,#(_alphabet + 0x0113)
	ld	(hl),#0x7D
	ld	hl,#(_alphabet + 0x0114)
	ld	(hl),#0x7D
	ld	hl,#(_alphabet + 0x0115)
	ld	(hl),#0x7D
	ld	hl,#(_alphabet + 0x0116)
	ld	(hl),#0x01
	ld	hl,#(_alphabet + 0x0117)
	ld	(hl),#0x01
	ld	hl,#(_alphabet + 0x0118)
	ld	(hl),#0x7D
	ld	hl,#(_alphabet + 0x0119)
	ld	(hl),#0x7D
	ld	hl,#(_alphabet + 0x011a)
	ld	(hl),#0x7D
	ld	hl,#(_alphabet + 0x011b)
	ld	(hl),#0x7D
	ld	hl,#(_alphabet + 0x011c)
	ld	(hl),#0x7D
	ld	hl,#(_alphabet + 0x011d)
	ld	(hl),#0x7D
	ld	hl,#(_alphabet + 0x011e)
	ld	(hl),#0xFF
	ld	hl,#(_alphabet + 0x011f)
	ld	(hl),#0xFF
	ld	hl,#(_alphabet + 0x0120)
	ld	(hl),#0x83
	ld	hl,#(_alphabet + 0x0121)
	ld	(hl),#0x83
	ld	hl,#(_alphabet + 0x0122)
	ld	(hl),#0xEF
	ld	hl,#(_alphabet + 0x0123)
	ld	(hl),#0xEF
	ld	hl,#(_alphabet + 0x0124)
	ld	(hl),#0xEF
	ld	hl,#(_alphabet + 0x0125)
	ld	(hl),#0xEF
	ld	hl,#(_alphabet + 0x0126)
	ld	(hl),#0xEF
	ld	hl,#(_alphabet + 0x0127)
	ld	(hl),#0xEF
	ld	hl,#(_alphabet + 0x0128)
	ld	(hl),#0xEF
	ld	hl,#(_alphabet + 0x0129)
	ld	(hl),#0xEF
	ld	hl,#(_alphabet + 0x012a)
	ld	(hl),#0xEF
	ld	hl,#(_alphabet + 0x012b)
	ld	(hl),#0xEF
	ld	hl,#(_alphabet + 0x012c)
	ld	(hl),#0x83
	ld	hl,#(_alphabet + 0x012d)
	ld	(hl),#0x83
	ld	hl,#(_alphabet + 0x012e)
	ld	(hl),#0xFF
	ld	hl,#(_alphabet + 0x012f)
	ld	(hl),#0xFF
	ld	hl,#(_alphabet + 0x0130)
	ld	(hl),#0x81
	ld	hl,#(_alphabet + 0x0131)
	ld	(hl),#0x81
	ld	hl,#(_alphabet + 0x0132)
	ld	(hl),#0xF7
	ld	hl,#(_alphabet + 0x0133)
	ld	(hl),#0xF7
	ld	hl,#(_alphabet + 0x0134)
	ld	(hl),#0xF7
	ld	hl,#(_alphabet + 0x0135)
	ld	(hl),#0xF7
	ld	hl,#(_alphabet + 0x0136)
	ld	(hl),#0xF7
	ld	hl,#(_alphabet + 0x0137)
	ld	(hl),#0xF7
	ld	hl,#(_alphabet + 0x0138)
	ld	(hl),#0x77
	ld	hl,#(_alphabet + 0x0139)
	ld	(hl),#0x77
	ld	hl,#(_alphabet + 0x013a)
	ld	(hl),#0x77
	ld	hl,#(_alphabet + 0x013b)
	ld	(hl),#0x77
	ld	hl,#(_alphabet + 0x013c)
	ld	(hl),#0x8F
	ld	hl,#(_alphabet + 0x013d)
	ld	(hl),#0x8F
	ld	hl,#(_alphabet + 0x013e)
	ld	(hl),#0xFF
	ld	hl,#(_alphabet + 0x013f)
	ld	(hl),#0xFF
	ld	hl,#(_alphabet + 0x0140)
	ld	(hl),#0x7B
	ld	hl,#(_alphabet + 0x0141)
	ld	(hl),#0x7B
	ld	hl,#(_alphabet + 0x0142)
	ld	(hl),#0x77
	ld	hl,#(_alphabet + 0x0143)
	ld	(hl),#0x77
	ld	hl,#(_alphabet + 0x0144)
	ld	(hl),#0x6F
	ld	hl,#(_alphabet + 0x0145)
	ld	(hl),#0x6F
	ld	hl,#(_alphabet + 0x0146)
	ld	(hl),#0x4F
	ld	hl,#(_alphabet + 0x0147)
	ld	(hl),#0x4F
	ld	hl,#(_alphabet + 0x0148)
	ld	(hl),#0x37
	ld	hl,#(_alphabet + 0x0149)
	ld	(hl),#0x37
	ld	hl,#(_alphabet + 0x014a)
	ld	(hl),#0x7B
	ld	hl,#(_alphabet + 0x014b)
	ld	(hl),#0x7B
	ld	hl,#(_alphabet + 0x014c)
	ld	(hl),#0x7D
	ld	hl,#(_alphabet + 0x014d)
	ld	(hl),#0x7D
	ld	hl,#(_alphabet + 0x014e)
	ld	(hl),#0xFF
	ld	hl,#(_alphabet + 0x014f)
	ld	(hl),#0xFF
	ld	hl,#(_alphabet + 0x0150)
	ld	(hl),#0x7F
	ld	hl,#(_alphabet + 0x0151)
	ld	(hl),#0x7F
	ld	hl,#(_alphabet + 0x0152)
	ld	(hl),#0x7F
	ld	hl,#(_alphabet + 0x0153)
	ld	(hl),#0x7F
	ld	hl,#(_alphabet + 0x0154)
	ld	(hl),#0x7F
	ld	hl,#(_alphabet + 0x0155)
	ld	(hl),#0x7F
	ld	hl,#(_alphabet + 0x0156)
	ld	(hl),#0x7F
	ld	hl,#(_alphabet + 0x0157)
	ld	(hl),#0x7F
	ld	hl,#(_alphabet + 0x0158)
	ld	(hl),#0x7F
	ld	hl,#(_alphabet + 0x0159)
	ld	(hl),#0x7F
	ld	hl,#(_alphabet + 0x015a)
	ld	(hl),#0x7F
	ld	hl,#(_alphabet + 0x015b)
	ld	(hl),#0x7F
	ld	hl,#(_alphabet + 0x015c)
	ld	(hl),#0x01
	ld	hl,#(_alphabet + 0x015d)
	ld	(hl),#0x01
	ld	hl,#(_alphabet + 0x015e)
	ld	(hl),#0xFF
	ld	hl,#(_alphabet + 0x015f)
	ld	(hl),#0xFF
	ld	hl,#(_alphabet + 0x0160)
	ld	(hl),#0x7D
	ld	hl,#(_alphabet + 0x0161)
	ld	(hl),#0x7D
	ld	hl,#(_alphabet + 0x0162)
	ld	(hl),#0x39
	ld	hl,#(_alphabet + 0x0163)
	ld	(hl),#0x39
	ld	hl,#(_alphabet + 0x0164)
	ld	(hl),#0x55
	ld	hl,#(_alphabet + 0x0165)
	ld	(hl),#0x55
	ld	hl,#(_alphabet + 0x0166)
	ld	(hl),#0x6D
	ld	hl,#(_alphabet + 0x0167)
	ld	(hl),#0x6D
	ld	hl,#(_alphabet + 0x0168)
	ld	(hl),#0x7D
	ld	hl,#(_alphabet + 0x0169)
	ld	(hl),#0x7D
	ld	hl,#(_alphabet + 0x016a)
	ld	(hl),#0x7D
	ld	hl,#(_alphabet + 0x016b)
	ld	(hl),#0x7D
	ld	hl,#(_alphabet + 0x016c)
	ld	(hl),#0x7D
	ld	hl,#(_alphabet + 0x016d)
	ld	(hl),#0x7D
	ld	hl,#(_alphabet + 0x016e)
	ld	(hl),#0xFF
	ld	hl,#(_alphabet + 0x016f)
	ld	(hl),#0xFF
	ld	hl,#(_alphabet + 0x0170)
	ld	(hl),#0x7D
	ld	hl,#(_alphabet + 0x0171)
	ld	(hl),#0x7D
	ld	hl,#(_alphabet + 0x0172)
	ld	(hl),#0x3D
	ld	hl,#(_alphabet + 0x0173)
	ld	(hl),#0x3D
	ld	hl,#(_alphabet + 0x0174)
	ld	(hl),#0x5D
	ld	hl,#(_alphabet + 0x0175)
	ld	(hl),#0x5D
	ld	hl,#(_alphabet + 0x0176)
	ld	(hl),#0x6D
	ld	hl,#(_alphabet + 0x0177)
	ld	(hl),#0x6D
	ld	hl,#(_alphabet + 0x0178)
	ld	(hl),#0x75
	ld	hl,#(_alphabet + 0x0179)
	ld	(hl),#0x75
	ld	hl,#(_alphabet + 0x017a)
	ld	(hl),#0x79
	ld	hl,#(_alphabet + 0x017b)
	ld	(hl),#0x79
	ld	hl,#(_alphabet + 0x017c)
	ld	(hl),#0x7D
	ld	hl,#(_alphabet + 0x017d)
	ld	(hl),#0x7D
	ld	hl,#(_alphabet + 0x017e)
	ld	(hl),#0xFF
	ld	hl,#(_alphabet + 0x017f)
	ld	(hl),#0xFF
	ld	hl,#(_alphabet + 0x0180)
	ld	(hl),#0xC7
	ld	hl,#(_alphabet + 0x0181)
	ld	(hl),#0xC7
	ld	hl,#(_alphabet + 0x0182)
	ld	(hl),#0xBB
	ld	hl,#(_alphabet + 0x0183)
	ld	(hl),#0xBB
	ld	hl,#(_alphabet + 0x0184)
	ld	(hl),#0x7D
	ld	hl,#(_alphabet + 0x0185)
	ld	(hl),#0x7D
	ld	hl,#(_alphabet + 0x0186)
	ld	(hl),#0x7D
	ld	hl,#(_alphabet + 0x0187)
	ld	(hl),#0x7D
	ld	hl,#(_alphabet + 0x0188)
	ld	(hl),#0x7D
	ld	hl,#(_alphabet + 0x0189)
	ld	(hl),#0x7D
	ld	hl,#(_alphabet + 0x018a)
	ld	(hl),#0xBB
	ld	hl,#(_alphabet + 0x018b)
	ld	(hl),#0xBB
	ld	hl,#(_alphabet + 0x018c)
	ld	(hl),#0xC7
	ld	hl,#(_alphabet + 0x018d)
	ld	(hl),#0xC7
	ld	hl,#(_alphabet + 0x018e)
	ld	(hl),#0xFF
	ld	hl,#(_alphabet + 0x018f)
	ld	(hl),#0xFF
	ld	hl,#(_alphabet + 0x0190)
	ld	(hl),#0x03
	ld	hl,#(_alphabet + 0x0191)
	ld	(hl),#0x03
	ld	hl,#(_alphabet + 0x0192)
	ld	(hl),#0x7D
	ld	hl,#(_alphabet + 0x0193)
	ld	(hl),#0x7D
	ld	hl,#(_alphabet + 0x0194)
	ld	(hl),#0x7D
	ld	hl,#(_alphabet + 0x0195)
	ld	(hl),#0x7D
	ld	hl,#(_alphabet + 0x0196)
	ld	(hl),#0x03
	ld	hl,#(_alphabet + 0x0197)
	ld	(hl),#0x03
	ld	hl,#(_alphabet + 0x0198)
	ld	(hl),#0x7F
	ld	hl,#(_alphabet + 0x0199)
	ld	(hl),#0x7F
	ld	hl,#(_alphabet + 0x019a)
	ld	(hl),#0x7F
	ld	hl,#(_alphabet + 0x019b)
	ld	(hl),#0x7F
	ld	hl,#(_alphabet + 0x019c)
	ld	(hl),#0x7F
	ld	hl,#(_alphabet + 0x019d)
	ld	(hl),#0x7F
	ld	hl,#(_alphabet + 0x019e)
	ld	(hl),#0xFF
	ld	hl,#(_alphabet + 0x019f)
	ld	(hl),#0xFF
	ld	hl,#(_alphabet + 0x01a0)
	ld	(hl),#0xC7
	ld	hl,#(_alphabet + 0x01a1)
	ld	(hl),#0xC7
	ld	hl,#(_alphabet + 0x01a2)
	ld	(hl),#0xBB
	ld	hl,#(_alphabet + 0x01a3)
	ld	(hl),#0xBB
	ld	hl,#(_alphabet + 0x01a4)
	ld	(hl),#0x7D
	ld	hl,#(_alphabet + 0x01a5)
	ld	(hl),#0x7D
	ld	hl,#(_alphabet + 0x01a6)
	ld	(hl),#0x7D
	ld	hl,#(_alphabet + 0x01a7)
	ld	(hl),#0x7D
	ld	hl,#(_alphabet + 0x01a8)
	ld	(hl),#0x75
	ld	hl,#(_alphabet + 0x01a9)
	ld	(hl),#0x75
	ld	hl,#(_alphabet + 0x01aa)
	ld	(hl),#0xBB
	ld	hl,#(_alphabet + 0x01ab)
	ld	(hl),#0xBB
	ld	hl,#(_alphabet + 0x01ac)
	ld	(hl),#0xC5
	ld	hl,#(_alphabet + 0x01ad)
	ld	(hl),#0xC5
	ld	hl,#(_alphabet + 0x01ae)
	ld	(hl),#0xFF
	ld	hl,#(_alphabet + 0x01af)
	ld	(hl),#0xFF
	ld	hl,#(_alphabet + 0x01b0)
	ld	(hl),#0x03
	ld	hl,#(_alphabet + 0x01b1)
	ld	(hl),#0x03
	ld	hl,#(_alphabet + 0x01b2)
	ld	(hl),#0x7D
	ld	hl,#(_alphabet + 0x01b3)
	ld	(hl),#0x7D
	ld	hl,#(_alphabet + 0x01b4)
	ld	(hl),#0x7D
	ld	hl,#(_alphabet + 0x01b5)
	ld	(hl),#0x7D
	ld	hl,#(_alphabet + 0x01b6)
	ld	(hl),#0x03
	ld	hl,#(_alphabet + 0x01b7)
	ld	(hl),#0x03
	ld	hl,#(_alphabet + 0x01b8)
	ld	(hl),#0x77
	ld	hl,#(_alphabet + 0x01b9)
	ld	(hl),#0x77
	ld	hl,#(_alphabet + 0x01ba)
	ld	(hl),#0x7B
	ld	hl,#(_alphabet + 0x01bb)
	ld	(hl),#0x7B
	ld	hl,#(_alphabet + 0x01bc)
	ld	(hl),#0x7D
	ld	hl,#(_alphabet + 0x01bd)
	ld	(hl),#0x7D
	ld	hl,#(_alphabet + 0x01be)
	ld	(hl),#0xFF
	ld	hl,#(_alphabet + 0x01bf)
	ld	(hl),#0xFF
	ld	hl,#(_alphabet + 0x01c0)
	ld	(hl),#0x87
	ld	hl,#(_alphabet + 0x01c1)
	ld	(hl),#0x87
	ld	hl,#(_alphabet + 0x01c2)
	ld	(hl),#0x7B
	ld	hl,#(_alphabet + 0x01c3)
	ld	(hl),#0x7B
	ld	hl,#(_alphabet + 0x01c4)
	ld	(hl),#0x7F
	ld	hl,#(_alphabet + 0x01c5)
	ld	(hl),#0x7F
	ld	hl,#(_alphabet + 0x01c6)
	ld	(hl),#0x83
	ld	hl,#(_alphabet + 0x01c7)
	ld	(hl),#0x83
	ld	hl,#(_alphabet + 0x01c8)
	ld	(hl),#0xFD
	ld	hl,#(_alphabet + 0x01c9)
	ld	(hl),#0xFD
	ld	hl,#(_alphabet + 0x01ca)
	ld	(hl),#0x7D
	ld	hl,#(_alphabet + 0x01cb)
	ld	(hl),#0x7D
	ld	hl,#(_alphabet + 0x01cc)
	ld	(hl),#0x83
	ld	hl,#(_alphabet + 0x01cd)
	ld	(hl),#0x83
	ld	hl,#(_alphabet + 0x01ce)
	ld	(hl),#0xFF
	ld	hl,#(_alphabet + 0x01cf)
	ld	(hl),#0xFF
	ld	hl,#(_alphabet + 0x01d0)
	ld	(hl),#0x01
	ld	hl,#(_alphabet + 0x01d1)
	ld	(hl),#0x01
	ld	hl,#(_alphabet + 0x01d2)
	ld	(hl),#0xEF
	ld	hl,#(_alphabet + 0x01d3)
	ld	(hl),#0xEF
	ld	hl,#(_alphabet + 0x01d4)
	ld	(hl),#0xEF
	ld	hl,#(_alphabet + 0x01d5)
	ld	(hl),#0xEF
	ld	hl,#(_alphabet + 0x01d6)
	ld	(hl),#0xEF
	ld	hl,#(_alphabet + 0x01d7)
	ld	(hl),#0xEF
	ld	hl,#(_alphabet + 0x01d8)
	ld	(hl),#0xEF
	ld	hl,#(_alphabet + 0x01d9)
	ld	(hl),#0xEF
	ld	hl,#(_alphabet + 0x01da)
	ld	(hl),#0xEF
	ld	hl,#(_alphabet + 0x01db)
	ld	(hl),#0xEF
	ld	hl,#(_alphabet + 0x01dc)
	ld	(hl),#0xEF
	ld	hl,#(_alphabet + 0x01dd)
	ld	(hl),#0xEF
	ld	hl,#(_alphabet + 0x01de)
	ld	(hl),#0xFF
	ld	hl,#(_alphabet + 0x01df)
	ld	(hl),#0xFF
	ld	hl,#(_alphabet + 0x01e0)
	ld	(hl),#0x7D
	ld	hl,#(_alphabet + 0x01e1)
	ld	(hl),#0x7D
	ld	hl,#(_alphabet + 0x01e2)
	ld	(hl),#0x7D
	ld	hl,#(_alphabet + 0x01e3)
	ld	(hl),#0x7D
	ld	hl,#(_alphabet + 0x01e4)
	ld	(hl),#0x7D
	ld	hl,#(_alphabet + 0x01e5)
	ld	(hl),#0x7D
	ld	hl,#(_alphabet + 0x01e6)
	ld	(hl),#0x7D
	ld	hl,#(_alphabet + 0x01e7)
	ld	(hl),#0x7D
	ld	hl,#(_alphabet + 0x01e8)
	ld	(hl),#0x7D
	ld	hl,#(_alphabet + 0x01e9)
	ld	(hl),#0x7D
	ld	hl,#(_alphabet + 0x01ea)
	ld	(hl),#0x7D
	ld	hl,#(_alphabet + 0x01eb)
	ld	(hl),#0x7D
	ld	hl,#(_alphabet + 0x01ec)
	ld	(hl),#0x83
	ld	hl,#(_alphabet + 0x01ed)
	ld	(hl),#0x83
	ld	hl,#(_alphabet + 0x01ee)
	ld	(hl),#0xFF
	ld	hl,#(_alphabet + 0x01ef)
	ld	(hl),#0xFF
	ld	hl,#(_alphabet + 0x01f0)
	ld	(hl),#0x7D
	ld	hl,#(_alphabet + 0x01f1)
	ld	(hl),#0x7D
	ld	hl,#(_alphabet + 0x01f2)
	ld	(hl),#0x7D
	ld	hl,#(_alphabet + 0x01f3)
	ld	(hl),#0x7D
	ld	hl,#(_alphabet + 0x01f4)
	ld	(hl),#0xBB
	ld	hl,#(_alphabet + 0x01f5)
	ld	(hl),#0xBB
	ld	hl,#(_alphabet + 0x01f6)
	ld	(hl),#0xBB
	ld	hl,#(_alphabet + 0x01f7)
	ld	(hl),#0xBB
	ld	hl,#(_alphabet + 0x01f8)
	ld	(hl),#0xD7
	ld	hl,#(_alphabet + 0x01f9)
	ld	(hl),#0xD7
	ld	hl,#(_alphabet + 0x01fa)
	ld	(hl),#0xD7
	ld	hl,#(_alphabet + 0x01fb)
	ld	(hl),#0xD7
	ld	hl,#(_alphabet + 0x01fc)
	ld	(hl),#0xEF
	ld	hl,#(_alphabet + 0x01fd)
	ld	(hl),#0xEF
	ld	hl,#(_alphabet + 0x01fe)
	ld	(hl),#0xFF
	ld	hl,#(_alphabet + 0x01ff)
	ld	(hl),#0xFF
	ld	hl,#(_alphabet + 0x0200)
	ld	(hl),#0x7D
	ld	hl,#(_alphabet + 0x0201)
	ld	(hl),#0x7D
	ld	hl,#(_alphabet + 0x0202)
	ld	(hl),#0x6D
	ld	hl,#(_alphabet + 0x0203)
	ld	(hl),#0x6D
	ld	hl,#(_alphabet + 0x0204)
	ld	(hl),#0x55
	ld	hl,#(_alphabet + 0x0205)
	ld	(hl),#0x55
	ld	hl,#(_alphabet + 0x0206)
	ld	(hl),#0x55
	ld	hl,#(_alphabet + 0x0207)
	ld	(hl),#0x55
	ld	hl,#(_alphabet + 0x0208)
	ld	(hl),#0x39
	ld	hl,#(_alphabet + 0x0209)
	ld	(hl),#0x39
	ld	hl,#(_alphabet + 0x020a)
	ld	(hl),#0x39
	ld	hl,#(_alphabet + 0x020b)
	ld	(hl),#0x39
	ld	hl,#(_alphabet + 0x020c)
	ld	(hl),#0x7D
	ld	hl,#(_alphabet + 0x020d)
	ld	(hl),#0x7D
	ld	hl,#(_alphabet + 0x020e)
	ld	(hl),#0xFF
	ld	hl,#(_alphabet + 0x020f)
	ld	(hl),#0xFF
	ld	hl,#(_alphabet + 0x0210)
	ld	(hl),#0x39
	ld	hl,#(_alphabet + 0x0211)
	ld	(hl),#0x39
	ld	hl,#(_alphabet + 0x0212)
	ld	(hl),#0xBB
	ld	hl,#(_alphabet + 0x0213)
	ld	(hl),#0xBB
	ld	hl,#(_alphabet + 0x0214)
	ld	(hl),#0xD7
	ld	hl,#(_alphabet + 0x0215)
	ld	(hl),#0xD7
	ld	hl,#(_alphabet + 0x0216)
	ld	(hl),#0xEF
	ld	hl,#(_alphabet + 0x0217)
	ld	(hl),#0xEF
	ld	hl,#(_alphabet + 0x0218)
	ld	(hl),#0xD7
	ld	hl,#(_alphabet + 0x0219)
	ld	(hl),#0xD7
	ld	hl,#(_alphabet + 0x021a)
	ld	(hl),#0xBB
	ld	hl,#(_alphabet + 0x021b)
	ld	(hl),#0xBB
	ld	hl,#(_alphabet + 0x021c)
	ld	(hl),#0x39
	ld	hl,#(_alphabet + 0x021d)
	ld	(hl),#0x39
	ld	hl,#(_alphabet + 0x021e)
	ld	(hl),#0xFF
	ld	hl,#(_alphabet + 0x021f)
	ld	(hl),#0xFF
	ld	hl,#(_alphabet + 0x0220)
	ld	(hl),#0x7D
	ld	hl,#(_alphabet + 0x0221)
	ld	(hl),#0x7D
	ld	hl,#(_alphabet + 0x0222)
	ld	(hl),#0xBB
	ld	hl,#(_alphabet + 0x0223)
	ld	(hl),#0xBB
	ld	hl,#(_alphabet + 0x0224)
	ld	(hl),#0xD7
	ld	hl,#(_alphabet + 0x0225)
	ld	(hl),#0xD7
	ld	hl,#(_alphabet + 0x0226)
	ld	(hl),#0xEF
	ld	hl,#(_alphabet + 0x0227)
	ld	(hl),#0xEF
	ld	hl,#(_alphabet + 0x0228)
	ld	(hl),#0xEF
	ld	hl,#(_alphabet + 0x0229)
	ld	(hl),#0xEF
	ld	hl,#(_alphabet + 0x022a)
	ld	(hl),#0xEF
	ld	hl,#(_alphabet + 0x022b)
	ld	(hl),#0xEF
	ld	hl,#(_alphabet + 0x022c)
	ld	(hl),#0xEF
	ld	hl,#(_alphabet + 0x022d)
	ld	(hl),#0xEF
	ld	hl,#(_alphabet + 0x022e)
	ld	(hl),#0xFF
	ld	hl,#(_alphabet + 0x022f)
	ld	(hl),#0xFF
	ld	hl,#(_alphabet + 0x0230)
	ld	(hl),#0x01
	ld	hl,#(_alphabet + 0x0231)
	ld	(hl),#0x01
	ld	hl,#(_alphabet + 0x0232)
	ld	(hl),#0xFB
	ld	hl,#(_alphabet + 0x0233)
	ld	(hl),#0xFB
	ld	hl,#(_alphabet + 0x0234)
	ld	(hl),#0xF7
	ld	hl,#(_alphabet + 0x0235)
	ld	(hl),#0xF7
	ld	hl,#(_alphabet + 0x0236)
	ld	(hl),#0xEF
	ld	hl,#(_alphabet + 0x0237)
	ld	(hl),#0xEF
	ld	hl,#(_alphabet + 0x0238)
	ld	(hl),#0xDF
	ld	hl,#(_alphabet + 0x0239)
	ld	(hl),#0xDF
	ld	hl,#(_alphabet + 0x023a)
	ld	(hl),#0xBF
	ld	hl,#(_alphabet + 0x023b)
	ld	(hl),#0xBF
	ld	hl,#(_alphabet + 0x023c)
	ld	(hl),#0x01
	ld	hl,#(_alphabet + 0x023d)
	ld	(hl),#0x01
	ld	hl,#(_alphabet + 0x023e)
	ld	(hl),#0xFF
	ld	hl,#(_alphabet + 0x023f)
	ld	(hl),#0xFF
	ld	hl,#(_alphabet + 0x0240)
	ld	(hl),#0xFF
	ld	hl,#(_alphabet + 0x0241)
	ld	(hl),#0xFF
	ld	hl,#(_alphabet + 0x0242)
	ld	(hl),#0xFF
	ld	hl,#(_alphabet + 0x0243)
	ld	(hl),#0xFF
	ld	hl,#(_alphabet + 0x0244)
	ld	(hl),#0xFF
	ld	hl,#(_alphabet + 0x0245)
	ld	(hl),#0xFF
	ld	hl,#(_alphabet + 0x0246)
	ld	(hl),#0xFF
	ld	hl,#(_alphabet + 0x0247)
	ld	(hl),#0xFF
	ld	hl,#(_alphabet + 0x0248)
	ld	(hl),#0xFF
	ld	hl,#(_alphabet + 0x0249)
	ld	(hl),#0xFF
	ld	hl,#(_alphabet + 0x024a)
	ld	(hl),#0xFF
	ld	hl,#(_alphabet + 0x024b)
	ld	(hl),#0xFF
	ld	hl,#(_alphabet + 0x024c)
	ld	(hl),#0xFF
	ld	hl,#(_alphabet + 0x024d)
	ld	(hl),#0xFF
	ld	hl,#(_alphabet + 0x024e)
	ld	(hl),#0xFF
	ld	hl,#(_alphabet + 0x024f)
	ld	(hl),#0xFF
	ld	hl,#(_alphabet + 0x0250)
	ld	(hl),#0xFF
	ld	hl,#(_alphabet + 0x0251)
	ld	(hl),#0xFF
	ld	hl,#(_alphabet + 0x0252)
	ld	(hl),#0xFF
	ld	hl,#(_alphabet + 0x0253)
	ld	(hl),#0xFF
	ld	hl,#(_alphabet + 0x0254)
	ld	(hl),#0x9F
	ld	hl,#(_alphabet + 0x0255)
	ld	(hl),#0x9F
	ld	hl,#(_alphabet + 0x0256)
	ld	(hl),#0x6D
	ld	hl,#(_alphabet + 0x0257)
	ld	(hl),#0x6D
	ld	hl,#(_alphabet + 0x0258)
	ld	(hl),#0xF3
	ld	hl,#(_alphabet + 0x0259)
	ld	(hl),#0xF3
	ld	hl,#(_alphabet + 0x025a)
	ld	(hl),#0xFF
	ld	hl,#(_alphabet + 0x025b)
	ld	(hl),#0xFF
	ld	hl,#(_alphabet + 0x025c)
	ld	(hl),#0xFF
	ld	hl,#(_alphabet + 0x025d)
	ld	(hl),#0xFF
	ld	hl,#(_alphabet + 0x025e)
	ld	(hl),#0xFF
	ld	hl,#(_alphabet + 0x025f)
	ld	(hl),#0xFF
	ld	hl,#(_alphabet + 0x0260)
	ld	(hl),#0xFF
	ld	hl,#(_alphabet + 0x0261)
	ld	(hl),#0xFF
	ld	hl,#(_alphabet + 0x0262)
	ld	(hl),#0xFF
	ld	hl,#(_alphabet + 0x0263)
	ld	(hl),#0xFF
	ld	hl,#(_alphabet + 0x0264)
	ld	(hl),#0xFF
	ld	hl,#(_alphabet + 0x0265)
	ld	(hl),#0xFF
	ld	hl,#(_alphabet + 0x0266)
	ld	(hl),#0xFF
	ld	hl,#(_alphabet + 0x0267)
	ld	(hl),#0xFF
	ld	hl,#(_alphabet + 0x0268)
	ld	(hl),#0xFF
	ld	hl,#(_alphabet + 0x0269)
	ld	(hl),#0xFF
	ld	hl,#(_alphabet + 0x026a)
	ld	(hl),#0xFF
	ld	hl,#(_alphabet + 0x026b)
	ld	(hl),#0xFF
	ld	hl,#(_alphabet + 0x026c)
	ld	(hl),#0x01
	ld	hl,#(_alphabet + 0x026d)
	ld	(hl),#0x01
	ld	hl,#(_alphabet + 0x026e)
	ld	(hl),#0xFF
	ld	hl,#(_alphabet + 0x026f)
	ld	(hl),#0xFF
	ld	hl,#(_alphabet + 0x0270)
	ld	(hl),#0xEF
	ld	hl,#(_alphabet + 0x0271)
	ld	(hl),#0xEF
	ld	hl,#(_alphabet + 0x0272)
	ld	(hl),#0xEF
	ld	hl,#(_alphabet + 0x0273)
	ld	(hl),#0xEF
	ld	hl,#(_alphabet + 0x0274)
	ld	(hl),#0xEF
	ld	hl,#(_alphabet + 0x0275)
	ld	(hl),#0xEF
	ld	hl,#(_alphabet + 0x0276)
	ld	(hl),#0xEF
	ld	hl,#(_alphabet + 0x0277)
	ld	(hl),#0xEF
	ld	hl,#(_alphabet + 0x0278)
	ld	(hl),#0xEF
	ld	hl,#(_alphabet + 0x0279)
	ld	(hl),#0xEF
	ld	hl,#(_alphabet + 0x027a)
	ld	(hl),#0xFF
	ld	hl,#(_alphabet + 0x027b)
	ld	(hl),#0xFF
	ld	hl,#(_alphabet + 0x027c)
	ld	(hl),#0xEF
	ld	hl,#(_alphabet + 0x027d)
	ld	(hl),#0xEF
	ld	hl,#(_alphabet + 0x027e)
	ld	(hl),#0xFF
	ld	hl,#(_alphabet + 0x027f)
	ld	(hl),#0xFF
	ld	hl,#(_alphabet + 0x0280)
	ld	(hl),#0xC3
	ld	hl,#(_alphabet + 0x0281)
	ld	(hl),#0xC3
	ld	hl,#(_alphabet + 0x0282)
	ld	(hl),#0xBD
	ld	hl,#(_alphabet + 0x0283)
	ld	(hl),#0xBD
	ld	hl,#(_alphabet + 0x0284)
	ld	(hl),#0xBD
	ld	hl,#(_alphabet + 0x0285)
	ld	(hl),#0xBD
	ld	hl,#(_alphabet + 0x0286)
	ld	(hl),#0xE3
	ld	hl,#(_alphabet + 0x0287)
	ld	(hl),#0xE3
	ld	hl,#(_alphabet + 0x0288)
	ld	(hl),#0xEF
	ld	hl,#(_alphabet + 0x0289)
	ld	(hl),#0xEF
	ld	hl,#(_alphabet + 0x028a)
	ld	(hl),#0xFF
	ld	hl,#(_alphabet + 0x028b)
	ld	(hl),#0xFF
	ld	hl,#(_alphabet + 0x028c)
	ld	(hl),#0xEF
	ld	hl,#(_alphabet + 0x028d)
	ld	(hl),#0xEF
	ld	hl,#(_alphabet + 0x028e)
	ld	(hl),#0xFF
	ld	hl,#(_alphabet + 0x028f)
	ld	(hl),#0xFF
	ld	hl,#(_alphabet + 0x0290)
	ld	(hl),#0xE7
	ld	hl,#(_alphabet + 0x0291)
	ld	(hl),#0xE7
	ld	hl,#(_alphabet + 0x0292)
	ld	(hl),#0xE7
	ld	hl,#(_alphabet + 0x0293)
	ld	(hl),#0xE7
	ld	hl,#(_alphabet + 0x0294)
	ld	(hl),#0xF7
	ld	hl,#(_alphabet + 0x0295)
	ld	(hl),#0xF7
	ld	hl,#(_alphabet + 0x0296)
	ld	(hl),#0xEF
	ld	hl,#(_alphabet + 0x0297)
	ld	(hl),#0xEF
	ld	hl,#(_alphabet + 0x0298)
	ld	(hl),#0xFF
	ld	hl,#(_alphabet + 0x0299)
	ld	(hl),#0xFF
	ld	hl,#(_alphabet + 0x029a)
	ld	(hl),#0xFF
	ld	hl,#(_alphabet + 0x029b)
	ld	(hl),#0xFF
	ld	hl,#(_alphabet + 0x029c)
	ld	(hl),#0xFF
	ld	hl,#(_alphabet + 0x029d)
	ld	(hl),#0xFF
	ld	hl,#(_alphabet + 0x029e)
	ld	(hl),#0xFF
	ld	hl,#(_alphabet + 0x029f)
	ld	(hl),#0xFF
	ld	hl,#(_alphabet + 0x02a0)
	ld	(hl),#0xFF
	ld	hl,#(_alphabet + 0x02a1)
	ld	(hl),#0xFF
	ld	hl,#(_alphabet + 0x02a2)
	ld	(hl),#0xFF
	ld	hl,#(_alphabet + 0x02a3)
	ld	(hl),#0xFF
	ld	hl,#(_alphabet + 0x02a4)
	ld	(hl),#0xFF
	ld	hl,#(_alphabet + 0x02a5)
	ld	(hl),#0xFF
	ld	hl,#(_alphabet + 0x02a6)
	ld	(hl),#0xFF
	ld	hl,#(_alphabet + 0x02a7)
	ld	(hl),#0xFF
	ld	hl,#(_alphabet + 0x02a8)
	ld	(hl),#0xFF
	ld	hl,#(_alphabet + 0x02a9)
	ld	(hl),#0xFF
	ld	hl,#(_alphabet + 0x02aa)
	ld	(hl),#0xE7
	ld	hl,#(_alphabet + 0x02ab)
	ld	(hl),#0xE7
	ld	hl,#(_alphabet + 0x02ac)
	ld	(hl),#0xE7
	ld	hl,#(_alphabet + 0x02ad)
	ld	(hl),#0xE7
	ld	hl,#(_alphabet + 0x02ae)
	ld	(hl),#0xFF
	ld	hl,#(_alphabet + 0x02af)
	ld	(hl),#0xFF
	ld	hl,#(_alphabet + 0x02b0)
	ld	(hl),#0xFF
	ld	hl,#(_alphabet + 0x02b1)
	ld	(hl),#0xFF
	ld	hl,#(_alphabet + 0x02b2)
	ld	(hl),#0xFF
	ld	hl,#(_alphabet + 0x02b3)
	ld	(hl),#0xFF
	ld	hl,#(_alphabet + 0x02b4)
	ld	(hl),#0xFF
	ld	hl,#(_alphabet + 0x02b5)
	ld	(hl),#0xFF
	ld	hl,#(_alphabet + 0x02b6)
	ld	(hl),#0xE7
	ld	hl,#(_alphabet + 0x02b7)
	ld	(hl),#0xE7
	ld	hl,#(_alphabet + 0x02b8)
	ld	(hl),#0xE7
	ld	hl,#(_alphabet + 0x02b9)
	ld	(hl),#0xE7
	ld	hl,#(_alphabet + 0x02ba)
	ld	(hl),#0xF7
	ld	hl,#(_alphabet + 0x02bb)
	ld	(hl),#0xF7
	ld	hl,#(_alphabet + 0x02bc)
	ld	(hl),#0xEF
	ld	hl,#(_alphabet + 0x02bd)
	ld	(hl),#0xEF
	ld	hl,#(_alphabet + 0x02be)
	ld	(hl),#0xFF
	ld	hl,#(_alphabet + 0x02bf)
	ld	(hl),#0xFF
	ld	hl,#(_alphabet + 0x02c0)
	ld	(hl),#0xFF
	ld	hl,#(_alphabet + 0x02c1)
	ld	(hl),#0xFF
	ld	hl,#(_alphabet + 0x02c2)
	ld	(hl),#0xFF
	ld	hl,#(_alphabet + 0x02c3)
	ld	(hl),#0xFF
	ld	hl,#(_alphabet + 0x02c4)
	ld	(hl),#0xFF
	ld	hl,#(_alphabet + 0x02c5)
	ld	(hl),#0xFF
	ld	hl,#(_alphabet + 0x02c6)
	ld	(hl),#0xFF
	ld	hl,#(_alphabet + 0x02c7)
	ld	(hl),#0xFF
	ld	hl,#(_alphabet + 0x02c8)
	ld	(hl),#0xFF
	ld	hl,#(_alphabet + 0x02c9)
	ld	(hl),#0xFF
	ld	hl,#(_alphabet + 0x02ca)
	ld	(hl),#0xFF
	ld	hl,#(_alphabet + 0x02cb)
	ld	(hl),#0xFF
	ld	hl,#(_alphabet + 0x02cc)
	ld	(hl),#0xAB
	ld	hl,#(_alphabet + 0x02cd)
	ld	(hl),#0xAB
	ld	hl,#(_alphabet + 0x02ce)
	ld	(hl),#0xFF
	ld	hl,#(_alphabet + 0x02cf)
	ld	(hl),#0xFF
	ld	hl,#(_alphabet + 0x02d0)
	ld	(hl),#0xFF
	ld	hl,#(_alphabet + 0x02d1)
	ld	(hl),#0xFF
	ld	hl,#(_alphabet + 0x02d2)
	ld	(hl),#0xFF
	ld	hl,#(_alphabet + 0x02d3)
	ld	(hl),#0xFF
	ld	hl,#(_alphabet + 0x02d4)
	ld	(hl),#0xFF
	ld	hl,#(_alphabet + 0x02d5)
	ld	(hl),#0xFF
	ld	hl,#(_alphabet + 0x02d6)
	ld	(hl),#0xEF
	ld	hl,#(_alphabet + 0x02d7)
	ld	(hl),#0xEF
	ld	hl,#(_alphabet + 0x02d8)
	ld	(hl),#0xFF
	ld	hl,#(_alphabet + 0x02d9)
	ld	(hl),#0xFF
	ld	hl,#(_alphabet + 0x02da)
	ld	(hl),#0xEF
	ld	hl,#(_alphabet + 0x02db)
	ld	(hl),#0xEF
	ld	hl,#(_alphabet + 0x02dc)
	ld	(hl),#0xFF
	ld	hl,#(_alphabet + 0x02dd)
	ld	(hl),#0xFF
	ld	hl,#(_alphabet + 0x02de)
	ld	(hl),#0xFF
	ld	hl,#(_alphabet + 0x02df)
	ld	(hl),#0xFF
;main.c:255: unsigned char arrow_tile[] =
	ld	hl,#_arrow_tile
	ld	(hl),#0xFF
	ld	hl,#(_arrow_tile + 0x0001)
	ld	(hl),#0xFF
	ld	hl,#(_arrow_tile + 0x0002)
	ld	(hl),#0xFF
	ld	hl,#(_arrow_tile + 0x0003)
	ld	(hl),#0xFF
	ld	hl,#(_arrow_tile + 0x0004)
	ld	(hl),#0xFF
	ld	hl,#(_arrow_tile + 0x0005)
	ld	(hl),#0xFF
	ld	hl,#(_arrow_tile + 0x0006)
	ld	(hl),#0xFF
	ld	hl,#(_arrow_tile + 0x0007)
	ld	(hl),#0x81
	ld	hl,#(_arrow_tile + 0x0008)
	ld	(hl),#0x81
	ld	hl,#(_arrow_tile + 0x0009)
	ld	(hl),#0x81
	ld	hl,#(_arrow_tile + 0x000a)
	ld	(hl),#0x81
	ld	hl,#(_arrow_tile + 0x000b)
	ld	(hl),#0x81
	ld	hl,#(_arrow_tile + 0x000c)
	ld	(hl),#0xC3
	ld	hl,#(_arrow_tile + 0x000d)
	ld	(hl),#0xC3
	ld	hl,#(_arrow_tile + 0x000e)
	ld	(hl),#0xE7
	ld	hl,#(_arrow_tile + 0x000f)
	ld	(hl),#0xE7
	ld	hl,#(_arrow_tile + 0x0010)
	ld	(hl),#0xFF
	ld	hl,#(_arrow_tile + 0x0011)
	ld	(hl),#0xFF
	ld	hl,#(_arrow_tile + 0x0012)
	ld	(hl),#0xFF
	ld	hl,#(_arrow_tile + 0x0013)
	ld	(hl),#0xFF
	ld	hl,#(_arrow_tile + 0x0014)
	ld	(hl),#0xFF
	ld	hl,#(_arrow_tile + 0x0015)
	ld	(hl),#0x81
	ld	hl,#(_arrow_tile + 0x0016)
	ld	(hl),#0x81
	ld	hl,#(_arrow_tile + 0x0017)
	ld	(hl),#0x81
	ld	hl,#(_arrow_tile + 0x0018)
	ld	(hl),#0x81
	ld	hl,#(_arrow_tile + 0x0019)
	ld	(hl),#0x81
	ld	hl,#(_arrow_tile + 0x001a)
	ld	(hl),#0xC3
	ld	hl,#(_arrow_tile + 0x001b)
	ld	(hl),#0xC3
	ld	hl,#(_arrow_tile + 0x001c)
	ld	(hl),#0xE7
	ld	hl,#(_arrow_tile + 0x001d)
	ld	(hl),#0xE7
	ld	hl,#(_arrow_tile + 0x001e)
	ld	(hl),#0xFF
	ld	hl,#(_arrow_tile + 0x001f)
	ld	(hl),#0xFF
;main.c:283: unsigned char text_map[] =
	ld	hl,#_text_map
	ld	(hl),#0x16
	ld	hl,#(_text_map + 0x0001)
	ld	(hl),#0x17
	ld	hl,#(_text_map + 0x0002)
	ld	(hl),#0x29
	ld	hl,#(_text_map + 0x0003)
	ld	(hl),#0x04
	ld	hl,#(_text_map + 0x0004)
	ld	(hl),#0x04
	ld	hl,#(_text_map + 0x0005)
	ld	(hl),#0x04
	ld	hl,#(_text_map + 0x0006)
	ld	(hl),#0x04
	ld	hl,#(_text_map + 0x0007)
	ld	(hl),#0x04
	ld	hl,#(_text_map + 0x0008)
	ld	(hl),#0x04
	ld	hl,#(_text_map + 0x0009)
	ld	(hl),#0x04
	ld	hl,#(_text_map + 0x000a)
	ld	(hl),#0x04
	ld	hl,#(_text_map + 0x000b)
	ld	(hl),#0x04
	ld	hl,#(_text_map + 0x000c)
	ld	(hl),#0x04
	ld	hl,#(_text_map + 0x000d)
	ld	(hl),#0x04
	ld	hl,#(_text_map + 0x000e)
	ld	(hl),#0x04
	ld	hl,#(_text_map + 0x000f)
	ld	(hl),#0x04
	ld	hl,#(_text_map + 0x0010)
	ld	(hl),#0x04
	ld	hl,#(_text_map + 0x0011)
	ld	(hl),#0x04
	ld	hl,#(_text_map + 0x0012)
	ld	(hl),#0x04
	ld	hl,#(_text_map + 0x0013)
	ld	(hl),#0x04
	ld	hl,#(_text_map + 0x0014)
	ld	(hl),#0x04
	ld	hl,#(_text_map + 0x0015)
	ld	(hl),#0x04
	ld	hl,#(_text_map + 0x0016)
	ld	(hl),#0x04
	ld	hl,#(_text_map + 0x0017)
	ld	(hl),#0x04
	ld	hl,#(_text_map + 0x0018)
	ld	(hl),#0x04
	ld	hl,#(_text_map + 0x0019)
	ld	(hl),#0x04
	ld	hl,#(_text_map + 0x001a)
	ld	(hl),#0x04
	ld	hl,#(_text_map + 0x001b)
	ld	(hl),#0x04
	ld	hl,#(_text_map + 0x001c)
	ld	(hl),#0x04
	ld	hl,#(_text_map + 0x001d)
	ld	(hl),#0x04
	ld	hl,#(_text_map + 0x001e)
	ld	(hl),#0x04
	ld	hl,#(_text_map + 0x001f)
	ld	(hl),#0x04
;main.c:302: UINT8 input_seq_ctr = 0;
	ld	hl,#_input_seq_ctr
	ld	(hl),#0x00
;main.c:306: UINT8 flag_a[] =
	ld	hl,#_flag_a
	ld	(hl),#0x12
	ld	hl,#(_flag_a + 0x0001)
	ld	(hl),#0x64
	ld	hl,#(_flag_a + 0x0002)
	ld	(hl),#0x88
	ld	hl,#(_flag_a + 0x0003)
	ld	(hl),#0xF7
	ld	hl,#(_flag_a + 0x0004)
	ld	(hl),#0x77
	ld	hl,#(_flag_a + 0x0005)
	ld	(hl),#0x95
	ld	hl,#(_flag_a + 0x0006)
	ld	(hl),#0x8A
	ld	hl,#(_flag_a + 0x0007)
	ld	(hl),#0x5A
;main.c:310: UINT8 flag_b[] =
	ld	hl,#_flag_b
	ld	(hl),#0xE1
	ld	hl,#(_flag_b + 0x0001)
	ld	(hl),#0xD5
	ld	hl,#(_flag_b + 0x0002)
	ld	(hl),#0xFA
	ld	hl,#(_flag_b + 0x0003)
	ld	(hl),#0x93
	ld	hl,#(_flag_b + 0x0004)
	ld	(hl),#0x3E
	ld	hl,#(_flag_b + 0x0005)
	ld	(hl),#0x13
	ld	hl,#(_flag_b + 0x0006)
	ld	(hl),#0x30
	ld	hl,#(_flag_b + 0x0007)
	ld	(hl),#0x5F
;--------------------------------------------------------
; Home
;--------------------------------------------------------
	.area _HOME
	.area _HOME
;--------------------------------------------------------
; code
;--------------------------------------------------------
	.area _CODE
;main.c:328: UINT8 divide_UINT8(UINT8 a, UINT8 b)
;	---------------------------------
; Function divide_UINT8
; ---------------------------------
_divide_UINT8::
;main.c:332: while (a >= b) {
	ld	b,#0x00
00101$:
	ldhl	sp,#2
	ld	a,(hl+)
	sub	a, (hl)
	jr	C,00103$
;main.c:333: a -= b;
	dec	hl
	ld	a,(hl+)
	sub	a, (hl)
	dec	hl
	ld	(hl),a
;main.c:334: result++;
	inc	b
	jr	00101$
00103$:
;main.c:336: return result;
	ld	e,b
	ret
_agent:
	.db #0x00	; 0
	.db #0x07	; 7
	.db #0x00	; 0
	.db #0x0F	; 15
	.db #0x00	; 0
	.db #0x0F	; 15
	.db #0x00	; 0
	.db #0x7F	; 127
	.db #0x00	; 0
	.db #0x6F	; 111	'o'
	.db #0x01	; 1
	.db #0x6E	; 110	'n'
	.db #0x01	; 1
	.db #0xEE	; 238
	.db #0x00	; 0
	.db #0x0F	; 15
	.db #0x00	; 0
	.db #0x03	; 3
	.db #0x01	; 1
	.db #0x00	; 0
	.db #0x00	; 0
	.db #0x01	; 1
	.db #0x00	; 0
	.db #0x07	; 7
	.db #0x00	; 0
	.db #0x0F	; 15
	.db #0x01	; 1
	.db #0x0E	; 14
	.db #0x00	; 0
	.db #0x1F	; 31
	.db #0x01	; 1
	.db #0x1E	; 30
	.db #0x00	; 0
	.db #0xF8	; 248
	.db #0x00	; 0
	.db #0xFC	; 252
	.db #0x00	; 0
	.db #0xFC	; 252
	.db #0x3C	; 60
	.db #0xC0	; 192
	.db #0x3C	; 60
	.db #0xC8	; 200
	.db #0xBC	; 188
	.db #0x50	; 80	'P'
	.db #0xBC	; 188
	.db #0x50	; 80	'P'
	.db #0x6C	; 108	'l'
	.db #0x90	; 144
	.db #0x38	; 56	'8'
	.db #0xC0	; 192
	.db #0xF0	; 240
	.db #0x00	; 0
	.db #0x00	; 0
	.db #0xC0	; 192
	.db #0x00	; 0
	.db #0xF0	; 240
	.db #0x00	; 0
	.db #0xF8	; 248
	.db #0x00	; 0
	.db #0xF8	; 248
	.db #0x00	; 0
	.db #0xF8	; 248
	.db #0x00	; 0
	.db #0xF8	; 248
	.db #0x00	; 0
	.db #0x1F	; 31
	.db #0x1D	; 29
	.db #0x02	; 2
	.db #0x1C	; 28
	.db #0x03	; 3
	.db #0x1C	; 28
	.db #0x03	; 3
	.db #0x1C	; 28
	.db #0x03	; 3
	.db #0x1E	; 30
	.db #0x01	; 1
	.db #0x1E	; 30
	.db #0x01	; 1
	.db #0x1E	; 30
	.db #0x01	; 1
	.db #0x00	; 0
	.db #0x0F	; 15
	.db #0x00	; 0
	.db #0x0F	; 15
	.db #0x0F	; 15
	.db #0x00	; 0
	.db #0x00	; 0
	.db #0x1E	; 30
	.db #0x00	; 0
	.db #0x1E	; 30
	.db #0x00	; 0
	.db #0x3E	; 62
	.db #0x00	; 0
	.db #0x3E	; 62
	.db #0x00	; 0
	.db #0x3F	; 63
	.db #0x00	; 0
	.db #0xF8	; 248
	.db #0x00	; 0
	.db #0xF8	; 248
	.db #0x00	; 0
	.db #0xFC	; 252
	.db #0x00	; 0
	.db #0xFC	; 252
	.db #0x02	; 2
	.db #0xFC	; 252
	.db #0x02	; 2
	.db #0xFC	; 252
	.db #0x02	; 2
	.db #0xFC	; 252
	.db #0x02	; 2
	.db #0xFC	; 252
	.db #0x00	; 0
	.db #0x3C	; 60
	.db #0x00	; 0
	.db #0x3C	; 60
	.db #0x3C	; 60
	.db #0x00	; 0
	.db #0x00	; 0
	.db #0x3C	; 60
	.db #0x00	; 0
	.db #0x3C	; 60
	.db #0x00	; 0
	.db #0x3C	; 60
	.db #0x00	; 0
	.db #0x3E	; 62
	.db #0x00	; 0
	.db #0x3F	; 63
_button:
	.db #0xFF	; 255
	.db #0xFF	; 255
	.db #0xDF	; 223
	.db #0xEF	; 239
	.db #0xDF	; 223
	.db #0xE7	; 231
	.db #0xDF	; 223
	.db #0xE3	; 227
	.db #0xDF	; 223
	.db #0xE7	; 231
	.db #0xDF	; 223
	.db #0xEF	; 239
	.db #0xFF	; 255
	.db #0xFF	; 255
	.db #0xFF	; 255
	.db #0xFF	; 255
	.db #0xFF	; 255
	.db #0xFF	; 255
	.db #0xF7	; 247
	.db #0xEF	; 239
	.db #0xF7	; 247
	.db #0xCF	; 207
	.db #0xF7	; 247
	.db #0x8F	; 143
	.db #0xF7	; 247
	.db #0xCF	; 207
	.db #0xF7	; 247
	.db #0xEF	; 239
	.db #0xFF	; 255
	.db #0xFF	; 255
	.db #0xFF	; 255
	.db #0xFF	; 255
	.db #0xFF	; 255
	.db #0xFF	; 255
	.db #0xFF	; 255
	.db #0xEF	; 239
	.db #0xFF	; 255
	.db #0xC7	; 199
	.db #0xFF	; 255
	.db #0x83	; 131
	.db #0x83	; 131
	.db #0xFF	; 255
	.db #0xFF	; 255
	.db #0xFF	; 255
	.db #0xFF	; 255
	.db #0xFF	; 255
	.db #0xFF	; 255
	.db #0xFF	; 255
	.db #0xFF	; 255
	.db #0xFF	; 255
	.db #0xFF	; 255
	.db #0xFF	; 255
	.db #0x83	; 131
	.db #0xFF	; 255
	.db #0xFF	; 255
	.db #0x83	; 131
	.db #0xFF	; 255
	.db #0xC7	; 199
	.db #0xFF	; 255
	.db #0xEF	; 239
	.db #0xFF	; 255
	.db #0xFF	; 255
	.db #0xFF	; 255
	.db #0xFF	; 255
	.db #0xFF	; 255
	.db #0xFF	; 255
	.db #0xFF	; 255
	.db #0xC7	; 199
	.db #0xEF	; 239
	.db #0x93	; 147
	.db #0xC7	; 199
	.db #0xBB	; 187
	.db #0xD7	; 215
	.db #0xAB	; 171
	.db #0xFF	; 255
	.db #0xC7	; 199
	.db #0xFF	; 255
	.db #0xFF	; 255
	.db #0xFF	; 255
	.db #0xFF	; 255
	.db #0xFF	; 255
	.db #0xFF	; 255
	.db #0xFF	; 255
	.db #0xC7	; 199
	.db #0xCF	; 207
	.db #0xB3	; 179
	.db #0xC7	; 199
	.db #0xBB	; 187
	.db #0xC7	; 199
	.db #0xBB	; 187
	.db #0xFF	; 255
	.db #0xC7	; 199
	.db #0xFF	; 255
	.db #0xFF	; 255
	.db #0xFF	; 255
	.db #0xFF	; 255
_solution_seq:
	.db #0x08	; 8
	.db #0x02	; 2
	.db #0x10	; 16
	.db #0x04	; 4
	.db #0x20	; 32
	.db #0x10	; 16
	.db #0x04	; 4
	.db #0x08	; 8
	.db #0x08	; 8
	.db #0x10	; 16
	.db #0x04	; 4
	.db #0x01	; 1
	.db #0x02	; 2
	.db #0x01	; 1
	.db #0x20	; 32
	.db #0x08	; 8
;main.c:347: void set_text_map(char *text, UINT8 len)
;	---------------------------------
; Function set_text_map
; ---------------------------------
_set_text_map::
	add	sp, #-5
;main.c:356: memset(text_map, EMPTY_TILE_ADDR, text_map_width*text_map_height);
	ld	de,#_text_map
	ld	hl,#0x0020
	push	hl
	ld	l, #0x24
	push	hl
	push	de
	call	_memset
	add	sp, #6
;main.c:359: if (!text || len > 0x20U || len <= 0x0U) {
	ldhl	sp,#8
	ld	a,(hl-)
	or	a,(hl)
	jp	Z,00141$
	inc	hl
	inc	hl
	ld	b,(hl)
	ld	c,#0x00
	ld	a,#0x20
	cp	a, b
	ld	a,#0x00
	sbc	a, c
	jp	C,00141$
	ld	a,(hl)
	or	a, a
;main.c:360: return;
;main.c:366: for (i = 0; i < len; ++i) {
	jp	Z,00141$
	ldhl	sp,#0
	ld	(hl),#0x00
00139$:
	ldhl	sp,#0
	ld	a,(hl)
	ldhl	sp,#9
	sub	a, (hl)
	jp	NC,00137$
;main.c:368: if (text[i] >= 'A' && text[i] <= 'Z') {
	dec	hl
	dec	hl
	ld	e,(hl)
	inc	hl
	ld	d,(hl)
	ldhl	sp,#0
	ld	l,(hl)
	ld	h,#0x00
	add	hl,de
	ld	a,l
	ld	d,h
	ldhl	sp,#3
	ld	(hl+),a
	ld	(hl),d
	dec	hl
	ld	e,(hl)
	inc	hl
	ld	d,(hl)
	ld	a,(de)
	ld	b,a
;main.c:369: text_map[i] = text[i] - 'A' + 0xAU; // eg. character A - ascii value of A + index of A in VRAM
	ld	de,#_text_map
	ldhl	sp,#0
	ld	l,(hl)
	ld	h,#0x00
	add	hl,de
	ld	a,l
	ld	d,h
	ldhl	sp,#1
	ld	(hl+),a
	ld	(hl),d
;main.c:368: if (text[i] >= 'A' && text[i] <= 'Z') {
	ld	a,#0x41
	ld	e,a
	ld	a,b
	ld	d,a
	ld	a,b
	xor	a, #0x80
	sub	a, #0xC1
	jr	C,00106$
	ld	a,b
	ld	e,a
	ld	a,#0x5A
	ld	d,a
	ld	a,#0x5A
	sub	a, b
	bit	7, e
	jr	Z,00212$
	bit	7, d
	jr	NZ,00213$
	cp	a, a
	jr	00213$
00212$:
	bit	7, d
	jr	Z,00213$
	scf
00213$:
	jr	C,00106$
;main.c:369: text_map[i] = text[i] - 'A' + 0xAU; // eg. character A - ascii value of A + index of A in VRAM
	ld	a,b
	add	a, #0xC9
	ld	b,a
	ldhl	sp,#1
	ld	a,(hl+)
	ld	h,(hl)
	ld	l,a
	ld	(hl),b
00106$:
;main.c:373: if (text[i] >= '0' && text[i] <= '9') {
	ldhl	sp,#4
	dec	hl
	ld	e,(hl)
	inc	hl
	ld	d,(hl)
	ld	a,(de)
	ld	b,a
	ld	a,#0x30
	ld	e,a
	ld	a,b
	ld	d,a
	ld	a,b
	xor	a, #0x80
	sub	a, #0xB0
	jr	C,00109$
	ld	a,b
	ld	e,a
	ld	a,#0x39
	ld	d,a
	ld	a,#0x39
	sub	a, b
	bit	7, e
	jr	Z,00214$
	bit	7, d
	jr	NZ,00215$
	cp	a, a
	jr	00215$
00214$:
	bit	7, d
	jr	Z,00215$
	scf
00215$:
	jr	C,00109$
;main.c:374: text_map[i] = text[i] - '0';
	ld	a,b
	add	a,#0xD0
	ld	b,a
	ldhl	sp,#1
	ld	a,(hl+)
	ld	h,(hl)
	ld	l,a
	ld	(hl),b
00109$:
;main.c:378: if (text[i] == '~') {
	ldhl	sp,#4
	dec	hl
	ld	e,(hl)
	inc	hl
	ld	d,(hl)
	ld	a,(de)
	ld	b,a
	sub	a, #0x7E
	jr	NZ,00135$
;main.c:379: text_map[i] = 0x25U;
	ldhl	sp,#1
	ld	a,(hl+)
	ld	h,(hl)
	ld	l,a
	ld	(hl),#0x25
	jp	00140$
00135$:
;main.c:380: } else if (text[i] == '_') {
	ld	a,b
	sub	a, #0x5F
	jr	NZ,00132$
;main.c:381: text_map[i] = 0x26U;
	ldhl	sp,#1
	ld	a,(hl+)
	ld	h,(hl)
	ld	l,a
	ld	(hl),#0x26
	jp	00140$
00132$:
;main.c:382: } else if (text[i] == '!') {
	ld	a,b
	sub	a, #0x21
	jr	NZ,00129$
;main.c:383: text_map[i] = 0x27U;
	ldhl	sp,#1
	ld	a,(hl+)
	ld	h,(hl)
	ld	l,a
	ld	(hl),#0x27
	jp	00140$
00129$:
;main.c:384: } else if (text[i] == '?') {
	ld	a,b
	sub	a, #0x3F
	jr	NZ,00126$
;main.c:385: text_map[i] = 0x28U;
	ldhl	sp,#1
	ld	a,(hl+)
	ld	h,(hl)
	ld	l,a
	ld	(hl),#0x28
	jp	00140$
00126$:
;main.c:386: } else if (text[i] == '\'') {
	ld	a,b
	sub	a, #0x27
	jr	NZ,00123$
;main.c:387: text_map[i] = 0x29U;
	ldhl	sp,#1
	ld	a,(hl+)
	ld	h,(hl)
	ld	l,a
	ld	(hl),#0x29
	jp	00140$
00123$:
;main.c:388: } else if (text[i] == '.') {
	ld	a,b
	sub	a, #0x2E
	jr	NZ,00120$
;main.c:389: text_map[i] = 0x2AU;
	ldhl	sp,#1
	ld	a,(hl+)
	ld	h,(hl)
	ld	l,a
	ld	(hl),#0x2A
	jr	00140$
00120$:
;main.c:390: } else if (text[i] == ',') {
	ld	a,b
	sub	a, #0x2C
	jr	NZ,00117$
;main.c:391: text_map[i] = 0x2BU;
	ldhl	sp,#1
	ld	a,(hl+)
	ld	h,(hl)
	ld	l,a
	ld	(hl),#0x2B
	jr	00140$
00117$:
;main.c:392: } else if (text[i] == '') {
	ld	a,b
	sub	a, #0xE2
	jr	NZ,00114$
;main.c:393: text_map[i] = 0x2CU;
	ldhl	sp,#1
	ld	a,(hl+)
	ld	h,(hl)
	ld	l,a
	ld	(hl),#0x2C
	jr	00140$
00114$:
;main.c:394: } else if (text[i] == ':') {
	ld	a,b
	sub	a, #0x3A
	jr	NZ,00140$
;main.c:395: text_map[i] = 0x2DU;
	ldhl	sp,#1
	ld	a,(hl+)
	ld	h,(hl)
	ld	l,a
	ld	(hl),#0x2D
00140$:
;main.c:366: for (i = 0; i < len; ++i) {
	ldhl	sp,#0
	inc	(hl)
	jp	00139$
00137$:
;main.c:400: text_map[len] = arrow_address_1;
	ld	de,#_text_map
	ldhl	sp,#9
	ld	l,(hl)
	ld	h,#0x00
	add	hl,de
	ld	c,l
	ld	b,h
	ld	a,#0x2E
	ld	(bc),a
00141$:
	add	sp, #5
	ret
;main.c:405: void clear_window(void)
;	---------------------------------
; Function clear_window
; ---------------------------------
_clear_window::
;main.c:408: memset(text_map, EMPTY_TILE_ADDR, text_map_width * text_map_height);
	ld	de,#_text_map
	ld	hl,#0x0020
	push	hl
	ld	l, #0x24
	push	hl
	push	de
	call	_memset
	add	sp, #6
;main.c:409: set_win_tiles(0x2U, 0x2U, text_map_width, text_map_height, text_map);
	ld	de,#_text_map
	push	de
	ld	hl,#0x0210
	push	hl
	ld	l, #0x02
	push	hl
	call	_set_win_tiles
	add	sp, #6
	ret
;main.c:412: void show_text(char *text)
;	---------------------------------
; Function show_text
; ---------------------------------
_show_text::
	add	sp, #-3
;main.c:415: UINT8 cursor_state = 0;
	ldhl	sp,#2
	ld	(hl),#0x00
;main.c:416: UINT8 text_len = strlen(text);
	ldhl	sp,#5
	ld	a,(hl+)
	ld	h,(hl)
	ld	l,a
	push	hl
	call	_strlen
	add	sp, #2
	ld	b,e
;main.c:417: UINT8 cursor_index = text_len;
	ld	c,b
;main.c:419: clear_window();
	push	bc
	call	_clear_window
	pop	bc
;main.c:420: set_text_map(text, text_len);
	push	bc
	push	bc
	inc	sp
	ldhl	sp,#8
	ld	a,(hl+)
	ld	h,(hl)
	ld	l,a
	push	hl
	call	_set_text_map
	add	sp, #3
	pop	bc
;main.c:423: text_len++;
	inc	b
;main.c:424: scroll_text(text_len);
	push	bc
	push	bc
	inc	sp
	call	_scroll_text
	inc	sp
	pop	bc
;main.c:428: x = 2 + (cursor_index % 16);
	ld	a,c
	and	a, #0x0F
	add	a, #0x02
	ldhl	sp,#0
	ld	(hl),a
;main.c:430: y = 2 + divide_UINT8(cursor_index, 16);
	push	bc
	ld	a,#0x10
	push	af
	inc	sp
	ld	a,c
	push	af
	inc	sp
	call	_divide_UINT8
	add	sp, #2
	ld	a,e
	pop	bc
	add	a, #0x02
	ldhl	sp,#1
	ld	(hl),a
;main.c:432: while (!joypad()) {
	ld	a,#<(_text_map)
	add	a, c
	ld	c,a
	ld	a,#>(_text_map)
	adc	a, #0x00
	ld	b,a
00104$:
	push	bc
	call	_joypad
	ld	a,e
	pop	bc
	or	a, a
	jp	NZ,00107$
;main.c:433: if (cursor_state == 0) {
	ldhl	sp,#2
	ld	a,(hl)
	or	a, a
	jr	NZ,00102$
;main.c:434: text_map[cursor_index] = arrow_address_2;
	ld	a,#0x2F
	ld	(bc),a
	jr	00103$
00102$:
;main.c:436: text_map[cursor_index] = arrow_address_1;
	ld	a,#0x2E
	ld	(bc),a
00103$:
;main.c:439: set_win_tiles(x, y, 1, 1, &text_map[cursor_index]);
	ld	e, c
	ld	d, b
	push	bc
	push	de
	ld	hl,#0x0101
	push	hl
	ldhl	sp,#7
	ld	a,(hl)
	push	af
	inc	sp
	dec	hl
	ld	a,(hl)
	push	af
	inc	sp
	call	_set_win_tiles
	add	sp, #6
	pop	bc
;main.c:440: cursor_state = !cursor_state;
	ldhl	sp,#2
	ld	a,(hl)
	sub	a,#0x01
	ld	a,#0x00
	rla
	ld	(hl),a
;main.c:441: delay(50);
	push	bc
	ld	hl,#0x0032
	push	hl
	call	_delay
	add	sp, #2
	pop	bc
;main.c:442: sleep(4);
	push	bc
	ld	a,#0x04
	push	af
	inc	sp
	call	_sleep
	inc	sp
	pop	bc
	jp	00104$
00107$:
	add	sp, #3
	ret
;main.c:451: void scroll_text(UINT8 len)
;	---------------------------------
; Function scroll_text
; ---------------------------------
_scroll_text::
	add	sp, #-3
;main.c:454: for (counter = 0; counter < len; ++counter) {
	ld	b,#0x00
00103$:
	ld	a,b
	ldhl	sp,#5
	sub	a, (hl)
	jp	NC,00105$
;main.c:455: x = 2 + (counter % 16);
	ld	a,b
	and	a, #0x0F
	add	a, #0x02
	ldhl	sp,#0
	ld	(hl),a
;main.c:456: y = 2 + divide_UINT8(counter, 16);
	push	bc
	ld	a,#0x10
	push	af
	inc	sp
	push	bc
	inc	sp
	call	_divide_UINT8
	add	sp, #2
	pop	bc
	ld	c,e
	inc	c
	inc	c
;main.c:460: set_win_tiles(x, y, 1, 1, &text_map[counter]);
	ld	de,#_text_map
	ld	l,b
	ld	h,#0x00
	add	hl,de
	ld	a,l
	ld	d,h
	ldhl	sp,#1
	ld	(hl+),a
	ld	(hl),d
	dec	hl
	ld	e,(hl)
	inc	hl
	ld	d,(hl)
	push	bc
	push	de
	ld	hl,#0x0101
	push	hl
	ld	a,c
	push	af
	inc	sp
	ldhl	sp,#7
	ld	a,(hl)
	push	af
	inc	sp
	call	_set_win_tiles
	add	sp, #6
	pop	bc
;main.c:461: sleep(4);
	push	bc
	ld	a,#0x04
	push	af
	inc	sp
	call	_sleep
	inc	sp
	pop	bc
;main.c:454: for (counter = 0; counter < len; ++counter) {
	inc	b
	jp	00103$
00105$:
	add	sp, #3
	ret
;main.c:465: void sleep(UINT8 cycles)
;	---------------------------------
; Function sleep
; ---------------------------------
_sleep::
;main.c:468: for(counter = 0; counter < cycles; ++counter){
	ld	b,#0x00
00103$:
	ld	a,b
	ldhl	sp,#2
	sub	a, (hl)
	ret	NC
;main.c:469: wait_vbl_done();
	push	bc
	call	_wait_vbl_done
	pop	bc
;main.c:468: for(counter = 0; counter < cycles; ++counter){
	inc	b
	jr	00103$
	ret
;main.c:473: void process_button_press(void)
;	---------------------------------
; Function process_button_press
; ---------------------------------
_process_button_press::
	add	sp, #-2
;main.c:475: UINT8 input = joypad();
	call	_joypad
	ld	b,e
;main.c:476: if (input) {
	ld	a,b
	or	a, a
	jp	Z,00105$
;main.c:477: if (number_of_bits_set(input) > 1) {
	push	bc
	push	bc
	inc	sp
	call	_number_of_bits_set
	inc	sp
	ld	c,e
	pop	af
	ld	b,a
	ld	a,#0x01
	sub	a, c
	jr	NC,00102$
;main.c:478: input = return_lsb_set(input);
	push	bc
	inc	sp
	call	_return_lsb_set
	inc	sp
	ld	b,e
00102$:
;main.c:481: input_seq[input_seq_ctr] = input;
	ld	de,#_input_seq
	ld	hl,#_input_seq_ctr
	ld	l,(hl)
	ld	h,#0x00
	add	hl,de
	inc	sp
	inc	sp
	push	hl
	pop	hl
	push	hl
	ld	(hl),b
;main.c:482: input_seq_ctr++;
	ld	hl,#_input_seq_ctr
	inc	(hl)
;main.c:483: display_button_press();
	call	_display_button_press
;main.c:487: delay(50);
	ld	hl,#0x0032
	push	hl
	call	_delay
	add	sp, #2
00105$:
	add	sp, #2
	ret
;main.c:492: UINT8 number_of_bits_set(UINT8 x)
;	---------------------------------
; Function number_of_bits_set
; ---------------------------------
_number_of_bits_set::
;main.c:496: UINT8 mask = 0x1U;
	ld	b,#0x01
;main.c:498: if (x == 0x0U) {
	ldhl	sp,#2
	ld	a,(hl)
;main.c:499: return result;
	or	a,a
	jr	NZ,00102$
	ld	e,a
	ret
00102$:
;main.c:502: for (i = 0x0U; i < 0x8U; ++i) {
	ld	d,#0x08
	ld	c,#0x00
00108$:
;main.c:503: if (mask & x) {
	ld	a,b
	ldhl	sp,#2
	and	a,(hl)
	jr	Z,00104$
;main.c:504: result++;
	inc	c
00104$:
;main.c:506: mask = mask << 0x1;
	sla	b
	ld	a,d
	add	a,#0xFF
	ld	d,a
;main.c:502: for (i = 0x0U; i < 0x8U; ++i) {
	or	a, a
	jr	NZ,00108$
;main.c:509: return result;
	ld	e,c
	ret
;main.c:515: UINT8 return_lsb_set(UINT8 x)
;	---------------------------------
; Function return_lsb_set
; ---------------------------------
_return_lsb_set::
;main.c:517: UINT8 mask = 0x1U;
	ld	e,#0x01
;main.c:519: if (x == 0x0U) {
	ldhl	sp,#2
	ld	a,(hl)
;main.c:520: return 0x0U;
	or	a,a
	jr	NZ,00103$
	ld	e,a
	ret
;main.c:523: while (!(mask & x)) {
00103$:
	ld	a,e
	ldhl	sp,#2
	and	a,(hl)
	jr	NZ,00105$
;main.c:524: mask = mask << 0x1;
	sla	e
	jr	00103$
00105$:
;main.c:527: return mask;
	ret
;main.c:532: UINT8 log2(UINT8 x)
;	---------------------------------
; Function log2
; ---------------------------------
_log2::
;main.c:535: UINT8 mask = 0x1U;
	ld	d,#0x01
;main.c:537: while (mask != x) {
	ld	e,#0x00
00101$:
	ldhl	sp,#2
	ld	a,(hl)
	sub	a, d
	ret	Z
;main.c:538: result++;
	inc	e
;main.c:539: mask = mask << 0x1;
	sla	d
	jr	00101$
;main.c:542: return result;
	ret
;main.c:547: void display_button_press(void)
;	---------------------------------
; Function display_button_press
; ---------------------------------
_display_button_press::
	add	sp, #-2
;main.c:554: input_index = input_seq_ctr - 1;
	ld	hl,#_input_seq_ctr
	ld	a,(hl)
	add	a,#0xFF
	ldhl	sp,#0
	ld	(hl),a
;main.c:555: button_pressed = input_seq[input_index];
	ld	de,#_input_seq
	ld	l,(hl)
	ld	h,#0x00
	add	hl,de
	ld	c,l
	ld	b,h
	ld	a,(bc)
;main.c:556: button_address = button_address_start + log2(button_pressed);
	push	af
	inc	sp
	call	_log2
	inc	sp
	ld	a,e
	add	a, #0x30
	ldhl	sp,#1
	ld	(hl),a
;main.c:557: text_map[input_index] = button_address;
	ld	de,#_text_map
	dec	hl
	ld	l,(hl)
	ld	h,#0x00
	add	hl,de
	ld	c,l
	ld	b,h
	ldhl	sp,#1
	ld	a,(hl)
	ld	(bc),a
;main.c:558: x = 2 + (input_index % 16);
	dec	hl
	ld	a,(hl)
	and	a, #0x0F
	ld	d,a
	inc	d
	inc	d
;main.c:559: set_win_tiles(x, 0x2U, 0x1U, 0x1U, &text_map[input_index]);
	push	bc
	ld	hl,#0x0101
	push	hl
	ld	a,#0x02
	push	af
	inc	sp
	push	de
	inc	sp
	call	_set_win_tiles
	add	sp, #6
	add	sp, #2
	ret
;main.c:562: void check_sequence(void)
;	---------------------------------
; Function check_sequence
; ---------------------------------
_check_sequence::
	add	sp, #-3
;main.c:567: for (i = 0; i < SEQ_LEN; ++i) {
	ldhl	sp,#1
	ld	(hl),#0x00
	dec	hl
	ld	(hl),#0x00
00107$:
;main.c:569: key_b[0] = 0x72ae38ba;
	ld	hl,#_key_b
	ld	(hl),#0xBA
	inc	hl
	ld	(hl),#0x38
	inc	hl
	ld	(hl),#0xAE
	inc	hl
	ld	(hl),#0x72
;main.c:571: if (input_seq[i] & solution_seq[i]) {
	ld	de,#_input_seq
	ldhl	sp,#0
	ld	l,(hl)
	ld	h,#0x00
	add	hl,de
	ld	c,l
	ld	b,h
	ld	a,(bc)
	ldhl	sp,#2
	ld	(hl),a
	ld	de,#_solution_seq
	dec	hl
	dec	hl
	ld	l,(hl)
	ld	h,#0x00
	add	hl,de
	ld	c,l
	ld	b,h
	ld	a,(bc)
	ldhl	sp,#2
	and	a,(hl)
	jr	Z,00108$
;main.c:572: pass++;
	dec	hl
	inc	(hl)
;main.c:575: key_b[1] = 0xa106f553;
	ld	hl,#(_key_b + 0x0004)
	ld	(hl),#0x53
	inc	hl
	ld	(hl),#0xF5
	inc	hl
	ld	(hl),#0x06
	inc	hl
	ld	(hl),#0xA1
00108$:
;main.c:567: for (i = 0; i < SEQ_LEN; ++i) {
	ldhl	sp,#0
	inc	(hl)
	ld	b,(hl)
	ld	c,#0x00
	ld	a,b
	sub	a, #0x10
	ld	a,c
	sbc	a, #0x00
	jp	C,00107$
;main.c:579: if (pass == SEQ_LEN) {
	inc	hl
	ld	e,(hl)
	ld	d,#0x00
	ld	a,e
	sub	a, #0x10
	jr	NZ,00105$
	ld	a,d
	or	a, a
	jr	NZ,00105$
;main.c:581: key_b[2] = 0x1ea97c53;
	ld	hl,#(_key_b + 0x0008)
	ld	(hl),#0x53
	inc	hl
	ld	(hl),#0x7C
	inc	hl
	ld	(hl),#0xA9
	inc	hl
	ld	(hl),#0x1E
;main.c:583: pass_level_1();
	call	_pass_level_1
	jr	00109$
00105$:
;main.c:585: fail_level_1();
	call	_fail_level_1
00109$:
	add	sp, #3
	ret
;main.c:589: void pass_level_1(void)
;	---------------------------------
; Function pass_level_1
; ---------------------------------
_pass_level_1::
	add	sp, #-33
;main.c:594: key_b[3] = 0xcfa8e0b3;
	ld	hl,#(_key_b + 0x000c)
	ld	(hl),#0xB3
	inc	hl
	ld	(hl),#0xE0
	inc	hl
	ld	(hl),#0xA8
	inc	hl
	ld	(hl),#0xCF
;main.c:597: decrypt((UINT32 *)flag_a, key_a);
	ld	de,#_flag_a
	ld	hl,#_key_a
	push	hl
	push	de
	call	_decrypt
	add	sp, #4
;main.c:598: decrypt((UINT32 *)flag_b, key_b);
	ld	de,#_flag_b
	ld	hl,#_key_b
	push	hl
	push	de
	call	_decrypt
	add	sp, #4
;main.c:601: remove_flag_padding();
	call	_remove_flag_padding
;main.c:604: strcpy((char *)flag_string, "1ST FLAG IS     ");
	ldhl	sp,#0
	ld	c,l
	ld	b,h
	ld	e, c
	ld	d, b
	push	bc
	ld	hl,#___str_0
	push	hl
	push	de
	call	_strcpy
	add	sp, #4
	pop	bc
;main.c:605: memcpy(flag_string + 0x10U, flag_a, FLAG_LEN);
	ld	hl,#0x0010
	add	hl,bc
	ld	a,l
	ld	d,h
	ldhl	sp,#31
	ld	(hl+),a
	ld	(hl),d
	dec	hl
	ld	e,(hl)
	inc	hl
	ld	d,(hl)
	push	bc
	ld	hl,#0x0008
	push	hl
	ld	hl,#_flag_a
	push	hl
	push	de
	call	_memcpy
	add	sp, #6
	pop	bc
;main.c:606: flag_string[0x18U] = '\0';
	ld	hl,#0x0018
	add	hl,bc
	ld	a,l
	ld	d,h
	ldhl	sp,#31
	ld	(hl+),a
	ld	(hl),d
	dec	hl
	ld	a,(hl+)
	ld	h,(hl)
	ld	l,a
	ld	(hl),#0x00
;main.c:607: strcat((char *)flag_string, flag_b);
	ld	e, c
	ld	d, b
	push	bc
	ld	hl,#_flag_b
	push	hl
	push	de
	call	_strcat
	add	sp, #4
	pop	bc
;main.c:608: strcat((char *)flag_string, ".");
	ld	e, c
	ld	d, b
	push	bc
	ld	hl,#___str_1
	push	hl
	push	de
	call	_strcat
	add	sp, #4
	pop	bc
;main.c:610: show_text("THAT WORKED.");
	ld	de,#___str_2
	push	bc
	push	de
	call	_show_text
	add	sp, #2
	pop	bc
;main.c:611: show_text("I\'M IN.");
	ld	de,#___str_3
	push	bc
	push	de
	call	_show_text
	add	sp, #2
	pop	bc
;main.c:612: show_text((char *)flag_string);
	push	bc
	call	_show_text
	add	sp, #2
;main.c:613: clear_window();
	call	_clear_window
;main.c:616: while (1) {}
00102$:
	jr	00102$
	add	sp, #33
	ret
___str_0:
	.ascii "1ST FLAG IS     "
	.db 0x00
___str_1:
	.ascii "."
	.db 0x00
___str_2:
	.ascii "THAT WORKED."
	.db 0x00
___str_3:
	.ascii "I'M IN."
	.db 0x00
;main.c:619: void fail_level_1(void)
;	---------------------------------
; Function fail_level_1
; ---------------------------------
_fail_level_1::
;main.c:621: show_text("NO GOOD.");
	ld	de,#___str_4
	push	de
	call	_show_text
	add	sp, #2
;main.c:622: show_text("LET ME TRY SOME THING ELSE.");
	ld	de,#___str_5
	push	de
	call	_show_text
	add	sp, #2
;main.c:623: clear_window();
	jp	_clear_window
___str_4:
	.ascii "NO GOOD."
	.db 0x00
___str_5:
	.ascii "LET ME TRY SOME THING ELSE."
	.db 0x00
;main.c:626: void decrypt(UINT32 *v, UINT32 *k)
;	---------------------------------
; Function decrypt
; ---------------------------------
_decrypt::
	add	sp, #-46
;main.c:628: UINT32 v0=v[0], v1=v[1], sum=0xC6EF3720, i;  /* set up */
	ldhl	sp,#48
	ld	a,(hl+)
	ld	e, (hl)
	ldhl	sp,#44
	ld	(hl+),a
	ld	(hl),e
	dec	hl
	ld	e,(hl)
	inc	hl
	ld	d,(hl)
	ld	a,(de)
	ldhl	sp,#12
	ld	(hl+),a
	inc	de
	ld	a,(de)
	ld	(hl+),a
	inc	de
	ld	a,(de)
	ld	(hl+),a
	inc	de
	ld	a,(de)
	ld	(hl),a
	ldhl	sp,#45
	dec	hl
	ld	e,(hl)
	inc	hl
	ld	d,(hl)
	ld	hl,#0x0004
	add	hl,de
	ld	a,l
	ld	d,h
	ldhl	sp,#42
	ld	(hl+),a
	ld	(hl),d
	dec	hl
	ld	e,(hl)
	inc	hl
	ld	d,(hl)
	ld	a,(de)
	ldhl	sp,#0
	ld	(hl+),a
	inc	de
	ld	a,(de)
	ld	(hl+),a
	inc	de
	ld	a,(de)
	ld	(hl+),a
	inc	de
	ld	a,(de)
	ld	(hl),a
;main.c:630: UINT32 k0=k[0], k1=k[1], k2=k[2], k3=k[3];   /* cache key */
	ldhl	sp,#51
	dec	hl
	ld	c,(hl)
	inc	hl
	ld	b,(hl)
	ld	e, c
	ld	d, b
	ld	a,(de)
	ldhl	sp,#20
	ld	(hl+),a
	inc	de
	ld	a,(de)
	ld	(hl+),a
	inc	de
	ld	a,(de)
	ld	(hl+),a
	inc	de
	ld	a,(de)
	ld	(hl),a
	ld	hl,#0x0004
	add	hl,bc
	ld	a,l
	ld	d,h
	ldhl	sp,#40
	ld	(hl+),a
	ld	(hl),d
	dec	hl
	ld	e,(hl)
	inc	hl
	ld	d,(hl)
	ld	a,(de)
	ldhl	sp,#16
	ld	(hl+),a
	inc	de
	ld	a,(de)
	ld	(hl+),a
	inc	de
	ld	a,(de)
	ld	(hl+),a
	inc	de
	ld	a,(de)
	ld	(hl),a
	ld	hl,#0x0008
	add	hl,bc
	ld	a,l
	ld	d,h
	ldhl	sp,#40
	ld	(hl+),a
	ld	(hl),d
	dec	hl
	ld	e,(hl)
	inc	hl
	ld	d,(hl)
	ld	a,(de)
	ldhl	sp,#28
	ld	(hl+),a
	inc	de
	ld	a,(de)
	ld	(hl+),a
	inc	de
	ld	a,(de)
	ld	(hl+),a
	inc	de
	ld	a,(de)
	ld	(hl),a
	ld	hl,#0x000C
	add	hl,bc
	ld	c,l
	ld	b,h
	ld	e, c
	ld	d, b
	ld	a,(de)
	ldhl	sp,#24
	ld	(hl+),a
	inc	de
	ld	a,(de)
	ld	(hl+),a
	inc	de
	ld	a,(de)
	ld	(hl+),a
	inc	de
	ld	a,(de)
	ld	(hl),a
;main.c:631: for (i=0; i<32; i++) {                         /* basic cycle start */
	ldhl	sp,#4
	ld	(hl),#0x20
	xor	a, a
	inc	hl
	ld	(hl+),a
	ld	(hl+),a
	ld	(hl+),a
	ld	(hl),#0x20
	inc	hl
	ld	(hl),#0x37
	inc	hl
	ld	(hl),#0xEF
	inc	hl
	ld	(hl),#0xC6
00104$:
;main.c:632: v1 -= ((v0<<4) + k2) ^ (v0 + sum) ^ ((v0>>5) + k3);
	push	af
	ldhl	sp,#14
	ld	a,(hl)
	ldhl	sp,#38
	ld	(hl),a
	ldhl	sp,#15
	ld	a,(hl)
	ldhl	sp,#39
	ld	(hl),a
	ldhl	sp,#16
	ld	a,(hl)
	ldhl	sp,#40
	ld	(hl),a
	ldhl	sp,#17
	ld	a,(hl)
	ldhl	sp,#41
	ld	(hl),a
	pop	af
	ld	a,#0x04
00116$:
	ldhl	sp,#36
	sla	(hl)
	inc	hl
	rl	(hl)
	inc	hl
	rl	(hl)
	inc	hl
	rl	(hl)
	dec	a
	jr	NZ,00116$
	dec	hl
	dec	hl
	dec	hl
	ld	e,(hl)
	inc	hl
	ld	d,(hl)
	ld	a,e
	ldhl	sp,#28
	add	a, (hl)
	ld	e,a
	ld	a,d
	inc	hl
	adc	a, (hl)
	push	af
	ldhl	sp,#39
	ld	(hl-),a
	ld	(hl),e
	ldhl	sp,#41
	dec	hl
	ld	e,(hl)
	inc	hl
	ld	d,(hl)
	ldhl	sp,#32
	pop	af
	ld	a,e
	adc	a, (hl)
	ld	e,a
	ld	a,d
	inc	hl
	adc	a, (hl)
	ldhl	sp,#39
	ld	(hl-),a
	ld	(hl),e
	ldhl	sp,#13
	dec	hl
	ld	e,(hl)
	inc	hl
	ld	d,(hl)
	ld	a,e
	ldhl	sp,#8
	add	a, (hl)
	ld	e,a
	ld	a,d
	inc	hl
	adc	a, (hl)
	push	af
	ldhl	sp,#35
	ld	(hl-),a
	ld	(hl),e
	ldhl	sp,#17
	dec	hl
	ld	e,(hl)
	inc	hl
	ld	d,(hl)
	ldhl	sp,#12
	pop	af
	ld	a,e
	adc	a, (hl)
	ld	e,a
	ld	a,d
	inc	hl
	adc	a, (hl)
	ldhl	sp,#35
	ld	(hl-),a
	ld	(hl),e
	dec	hl
	dec	hl
	ld	a,(hl)
	ldhl	sp,#36
	xor	a, (hl)
	ldhl	sp,#32
	ld	(hl+),a
	ld	a,(hl)
	ldhl	sp,#37
	xor	a, (hl)
	ldhl	sp,#33
	ld	(hl+),a
	ld	a,(hl)
	ldhl	sp,#38
	xor	a, (hl)
	ldhl	sp,#34
	ld	(hl+),a
	ld	a,(hl)
	ldhl	sp,#39
	xor	a, (hl)
	ldhl	sp,#35
	ld	(hl),a
	push	af
	ldhl	sp,#14
	ld	a,(hl)
	ldhl	sp,#38
	ld	(hl),a
	ldhl	sp,#15
	ld	a,(hl)
	ldhl	sp,#39
	ld	(hl),a
	ldhl	sp,#16
	ld	a,(hl)
	ldhl	sp,#40
	ld	(hl),a
	ldhl	sp,#17
	ld	a,(hl)
	ldhl	sp,#41
	ld	(hl),a
	pop	af
	ld	a,#0x05
00118$:
	ldhl	sp,#39
	srl	(hl)
	dec	hl
	rr	(hl)
	dec	hl
	rr	(hl)
	dec	hl
	rr	(hl)
	dec	a
	jr	NZ,00118$
	ld	e,(hl)
	inc	hl
	ld	d,(hl)
	ld	a,e
	ldhl	sp,#24
	add	a, (hl)
	ld	e,a
	ld	a,d
	inc	hl
	adc	a, (hl)
	push	af
	ldhl	sp,#39
	ld	(hl-),a
	ld	(hl),e
	ldhl	sp,#41
	dec	hl
	ld	e,(hl)
	inc	hl
	ld	d,(hl)
	ldhl	sp,#28
	pop	af
	ld	a,e
	adc	a, (hl)
	ld	e,a
	ld	a,d
	inc	hl
	adc	a, (hl)
	ldhl	sp,#39
	ld	(hl-),a
	ld	(hl),e
	ldhl	sp,#32
	ld	a,(hl)
	ldhl	sp,#36
	xor	a, (hl)
	ldhl	sp,#32
	ld	(hl+),a
	ld	a,(hl)
	ldhl	sp,#37
	xor	a, (hl)
	ldhl	sp,#33
	ld	(hl+),a
	ld	a,(hl)
	ldhl	sp,#38
	xor	a, (hl)
	ldhl	sp,#34
	ld	(hl+),a
	ld	a,(hl)
	ldhl	sp,#39
	xor	a, (hl)
	ldhl	sp,#35
	ld	(hl),a
	pop	de
	push	de
	ld	a,e
	ldhl	sp,#32
	sub	a, (hl)
	ld	e,a
	ld	a,d
	inc	hl
	sbc	a, (hl)
	push	af
	ldhl	sp,#3
	ld	(hl-),a
	ld	(hl),e
	ldhl	sp,#5
	dec	hl
	ld	e,(hl)
	inc	hl
	ld	d,(hl)
	ldhl	sp,#36
	pop	af
	ld	a,e
	sbc	a, (hl)
	ld	e,a
	ld	a,d
	inc	hl
	sbc	a, (hl)
	ldhl	sp,#3
	ld	(hl-),a
	ld	(hl),e
;main.c:633: v0 -= ((v1<<4) + k0) ^ (v1 + sum) ^ ((v1>>5) + k1);
	push	af
	dec	hl
	dec	hl
	ld	a,(hl)
	ldhl	sp,#34
	ld	(hl),a
	ldhl	sp,#3
	ld	a,(hl)
	ldhl	sp,#35
	ld	(hl),a
	ldhl	sp,#4
	ld	a,(hl)
	ldhl	sp,#36
	ld	(hl),a
	ldhl	sp,#5
	ld	a,(hl)
	ldhl	sp,#37
	ld	(hl),a
	pop	af
	ld	a,#0x04
00120$:
	ldhl	sp,#32
	sla	(hl)
	inc	hl
	rl	(hl)
	inc	hl
	rl	(hl)
	inc	hl
	rl	(hl)
	dec	a
	jr	NZ,00120$
	dec	hl
	dec	hl
	dec	hl
	ld	e,(hl)
	inc	hl
	ld	d,(hl)
	ld	a,e
	ldhl	sp,#20
	add	a, (hl)
	ld	e,a
	ld	a,d
	inc	hl
	adc	a, (hl)
	push	af
	ldhl	sp,#35
	ld	(hl-),a
	ld	(hl),e
	ldhl	sp,#37
	dec	hl
	ld	e,(hl)
	inc	hl
	ld	d,(hl)
	ldhl	sp,#24
	pop	af
	ld	a,e
	adc	a, (hl)
	ld	e,a
	ld	a,d
	inc	hl
	adc	a, (hl)
	ldhl	sp,#35
	ld	(hl-),a
	ld	(hl),e
	pop	de
	push	de
	ld	a,e
	ldhl	sp,#8
	add	a, (hl)
	ld	e,a
	ld	a,d
	inc	hl
	adc	a, (hl)
	push	af
	ldhl	sp,#39
	ld	(hl-),a
	ld	(hl),e
	ldhl	sp,#5
	dec	hl
	ld	e,(hl)
	inc	hl
	ld	d,(hl)
	ldhl	sp,#12
	pop	af
	ld	a,e
	adc	a, (hl)
	ld	e,a
	ld	a,d
	inc	hl
	adc	a, (hl)
	ldhl	sp,#39
	ld	(hl-),a
	ld	(hl),e
	ldhl	sp,#32
	ld	a,(hl)
	ldhl	sp,#36
	xor	a, (hl)
	ldhl	sp,#32
	ld	(hl+),a
	ld	a,(hl)
	ldhl	sp,#37
	xor	a, (hl)
	ldhl	sp,#33
	ld	(hl+),a
	ld	a,(hl)
	ldhl	sp,#38
	xor	a, (hl)
	ldhl	sp,#34
	ld	(hl+),a
	ld	a,(hl)
	ldhl	sp,#39
	xor	a, (hl)
	ldhl	sp,#35
	ld	(hl),a
	push	af
	ldhl	sp,#2
	ld	a,(hl)
	ldhl	sp,#38
	ld	(hl),a
	ldhl	sp,#3
	ld	a,(hl)
	ldhl	sp,#39
	ld	(hl),a
	ldhl	sp,#4
	ld	a,(hl)
	ldhl	sp,#40
	ld	(hl),a
	ldhl	sp,#5
	ld	a,(hl)
	ldhl	sp,#41
	ld	(hl),a
	pop	af
	ld	a,#0x05
00122$:
	ldhl	sp,#39
	srl	(hl)
	dec	hl
	rr	(hl)
	dec	hl
	rr	(hl)
	dec	hl
	rr	(hl)
	dec	a
	jr	NZ,00122$
	ld	e,(hl)
	inc	hl
	ld	d,(hl)
	ld	a,e
	ldhl	sp,#16
	add	a, (hl)
	ld	e,a
	ld	a,d
	inc	hl
	adc	a, (hl)
	push	af
	ldhl	sp,#39
	ld	(hl-),a
	ld	(hl),e
	ldhl	sp,#41
	dec	hl
	ld	e,(hl)
	inc	hl
	ld	d,(hl)
	ldhl	sp,#20
	pop	af
	ld	a,e
	adc	a, (hl)
	ld	e,a
	ld	a,d
	inc	hl
	adc	a, (hl)
	ldhl	sp,#39
	ld	(hl-),a
	ld	(hl),e
	ldhl	sp,#32
	ld	a,(hl)
	ldhl	sp,#36
	xor	a, (hl)
	ldhl	sp,#32
	ld	(hl+),a
	ld	a,(hl)
	ldhl	sp,#37
	xor	a, (hl)
	ldhl	sp,#33
	ld	(hl+),a
	ld	a,(hl)
	ldhl	sp,#38
	xor	a, (hl)
	ldhl	sp,#34
	ld	(hl+),a
	ld	a,(hl)
	ldhl	sp,#39
	xor	a, (hl)
	ldhl	sp,#35
	ld	(hl),a
	ldhl	sp,#13
	dec	hl
	ld	e,(hl)
	inc	hl
	ld	d,(hl)
	ld	a,e
	ldhl	sp,#32
	sub	a, (hl)
	ld	e,a
	ld	a,d
	inc	hl
	sbc	a, (hl)
	push	af
	ldhl	sp,#15
	ld	(hl-),a
	ld	(hl),e
	ldhl	sp,#17
	dec	hl
	ld	e,(hl)
	inc	hl
	ld	d,(hl)
	ldhl	sp,#36
	pop	af
	ld	a,e
	sbc	a, (hl)
	ld	e,a
	ld	a,d
	inc	hl
	sbc	a, (hl)
	ldhl	sp,#15
	ld	(hl-),a
	ld	(hl),e
;main.c:634: sum -= delta;
	ldhl	sp,#9
	dec	hl
	ld	e,(hl)
	inc	hl
	ld	d,(hl)
	ld	a,e
	sub	a, #0xB9
	ld	e,a
	ld	a,d
	sbc	a, #0x79
	push	af
	ld	(hl-),a
	ld	(hl),e
	ldhl	sp,#13
	dec	hl
	ld	e,(hl)
	inc	hl
	ld	d,(hl)
	pop	af
	ld	a,e
	sbc	a, #0x37
	ld	e,a
	ld	a,d
	sbc	a, #0x9E
	ld	(hl-),a
	ld	(hl),e
	ldhl	sp,#5
	dec	hl
	ld	e,(hl)
	inc	hl
	ld	d,(hl)
	ld	a,e
	sub	a, #0x01
	ld	e,a
	ld	a,d
	sbc	a, #0x00
	push	af
	ldhl	sp,#35
	ld	(hl-),a
	ld	(hl),e
	ldhl	sp,#9
	dec	hl
	ld	e,(hl)
	inc	hl
	ld	d,(hl)
	pop	af
	ld	a,e
	sbc	a, #0x00
	ld	e,a
	ld	a,d
	sbc	a, #0x00
	ldhl	sp,#35
	ld	(hl-),a
	ld	(hl),e
	dec	hl
	dec	hl
	ld	d,h
	ld	e,l
	ldhl	sp,#4
	ld	a,(de)
	ld	(hl+),a
	inc	de
	ld	a,(de)
	ld	(hl+),a
	inc	de
	ld	a,(de)
	ld	(hl+),a
	inc	de
	ld	a,(de)
	ld	(hl),a
;main.c:631: for (i=0; i<32; i++) {                         /* basic cycle start */
	ldhl	sp,#35
	ld	a,(hl-)
	or	a, (hl)
	dec	hl
	or	a, (hl)
	dec	hl
	or	a,(hl)
	jp	NZ,00104$
;main.c:636: v[0]=v0; v[1]=v1;
	ldhl	sp,#45
	dec	hl
	ld	e,(hl)
	inc	hl
	ld	d,(hl)
	ldhl	sp,#12
	ld	a,(hl)
	ld	(de),a
	inc	de
	inc	hl
	ld	a,(hl)
	ld	(de),a
	inc	de
	inc	hl
	ld	a,(hl)
	ld	(de),a
	inc	de
	inc	hl
	ld	a,(hl)
	ld	(de),a
	ldhl	sp,#43
	dec	hl
	ld	e,(hl)
	inc	hl
	ld	d,(hl)
	ldhl	sp,#0
	ld	a,(hl)
	ld	(de),a
	inc	de
	inc	hl
	ld	a,(hl)
	ld	(de),a
	inc	de
	inc	hl
	ld	a,(hl)
	ld	(de),a
	inc	de
	inc	hl
	ld	a,(hl)
	ld	(de),a
	add	sp, #46
	ret
;main.c:640: void remove_flag_padding(void)
;	---------------------------------
; Function remove_flag_padding
; ---------------------------------
_remove_flag_padding::
	add	sp, #-3
;main.c:644: UINT8 flab_b_len = flag_b[FLAG_LEN - 1];
	ld	bc,#_flag_b + 7
	ld	a,(bc)
	ldhl	sp,#0
	ld	(hl),a
;main.c:645: memset(flag_b + flab_b_len, '\0', FLAG_LEN - flab_b_len);
	ld	c,(hl)
	ld	b,#0x00
	ld	de,#0x0008
	ld	a,e
	sub	a,c
	ld	e,a
	ld	a,d
	sbc	a,b
	inc	hl
	inc	hl
	ld	(hl-),a
	ld	(hl),e
	ld	de,#_flag_b
	dec	hl
	ld	l,(hl)
	ld	h,#0x00
	add	hl,de
	ld	c,l
	ld	b,h
	ldhl	sp,#1
	ld	a,(hl+)
	ld	h,(hl)
	ld	l,a
	push	hl
	ld	hl,#0x0000
	push	hl
	push	bc
	call	_memset
	add	sp, #6
	add	sp, #3
	ret
;main.c:648: void main()
;	---------------------------------
; Function main
; ---------------------------------
_main::
;main.c:651: key_a[0] = 0xc2bb5c5b;
	ld	hl,#_key_a
	ld	(hl),#0x5B
	inc	hl
	ld	(hl),#0x5C
	inc	hl
	ld	(hl),#0xBB
	inc	hl
	ld	(hl),#0xC2
;main.c:653: disable_interrupts();
	call	_disable_interrupts
;main.c:654: DISPLAY_OFF;
	call	_display_off
;main.c:661: set_win_data(0x80U, window_border_len, window_border);
	ld	de,#_window_border
	push	de
	ld	hl,#0x0180
	push	hl
	call	_set_win_data
	add	sp, #4
;main.c:662: set_win_tiles(0, 0, text_box_width, text_box_height, text_box);
	ld	de,#_text_box
	push	de
	ld	hl,#0x0614
	push	hl
	ld	hl,#0x0000
	push	hl
	call	_set_win_tiles
	add	sp, #6
;main.c:663: move_win(7,96);
	ld	hl,#0x6007
	push	hl
	call	_move_win
	add	sp, #2
;main.c:666: set_win_data(0U, alphabet_len, alphabet);
	ld	de,#_alphabet
	push	de
	ld	hl,#0x2E00
	push	hl
	call	_set_win_data
	add	sp, #4
;main.c:667: set_win_tiles(2U, 2U, text_map_width, text_map_height, text_map);
	ld	de,#_text_map
	push	de
	ld	hl,#0x0210
	push	hl
	ld	l, #0x02
	push	hl
	call	_set_win_tiles
	add	sp, #6
;main.c:670: set_win_data(button_address_start, button_len, button);
	ld	de,#_button
	push	de
	ld	hl,#0x0630
	push	hl
	call	_set_win_data
	add	sp, #4
;main.c:673: key_a[1] = 0x93373628;
	ld	hl,#(_key_a + 0x0004)
	ld	(hl),#0x28
	inc	hl
	ld	(hl),#0x36
	inc	hl
	ld	(hl),#0x37
	inc	hl
	ld	(hl),#0x93
;main.c:676: set_win_data(arrow_address_1, arrow_tile_len, arrow_tile);
	ld	de,#_arrow_tile
	push	de
	ld	hl,#0x022E
	push	hl
	call	_set_win_data
	add	sp, #4
;main.c:679: SPRITES_8x16;
	ld	de,#0xFF40
	ld	a,(de)
	ld	e,a
	ld	d,#0x00
	ld	a,e
	set	2, a
	ld	b,a
	ld	hl,#0xFF40
	ld	(hl),b
;main.c:680: set_sprite_data(0, agent_len, agent);
	ld	de,#_agent
	push	de
	ld	hl,#0x0800
	push	hl
	call	_set_sprite_data
	add	sp, #4
;main.c:681: set_sprite_tile(0, 0);
	ld	hl,#0x0000
	push	hl
	call	_set_sprite_tile
	add	sp, #2
;main.c:682: set_sprite_tile(1, 2);
	ld	hl,#0x0201
	push	hl
	call	_set_sprite_tile
	add	sp, #2
;main.c:683: set_sprite_tile(2, 4);
	ld	hl,#0x0402
	push	hl
	call	_set_sprite_tile
	add	sp, #2
;main.c:684: set_sprite_tile(3, 6);
	ld	hl,#0x0603
	push	hl
	call	_set_sprite_tile
	add	sp, #2
;main.c:685: move_sprite(0, 0x30U, 0x50U);
	ld	hl,#0x5030
	push	hl
	xor	a, a
	push	af
	inc	sp
	call	_move_sprite
	add	sp, #3
;main.c:686: move_sprite(1, 0x38U, 0x50U);
	ld	hl,#0x5038
	push	hl
	ld	a,#0x01
	push	af
	inc	sp
	call	_move_sprite
	add	sp, #3
;main.c:687: move_sprite(2, 0x30U, 0x60U);
	ld	hl,#0x6030
	push	hl
	ld	a,#0x02
	push	af
	inc	sp
	call	_move_sprite
	add	sp, #3
;main.c:688: move_sprite(3, 0x38U, 0x60U);
	ld	hl,#0x6038
	push	hl
	ld	a,#0x03
	push	af
	inc	sp
	call	_move_sprite
	add	sp, #3
;main.c:690: SHOW_BKG;
	ld	de,#0xFF40
	ld	a,(de)
	ld	e,a
	ld	d,#0x00
	ld	a,e
	set	0, a
	ld	b,a
	ld	hl,#0xFF40
	ld	(hl),b
;main.c:691: SHOW_SPRITES;
	ld	de,#0xFF40
	ld	a,(de)
	ld	e,a
	ld	d,#0x00
	ld	a,e
	set	1, a
	ld	b,a
	ld	l, #0x40
	ld	(hl),b
;main.c:692: DISPLAY_ON;
	ld	de,#0xFF40
	ld	a,(de)
	ld	e,a
	ld	d,#0x00
	ld	a,e
	set	7, a
	ld	b,a
	ld	l, #0x40
	ld	(hl),b
;main.c:693: enable_interrupts();
	call	_enable_interrupts
;main.c:696: key_a[2] = 0xd0849af3;
	ld	hl,#(_key_a + 0x0008)
	ld	(hl),#0xF3
	inc	hl
	ld	(hl),#0x9A
	inc	hl
	ld	(hl),#0x84
	inc	hl
	ld	(hl),#0xD0
;main.c:698: SHOW_WIN;
	ld	de,#0xFF40
	ld	a,(de)
	ld	e,a
	ld	d,#0x00
	ld	a,e
	set	5, a
	ld	b,a
	ld	hl,#0xFF40
	ld	(hl),b
;main.c:699: show_text("MY TARGET IS    INSIDE.");
	ld	de,#___str_6
	push	de
	call	_show_text
	add	sp, #2
;main.c:700: show_text("THIS DOOR NEEDS A CODE");
	ld	de,#___str_7
	push	de
	call	_show_text
	add	sp, #2
;main.c:701: clear_window();
	call	_clear_window
;main.c:704: while(1) {
00104$:
;main.c:706: sleep(4);
	ld	a,#0x04
	push	af
	inc	sp
	call	_sleep
	inc	sp
;main.c:707: process_button_press();
	call	_process_button_press
;main.c:709: if (input_seq_ctr >= SEQ_LEN) {
	ld	hl,#_input_seq_ctr
	ld	b,(hl)
	ld	c,#0x00
	ld	a,b
	sub	a, #0x10
	ld	a,c
	sbc	a, #0x00
	jr	C,00104$
;main.c:711: key_a[3] = 0x04183ac4;
	ld	hl,#(_key_a + 0x000c)
	ld	(hl),#0xC4
	inc	hl
	ld	(hl),#0x3A
	inc	hl
	ld	(hl),#0x18
	inc	hl
	ld	(hl),#0x04
;main.c:715: check_sequence();
	call	_check_sequence
;main.c:716: input_seq_ctr = 0;
	ld	hl,#_input_seq_ctr
	ld	(hl),#0x00
	jr	00104$
	ret
___str_6:
	.ascii "MY TARGET IS    INSIDE."
	.db 0x00
___str_7:
	.ascii "THIS DOOR NEEDS A CODE"
	.db 0xE2
	.db 0x80
	.db 0xA6
	.db 0x00
	.area _CODE
	.area _CABS (ABS)
